Archive member included to satisfy reference by file (symbol)

/Users/stevefar/nacl_sdk/pepper_45/lib/newlib_arm/Release/liberror_handling.a(error_handling_arm.o)
                              newlib/Release/debugging_arm.o (EHRequestExceptionsJson)
/Users/stevefar/nacl_sdk/pepper_45/lib/newlib_arm/Release/liberror_handling.a(string_stream_arm.o)
                              /Users/stevefar/nacl_sdk/pepper_45/lib/newlib_arm/Release/liberror_handling.a(error_handling_arm.o) (ssinit)
/Users/stevefar/nacl_sdk/pepper_45/toolchain/mac_arm_newlib/bin/../lib/gcc/arm-nacl/4.9.2/../../../../arm-nacl/lib/libppapi_stub.a(plugin_main_irt_21ce9d26.o)
                              (main)
/Users/stevefar/nacl_sdk/pepper_45/toolchain/mac_arm_newlib/bin/../lib/gcc/arm-nacl/4.9.2/../../../../arm-nacl/lib/libppapi_stub.a(ppapi_plugin_main_399d0cf7.o)
                              /Users/stevefar/nacl_sdk/pepper_45/toolchain/mac_arm_newlib/bin/../lib/gcc/arm-nacl/4.9.2/../../../../arm-nacl/lib/libppapi_stub.a(plugin_main_irt_21ce9d26.o) (PpapiPluginMain)
/Users/stevefar/nacl_sdk/pepper_45/toolchain/mac_arm_newlib/bin/../lib/gcc/arm-nacl/4.9.2/../../../../arm-nacl/lib/libppapi_stub.a(ppapi_plugin_start_8da67623.o)
                              /Users/stevefar/nacl_sdk/pepper_45/toolchain/mac_arm_newlib/bin/../lib/gcc/arm-nacl/4.9.2/../../../../arm-nacl/lib/libppapi_stub.a(ppapi_plugin_main_399d0cf7.o) (PpapiPluginStart)
/Users/stevefar/nacl_sdk/pepper_45/toolchain/mac_arm_newlib/bin/../lib/gcc/arm-nacl/4.9.2/../../../../arm-nacl/lib/libppapi_stub.a(thread_creator_ccf263e1.o)
                              /Users/stevefar/nacl_sdk/pepper_45/toolchain/mac_arm_newlib/bin/../lib/gcc/arm-nacl/4.9.2/../../../../arm-nacl/lib/libppapi_stub.a(ppapi_plugin_start_8da67623.o) (__nacl_register_thread_creator)
/Users/stevefar/nacl_sdk/pepper_45/toolchain/mac_arm_newlib/bin/../lib/gcc/arm-nacl/4.9.2/../../../../arm-nacl/lib/libpthread.a(nc_thread_7e478b15.o)
                              newlib/Release/debugging_arm.o (pthread_create)
/Users/stevefar/nacl_sdk/pepper_45/toolchain/mac_arm_newlib/bin/../lib/gcc/arm-nacl/4.9.2/../../../../arm-nacl/lib/libpthread.a(nc_condvar_305aa45a.o)
                              /Users/stevefar/nacl_sdk/pepper_45/toolchain/mac_arm_newlib/bin/../lib/gcc/arm-nacl/4.9.2/../../../../arm-nacl/lib/libpthread.a(nc_thread_7e478b15.o) (pthread_cond_init)
/Users/stevefar/nacl_sdk/pepper_45/toolchain/mac_arm_newlib/bin/../lib/gcc/arm-nacl/4.9.2/../../../../arm-nacl/lib/libpthread.a(dynamic_annotations_33ba59cc.o)
                              /Users/stevefar/nacl_sdk/pepper_45/toolchain/mac_arm_newlib/bin/../lib/gcc/arm-nacl/4.9.2/../../../../arm-nacl/lib/libpthread.a(nc_thread_7e478b15.o) (NACL_AnnotateCondVarWait)
/Users/stevefar/nacl_sdk/pepper_45/toolchain/mac_arm_newlib/bin/../lib/gcc/arm-nacl/4.9.2/../../../../arm-nacl/lib/libpthread.a(nc_mutex_86341ae1.o)
                              /Users/stevefar/nacl_sdk/pepper_45/toolchain/mac_arm_newlib/bin/../lib/gcc/arm-nacl/4.9.2/../../../../arm-nacl/lib/libpthread.a(nc_thread_7e478b15.o) (pthread_mutex_init)
/Users/stevefar/nacl_sdk/pepper_45/toolchain/mac_arm_newlib/bin/../lib/gcc/arm-nacl/4.9.2/../../../../arm-nacl/lib/libpthread.a(nc_init_irt_d3daafc0.o)
                              /Users/stevefar/nacl_sdk/pepper_45/toolchain/mac_arm_newlib/bin/../lib/gcc/arm-nacl/4.9.2/../../../../arm-nacl/lib/libpthread.a(nc_thread_7e478b15.o) (__nc_initialize_interfaces)
/Users/stevefar/nacl_sdk/pepper_45/toolchain/mac_arm_newlib/bin/../lib/gcc/arm-nacl/4.9.2/libgcc.a(unwind-arm.o)
                              /Users/stevefar/nacl_sdk/pepper_45/toolchain/mac_arm_newlib/bin/../lib/gcc/arm-nacl/4.9.2/../../../../arm-nacl/lib/libppapi_stub.a(plugin_main_irt_21ce9d26.o) (__aeabi_unwind_cpp_pr0)
/Users/stevefar/nacl_sdk/pepper_45/toolchain/mac_arm_newlib/bin/../lib/gcc/arm-nacl/4.9.2/libgcc.a(libunwind.o)
                              /Users/stevefar/nacl_sdk/pepper_45/toolchain/mac_arm_newlib/bin/../lib/gcc/arm-nacl/4.9.2/libgcc.a(unwind-arm.o) (restore_core_regs)
/Users/stevefar/nacl_sdk/pepper_45/toolchain/mac_arm_newlib/bin/../lib/gcc/arm-nacl/4.9.2/libgcc.a(pr-support.o)
                              /Users/stevefar/nacl_sdk/pepper_45/toolchain/mac_arm_newlib/bin/../lib/gcc/arm-nacl/4.9.2/libgcc.a(unwind-arm.o) (__gnu_unwind_execute)
/Users/stevefar/nacl_sdk/pepper_45/toolchain/mac_arm_newlib/bin/../lib/gcc/arm-nacl/4.9.2/../../../../arm-nacl/lib/libnacl.a(_exit_710c7d0d.o)
                              /Users/stevefar/nacl_sdk/pepper_45/toolchain/mac_arm_newlib/bin/../lib/gcc/arm-nacl/4.9.2/../../../../arm-nacl/lib/libppapi_stub.a(ppapi_plugin_start_8da67623.o) (_exit)
/Users/stevefar/nacl_sdk/pepper_45/toolchain/mac_arm_newlib/bin/../lib/gcc/arm-nacl/4.9.2/../../../../arm-nacl/lib/libnacl.a(abort_9f6b5845.o)
                              /Users/stevefar/nacl_sdk/pepper_45/toolchain/mac_arm_newlib/bin/../lib/gcc/arm-nacl/4.9.2/libgcc.a(unwind-arm.o) (abort)
/Users/stevefar/nacl_sdk/pepper_45/toolchain/mac_arm_newlib/bin/../lib/gcc/arm-nacl/4.9.2/../../../../arm-nacl/lib/libnacl.a(environ_25cd24d8.o)
                              /Users/stevefar/nacl_sdk/pepper_45/toolchain/mac_arm_newlib/bin/../lib/gcc/arm-nacl/4.9.2/../../../../arm-nacl/lib/libppapi_stub.a(ppapi_plugin_start_8da67623.o) (environ)
/Users/stevefar/nacl_sdk/pepper_45/toolchain/mac_arm_newlib/bin/../lib/gcc/arm-nacl/4.9.2/../../../../arm-nacl/lib/libnacl.a(malloc_222c4a1e.o)
                              newlib/Release/debugging_arm.o (malloc)
/Users/stevefar/nacl_sdk/pepper_45/toolchain/mac_arm_newlib/bin/../lib/gcc/arm-nacl/4.9.2/../../../../arm-nacl/lib/libnacl.a(nacl_irt_6de1d53f.o)
                              /Users/stevefar/nacl_sdk/pepper_45/toolchain/mac_arm_newlib/bin/../lib/gcc/arm-nacl/4.9.2/../../../../arm-nacl/lib/libpthread.a(nc_init_irt_d3daafc0.o) (__libnacl_mandatory_irt_query)
/Users/stevefar/nacl_sdk/pepper_45/toolchain/mac_arm_newlib/bin/../lib/gcc/arm-nacl/4.9.2/../../../../arm-nacl/lib/libnacl.a(pthread_initialize_minimal_4b6e776b.o)
                              /Users/stevefar/nacl_sdk/pepper_45/toolchain/mac_arm_newlib/bin/../lib/gcc/arm-nacl/4.9.2/../../../../arm-nacl/lib/libpthread.a(nc_thread_7e478b15.o) (__pthread_initialize_minimal)
/Users/stevefar/nacl_sdk/pepper_45/toolchain/mac_arm_newlib/bin/../lib/gcc/arm-nacl/4.9.2/../../../../arm-nacl/lib/libnacl.a(nacl_read_tp_5748ac47.o)
                              /Users/stevefar/nacl_sdk/pepper_45/toolchain/mac_arm_newlib/bin/../lib/gcc/arm-nacl/4.9.2/../../../../arm-nacl/lib/libpthread.a(nc_thread_7e478b15.o) (__nacl_read_tp)
/Users/stevefar/nacl_sdk/pepper_45/toolchain/mac_arm_newlib/bin/../lib/gcc/arm-nacl/4.9.2/../../../../arm-nacl/lib/libnacl.a(nacl_interface_query_ef8a99f1.o)
                              /Users/stevefar/nacl_sdk/pepper_45/lib/newlib_arm/Release/liberror_handling.a(error_handling_arm.o) (nacl_interface_query)
/Users/stevefar/nacl_sdk/pepper_45/toolchain/mac_arm_newlib/bin/../lib/gcc/arm-nacl/4.9.2/../../../../arm-nacl/lib/libnacl.a(mmap_767fb080.o)
                              /Users/stevefar/nacl_sdk/pepper_45/lib/newlib_arm/Release/liberror_handling.a(error_handling_arm.o) (mmap)
/Users/stevefar/nacl_sdk/pepper_45/toolchain/mac_arm_newlib/bin/../lib/gcc/arm-nacl/4.9.2/../../../../arm-nacl/lib/libnacl.a(sched_yield_56c375be.o)
                              /Users/stevefar/nacl_sdk/pepper_45/toolchain/mac_arm_newlib/bin/../lib/gcc/arm-nacl/4.9.2/../../../../arm-nacl/lib/libnacl.a(malloc_222c4a1e.o) (sched_yield)
/Users/stevefar/nacl_sdk/pepper_45/toolchain/mac_arm_newlib/bin/../lib/gcc/arm-nacl/4.9.2/../../../../arm-nacl/lib/libnacl.a(start_fa9ef7de.o)
                              (_start)
/Users/stevefar/nacl_sdk/pepper_45/toolchain/mac_arm_newlib/bin/../lib/gcc/arm-nacl/4.9.2/../../../../arm-nacl/lib/libnacl.a(munmap_d4f09867.o)
                              /Users/stevefar/nacl_sdk/pepper_45/lib/newlib_arm/Release/liberror_handling.a(error_handling_arm.o) (munmap)
/Users/stevefar/nacl_sdk/pepper_45/toolchain/mac_arm_newlib/bin/../lib/gcc/arm-nacl/4.9.2/../../../../arm-nacl/lib/libnacl.a(tls_bba1975b.o)
                              /Users/stevefar/nacl_sdk/pepper_45/toolchain/mac_arm_newlib/bin/../lib/gcc/arm-nacl/4.9.2/../../../../arm-nacl/lib/libpthread.a(nc_thread_7e478b15.o) (__nacl_tls_combined_size)
/Users/stevefar/nacl_sdk/pepper_45/toolchain/mac_arm_newlib/bin/../lib/gcc/arm-nacl/4.9.2/../../../../arm-nacl/lib/libnacl.a(write_fb49787f.o)
                              /Users/stevefar/nacl_sdk/pepper_45/toolchain/mac_arm_newlib/bin/../lib/gcc/arm-nacl/4.9.2/../../../../arm-nacl/lib/libppapi_stub.a(ppapi_plugin_start_8da67623.o) (write)
/Users/stevefar/nacl_sdk/pepper_45/toolchain/mac_arm_newlib/bin/../lib/gcc/arm-nacl/4.9.2/../../../../arm-nacl/lib/libnacl.a(nacl_tls_get_d2f842b5.o)
                              /Users/stevefar/nacl_sdk/pepper_45/toolchain/mac_arm_newlib/bin/../lib/gcc/arm-nacl/4.9.2/../../../../arm-nacl/lib/libnacl.a(nacl_read_tp_5748ac47.o) (nacl_tls_get)
/Users/stevefar/nacl_sdk/pepper_45/toolchain/mac_arm_newlib/bin/../lib/gcc/arm-nacl/4.9.2/../../../../arm-nacl/lib/libnacl.a(nacl_irt_init_7b4f826e.o)
                              /Users/stevefar/nacl_sdk/pepper_45/toolchain/mac_arm_newlib/bin/../lib/gcc/arm-nacl/4.9.2/../../../../arm-nacl/lib/libnacl.a(start_fa9ef7de.o) (__libnacl_irt_init)
/Users/stevefar/nacl_sdk/pepper_45/toolchain/mac_arm_newlib/bin/../lib/gcc/arm-nacl/4.9.2/../../../../arm-nacl/lib/libnacl.a(sysconf_ad295ea2.o)
                              /Users/stevefar/nacl_sdk/pepper_45/toolchain/mac_arm_newlib/bin/../lib/gcc/arm-nacl/4.9.2/../../../../arm-nacl/lib/libnacl.a(malloc_222c4a1e.o) (sysconf)
/Users/stevefar/nacl_sdk/pepper_45/toolchain/mac_arm_newlib/bin/../lib/gcc/arm-nacl/4.9.2/../../../../arm-nacl/lib/libnacl.a(nacl_tls_init_eb0cd232.o)
                              /Users/stevefar/nacl_sdk/pepper_45/toolchain/mac_arm_newlib/bin/../lib/gcc/arm-nacl/4.9.2/../../../../arm-nacl/lib/libnacl.a(pthread_initialize_minimal_4b6e776b.o) (nacl_tls_init)
/Users/stevefar/nacl_sdk/pepper_45/toolchain/mac_arm_newlib/bin/../lib/gcc/arm-nacl/4.9.2/../../../../arm-nacl/lib/libcrt_common.a(lib_a-atexit.o)
                              /Users/stevefar/nacl_sdk/pepper_45/toolchain/mac_arm_newlib/bin/../lib/gcc/arm-nacl/4.9.2/../../../../arm-nacl/lib/libnacl.a(start_fa9ef7de.o) (atexit)
/Users/stevefar/nacl_sdk/pepper_45/toolchain/mac_arm_newlib/bin/../lib/gcc/arm-nacl/4.9.2/../../../../arm-nacl/lib/libcrt_common.a(lib_a-errno.o)
                              /Users/stevefar/nacl_sdk/pepper_45/toolchain/mac_arm_newlib/bin/../lib/gcc/arm-nacl/4.9.2/../../../../arm-nacl/lib/libnacl.a(malloc_222c4a1e.o) (__errno)
/Users/stevefar/nacl_sdk/pepper_45/toolchain/mac_arm_newlib/bin/../lib/gcc/arm-nacl/4.9.2/../../../../arm-nacl/lib/libcrt_common.a(lib_a-exit.o)
                              /Users/stevefar/nacl_sdk/pepper_45/toolchain/mac_arm_newlib/bin/../lib/gcc/arm-nacl/4.9.2/../../../../arm-nacl/lib/libpthread.a(nc_thread_7e478b15.o) (exit)
/Users/stevefar/nacl_sdk/pepper_45/toolchain/mac_arm_newlib/bin/../lib/gcc/arm-nacl/4.9.2/../../../../arm-nacl/lib/libcrt_common.a(lib_a-fflush.o)
                              newlib/Release/debugging_arm.o (fflush)
/Users/stevefar/nacl_sdk/pepper_45/toolchain/mac_arm_newlib/bin/../lib/gcc/arm-nacl/4.9.2/../../../../arm-nacl/lib/libcrt_common.a(lib_a-findfp.o)
                              /Users/stevefar/nacl_sdk/pepper_45/toolchain/mac_arm_newlib/bin/../lib/gcc/arm-nacl/4.9.2/../../../../arm-nacl/lib/libcrt_common.a(lib_a-fflush.o) (__sinit)
/Users/stevefar/nacl_sdk/pepper_45/toolchain/mac_arm_newlib/bin/../lib/gcc/arm-nacl/4.9.2/../../../../arm-nacl/lib/libcrt_common.a(lib_a-fini.o)
                              /Users/stevefar/nacl_sdk/pepper_45/toolchain/mac_arm_newlib/bin/../lib/gcc/arm-nacl/4.9.2/../../../../arm-nacl/lib/libnacl.a(start_fa9ef7de.o) (__libc_fini_array)
/Users/stevefar/nacl_sdk/pepper_45/toolchain/mac_arm_newlib/bin/../lib/gcc/arm-nacl/4.9.2/../../../../arm-nacl/lib/libcrt_common.a(lib_a-fprintf.o)
                              newlib/Release/debugging_arm.o (fprintf)
/Users/stevefar/nacl_sdk/pepper_45/toolchain/mac_arm_newlib/bin/../lib/gcc/arm-nacl/4.9.2/../../../../arm-nacl/lib/libcrt_common.a(lib_a-fwalk.o)
                              /Users/stevefar/nacl_sdk/pepper_45/toolchain/mac_arm_newlib/bin/../lib/gcc/arm-nacl/4.9.2/../../../../arm-nacl/lib/libcrt_common.a(lib_a-findfp.o) (_fwalk)
/Users/stevefar/nacl_sdk/pepper_45/toolchain/mac_arm_newlib/bin/../lib/gcc/arm-nacl/4.9.2/../../../../arm-nacl/lib/libcrt_common.a(lib_a-fwrite.o)
                              /Users/stevefar/nacl_sdk/pepper_45/lib/newlib_arm/Release/liberror_handling.a(error_handling_arm.o) (fwrite)
/Users/stevefar/nacl_sdk/pepper_45/toolchain/mac_arm_newlib/bin/../lib/gcc/arm-nacl/4.9.2/../../../../arm-nacl/lib/libcrt_common.a(lib_a-getenv.o)
                              /Users/stevefar/nacl_sdk/pepper_45/toolchain/mac_arm_newlib/bin/../lib/gcc/arm-nacl/4.9.2/../../../../arm-nacl/lib/libpthread.a(dynamic_annotations_33ba59cc.o) (getenv)
/Users/stevefar/nacl_sdk/pepper_45/toolchain/mac_arm_newlib/bin/../lib/gcc/arm-nacl/4.9.2/../../../../arm-nacl/lib/libcrt_common.a(lib_a-getenv_r.o)
                              /Users/stevefar/nacl_sdk/pepper_45/toolchain/mac_arm_newlib/bin/../lib/gcc/arm-nacl/4.9.2/../../../../arm-nacl/lib/libcrt_common.a(lib_a-getenv.o) (_findenv_r)
/Users/stevefar/nacl_sdk/pepper_45/toolchain/mac_arm_newlib/bin/../lib/gcc/arm-nacl/4.9.2/../../../../arm-nacl/lib/libcrt_common.a(lib_a-impure.o)
                              /Users/stevefar/nacl_sdk/pepper_45/toolchain/mac_arm_newlib/bin/../lib/gcc/arm-nacl/4.9.2/../../../../arm-nacl/lib/libpthread.a(nc_thread_7e478b15.o) (__newlib_thread_init)
/Users/stevefar/nacl_sdk/pepper_45/toolchain/mac_arm_newlib/bin/../lib/gcc/arm-nacl/4.9.2/../../../../arm-nacl/lib/libcrt_common.a(lib_a-init.o)
                              /Users/stevefar/nacl_sdk/pepper_45/toolchain/mac_arm_newlib/bin/../lib/gcc/arm-nacl/4.9.2/../../../../arm-nacl/lib/libnacl.a(start_fa9ef7de.o) (__libc_init_array)
/Users/stevefar/nacl_sdk/pepper_45/toolchain/mac_arm_newlib/bin/../lib/gcc/arm-nacl/4.9.2/../../../../arm-nacl/lib/libcrt_common.a(lib_a-memcpy.o)
                              newlib/Release/debugging_arm.o (memcpy)
/Users/stevefar/nacl_sdk/pepper_45/toolchain/mac_arm_newlib/bin/../lib/gcc/arm-nacl/4.9.2/../../../../arm-nacl/lib/libcrt_common.a(lib_a-memset.o)
                              /Users/stevefar/nacl_sdk/pepper_45/toolchain/mac_arm_newlib/bin/../lib/gcc/arm-nacl/4.9.2/../../../../arm-nacl/lib/libpthread.a(nc_thread_7e478b15.o) (memset)
/Users/stevefar/nacl_sdk/pepper_45/toolchain/mac_arm_newlib/bin/../lib/gcc/arm-nacl/4.9.2/../../../../arm-nacl/lib/libcrt_common.a(lib_a-sleep.o)
                              /Users/stevefar/nacl_sdk/pepper_45/lib/newlib_arm/Release/liberror_handling.a(error_handling_arm.o) (sleep)
/Users/stevefar/nacl_sdk/pepper_45/toolchain/mac_arm_newlib/bin/../lib/gcc/arm-nacl/4.9.2/../../../../arm-nacl/lib/libcrt_common.a(lib_a-stdio.o)
                              /Users/stevefar/nacl_sdk/pepper_45/toolchain/mac_arm_newlib/bin/../lib/gcc/arm-nacl/4.9.2/../../../../arm-nacl/lib/libcrt_common.a(lib_a-findfp.o) (__sread)
/Users/stevefar/nacl_sdk/pepper_45/toolchain/mac_arm_newlib/bin/../lib/gcc/arm-nacl/4.9.2/../../../../arm-nacl/lib/libcrt_common.a(lib_a-strcmp.o)
                              newlib/Release/debugging_arm.o (strcmp)
/Users/stevefar/nacl_sdk/pepper_45/toolchain/mac_arm_newlib/bin/../lib/gcc/arm-nacl/4.9.2/../../../../arm-nacl/lib/libcrt_common.a(lib_a-strlen-armv7.o)
                              newlib/Release/debugging_arm.o (strlen)
/Users/stevefar/nacl_sdk/pepper_45/toolchain/mac_arm_newlib/bin/../lib/gcc/arm-nacl/4.9.2/../../../../arm-nacl/lib/libcrt_common.a(lib_a-strncmp.o)
                              /Users/stevefar/nacl_sdk/pepper_45/toolchain/mac_arm_newlib/bin/../lib/gcc/arm-nacl/4.9.2/../../../../arm-nacl/lib/libcrt_common.a(lib_a-getenv_r.o) (strncmp)
/Users/stevefar/nacl_sdk/pepper_45/toolchain/mac_arm_newlib/bin/../lib/gcc/arm-nacl/4.9.2/../../../../arm-nacl/lib/libcrt_common.a(lib_a-vfprintf.o)
                              /Users/stevefar/nacl_sdk/pepper_45/toolchain/mac_arm_newlib/bin/../lib/gcc/arm-nacl/4.9.2/../../../../arm-nacl/lib/libcrt_common.a(lib_a-fprintf.o) (_vfprintf_r)
/Users/stevefar/nacl_sdk/pepper_45/toolchain/mac_arm_newlib/bin/../lib/gcc/arm-nacl/4.9.2/../../../../arm-nacl/lib/libcrt_common.a(lib_a-vsnprintf.o)
                              /Users/stevefar/nacl_sdk/pepper_45/lib/newlib_arm/Release/liberror_handling.a(string_stream_arm.o) (vsnprintf)
/Users/stevefar/nacl_sdk/pepper_45/toolchain/mac_arm_newlib/bin/../lib/gcc/arm-nacl/4.9.2/../../../../arm-nacl/lib/libcrt_common.a(lib_a-vsprintf.o)
                              /Users/stevefar/nacl_sdk/pepper_45/lib/newlib_arm/Release/liberror_handling.a(string_stream_arm.o) (vsprintf)
/Users/stevefar/nacl_sdk/pepper_45/toolchain/mac_arm_newlib/bin/../lib/gcc/arm-nacl/4.9.2/../../../../arm-nacl/lib/libcrt_common.a(lib_a-wcrtomb.o)
                              /Users/stevefar/nacl_sdk/pepper_45/toolchain/mac_arm_newlib/bin/../lib/gcc/arm-nacl/4.9.2/../../../../arm-nacl/lib/libcrt_common.a(lib_a-vfprintf.o) (_wcrtomb_r)
/Users/stevefar/nacl_sdk/pepper_45/toolchain/mac_arm_newlib/bin/../lib/gcc/arm-nacl/4.9.2/../../../../arm-nacl/lib/libcrt_common.a(lib_a-wcsrtombs.o)
                              /Users/stevefar/nacl_sdk/pepper_45/toolchain/mac_arm_newlib/bin/../lib/gcc/arm-nacl/4.9.2/../../../../arm-nacl/lib/libcrt_common.a(lib_a-vfprintf.o) (_wcsrtombs_r)
/Users/stevefar/nacl_sdk/pepper_45/toolchain/mac_arm_newlib/bin/../lib/gcc/arm-nacl/4.9.2/../../../../arm-nacl/lib/libcrt_common.a(lib_a-wctomb_r.o)
                              /Users/stevefar/nacl_sdk/pepper_45/toolchain/mac_arm_newlib/bin/../lib/gcc/arm-nacl/4.9.2/../../../../arm-nacl/lib/libcrt_common.a(lib_a-wcrtomb.o) (__wctomb)
/Users/stevefar/nacl_sdk/pepper_45/toolchain/mac_arm_newlib/bin/../lib/gcc/arm-nacl/4.9.2/../../../../arm-nacl/lib/libcrt_common.a(lib_a-wsetup.o)
                              /Users/stevefar/nacl_sdk/pepper_45/toolchain/mac_arm_newlib/bin/../lib/gcc/arm-nacl/4.9.2/../../../../arm-nacl/lib/libcrt_common.a(lib_a-vfprintf.o) (__swsetup_r)
/Users/stevefar/nacl_sdk/pepper_45/toolchain/mac_arm_newlib/bin/../lib/gcc/arm-nacl/4.9.2/../../../../arm-nacl/lib/libcrt_common.a(lib_a-__atexit.o)
                              /Users/stevefar/nacl_sdk/pepper_45/toolchain/mac_arm_newlib/bin/../lib/gcc/arm-nacl/4.9.2/../../../../arm-nacl/lib/libcrt_common.a(lib_a-atexit.o) (__register_exitproc)
/Users/stevefar/nacl_sdk/pepper_45/toolchain/mac_arm_newlib/bin/../lib/gcc/arm-nacl/4.9.2/../../../../arm-nacl/lib/libcrt_common.a(lib_a-__call_atexit.o)
                              /Users/stevefar/nacl_sdk/pepper_45/toolchain/mac_arm_newlib/bin/../lib/gcc/arm-nacl/4.9.2/../../../../arm-nacl/lib/libcrt_common.a(lib_a-exit.o) (__call_exitprocs)
/Users/stevefar/nacl_sdk/pepper_45/toolchain/mac_arm_newlib/bin/../lib/gcc/arm-nacl/4.9.2/../../../../arm-nacl/lib/libcrt_common.a(lib_a-dtoa.o)
                              /Users/stevefar/nacl_sdk/pepper_45/toolchain/mac_arm_newlib/bin/../lib/gcc/arm-nacl/4.9.2/../../../../arm-nacl/lib/libcrt_common.a(lib_a-vfprintf.o) (_dtoa_r)
/Users/stevefar/nacl_sdk/pepper_45/toolchain/mac_arm_newlib/bin/../lib/gcc/arm-nacl/4.9.2/../../../../arm-nacl/lib/libcrt_common.a(lib_a-envlock.o)
                              /Users/stevefar/nacl_sdk/pepper_45/toolchain/mac_arm_newlib/bin/../lib/gcc/arm-nacl/4.9.2/../../../../arm-nacl/lib/libcrt_common.a(lib_a-getenv_r.o) (__env_lock)
/Users/stevefar/nacl_sdk/pepper_45/toolchain/mac_arm_newlib/bin/../lib/gcc/arm-nacl/4.9.2/../../../../arm-nacl/lib/libcrt_common.a(lib_a-fclose.o)
                              /Users/stevefar/nacl_sdk/pepper_45/toolchain/mac_arm_newlib/bin/../lib/gcc/arm-nacl/4.9.2/../../../../arm-nacl/lib/libcrt_common.a(lib_a-findfp.o) (_fclose_r)
/Users/stevefar/nacl_sdk/pepper_45/toolchain/mac_arm_newlib/bin/../lib/gcc/arm-nacl/4.9.2/../../../../arm-nacl/lib/libcrt_common.a(lib_a-fvwrite.o)
                              /Users/stevefar/nacl_sdk/pepper_45/toolchain/mac_arm_newlib/bin/../lib/gcc/arm-nacl/4.9.2/../../../../arm-nacl/lib/libcrt_common.a(lib_a-fwrite.o) (__sfvwrite_r)
/Users/stevefar/nacl_sdk/pepper_45/toolchain/mac_arm_newlib/bin/../lib/gcc/arm-nacl/4.9.2/../../../../arm-nacl/lib/libcrt_common.a(lib_a-locale.o)
                              /Users/stevefar/nacl_sdk/pepper_45/toolchain/mac_arm_newlib/bin/../lib/gcc/arm-nacl/4.9.2/../../../../arm-nacl/lib/libcrt_common.a(lib_a-vfprintf.o) (__locale_charset)
/Users/stevefar/nacl_sdk/pepper_45/toolchain/mac_arm_newlib/bin/../lib/gcc/arm-nacl/4.9.2/../../../../arm-nacl/lib/libcrt_common.a(lib_a-makebuf.o)
                              /Users/stevefar/nacl_sdk/pepper_45/toolchain/mac_arm_newlib/bin/../lib/gcc/arm-nacl/4.9.2/../../../../arm-nacl/lib/libcrt_common.a(lib_a-wsetup.o) (__smakebuf_r)
/Users/stevefar/nacl_sdk/pepper_45/toolchain/mac_arm_newlib/bin/../lib/gcc/arm-nacl/4.9.2/../../../../arm-nacl/lib/libcrt_common.a(lib_a-mbtowc_r.o)
                              /Users/stevefar/nacl_sdk/pepper_45/toolchain/mac_arm_newlib/bin/../lib/gcc/arm-nacl/4.9.2/../../../../arm-nacl/lib/libcrt_common.a(lib_a-locale.o) (__ascii_mbtowc)
/Users/stevefar/nacl_sdk/pepper_45/toolchain/mac_arm_newlib/bin/../lib/gcc/arm-nacl/4.9.2/../../../../arm-nacl/lib/libcrt_common.a(lib_a-memchr.o)
                              /Users/stevefar/nacl_sdk/pepper_45/toolchain/mac_arm_newlib/bin/../lib/gcc/arm-nacl/4.9.2/../../../../arm-nacl/lib/libcrt_common.a(lib_a-vfprintf.o) (memchr)
/Users/stevefar/nacl_sdk/pepper_45/toolchain/mac_arm_newlib/bin/../lib/gcc/arm-nacl/4.9.2/../../../../arm-nacl/lib/libcrt_common.a(lib_a-memmove.o)
                              /Users/stevefar/nacl_sdk/pepper_45/toolchain/mac_arm_newlib/bin/../lib/gcc/arm-nacl/4.9.2/../../../../arm-nacl/lib/libcrt_common.a(lib_a-fvwrite.o) (memmove)
/Users/stevefar/nacl_sdk/pepper_45/toolchain/mac_arm_newlib/bin/../lib/gcc/arm-nacl/4.9.2/../../../../arm-nacl/lib/libcrt_common.a(lib_a-mprec.o)
                              /Users/stevefar/nacl_sdk/pepper_45/toolchain/mac_arm_newlib/bin/../lib/gcc/arm-nacl/4.9.2/../../../../arm-nacl/lib/libcrt_common.a(lib_a-dtoa.o) (_Balloc)
/Users/stevefar/nacl_sdk/pepper_45/toolchain/mac_arm_newlib/bin/../lib/gcc/arm-nacl/4.9.2/../../../../arm-nacl/lib/libcrt_common.a(lib_a-s_fpclassify.o)
                              /Users/stevefar/nacl_sdk/pepper_45/toolchain/mac_arm_newlib/bin/../lib/gcc/arm-nacl/4.9.2/../../../../arm-nacl/lib/libcrt_common.a(lib_a-vfprintf.o) (__fpclassifyd)
/Users/stevefar/nacl_sdk/pepper_45/toolchain/mac_arm_newlib/bin/../lib/gcc/arm-nacl/4.9.2/../../../../arm-nacl/lib/libcrt_common.a(lib_a-s_frexp.o)
                              /Users/stevefar/nacl_sdk/pepper_45/toolchain/mac_arm_newlib/bin/../lib/gcc/arm-nacl/4.9.2/../../../../arm-nacl/lib/libcrt_common.a(lib_a-vfprintf.o) (frexp)
/Users/stevefar/nacl_sdk/pepper_45/toolchain/mac_arm_newlib/bin/../lib/gcc/arm-nacl/4.9.2/../../../../arm-nacl/lib/libcrt_common.a(lib_a-strcasecmp.o)
                              /Users/stevefar/nacl_sdk/pepper_45/toolchain/mac_arm_newlib/bin/../lib/gcc/arm-nacl/4.9.2/../../../../arm-nacl/lib/libcrt_common.a(lib_a-locale.o) (strcasecmp)
/Users/stevefar/nacl_sdk/pepper_45/toolchain/mac_arm_newlib/bin/../lib/gcc/arm-nacl/4.9.2/../../../../arm-nacl/lib/libcrt_common.a(lib_a-strcat.o)
                              /Users/stevefar/nacl_sdk/pepper_45/toolchain/mac_arm_newlib/bin/../lib/gcc/arm-nacl/4.9.2/../../../../arm-nacl/lib/libcrt_common.a(lib_a-locale.o) (strcat)
/Users/stevefar/nacl_sdk/pepper_45/toolchain/mac_arm_newlib/bin/../lib/gcc/arm-nacl/4.9.2/../../../../arm-nacl/lib/libcrt_common.a(lib_a-strchr.o)
                              /Users/stevefar/nacl_sdk/pepper_45/toolchain/mac_arm_newlib/bin/../lib/gcc/arm-nacl/4.9.2/../../../../arm-nacl/lib/libcrt_common.a(lib_a-locale.o) (strchr)
/Users/stevefar/nacl_sdk/pepper_45/toolchain/mac_arm_newlib/bin/../lib/gcc/arm-nacl/4.9.2/../../../../arm-nacl/lib/libcrt_common.a(lib_a-strcpy.o)
                              /Users/stevefar/nacl_sdk/pepper_45/toolchain/mac_arm_newlib/bin/../lib/gcc/arm-nacl/4.9.2/../../../../arm-nacl/lib/libcrt_common.a(lib_a-locale.o) (strcpy)
/Users/stevefar/nacl_sdk/pepper_45/toolchain/mac_arm_newlib/bin/../lib/gcc/arm-nacl/4.9.2/../../../../arm-nacl/lib/libcrt_common.a(lib_a-strlcpy.o)
                              /Users/stevefar/nacl_sdk/pepper_45/toolchain/mac_arm_newlib/bin/../lib/gcc/arm-nacl/4.9.2/../../../../arm-nacl/lib/libcrt_common.a(lib_a-locale.o) (strlcpy)
/Users/stevefar/nacl_sdk/pepper_45/toolchain/mac_arm_newlib/bin/../lib/gcc/arm-nacl/4.9.2/../../../../arm-nacl/lib/libcrt_common.a(lib_a-strncasecmp.o)
                              /Users/stevefar/nacl_sdk/pepper_45/toolchain/mac_arm_newlib/bin/../lib/gcc/arm-nacl/4.9.2/../../../../arm-nacl/lib/libcrt_common.a(lib_a-locale.o) (strncasecmp)
/Users/stevefar/nacl_sdk/pepper_45/toolchain/mac_arm_newlib/bin/../lib/gcc/arm-nacl/4.9.2/../../../../arm-nacl/lib/libcrt_common.a(lib_a-strncpy.o)
                              /Users/stevefar/nacl_sdk/pepper_45/toolchain/mac_arm_newlib/bin/../lib/gcc/arm-nacl/4.9.2/../../../../arm-nacl/lib/libcrt_common.a(lib_a-vfprintf.o) (strncpy)
/Users/stevefar/nacl_sdk/pepper_45/toolchain/mac_arm_newlib/bin/../lib/gcc/arm-nacl/4.9.2/../../../../arm-nacl/lib/libcrt_common.a(lib_a-strtol.o)
                              /Users/stevefar/nacl_sdk/pepper_45/toolchain/mac_arm_newlib/bin/../lib/gcc/arm-nacl/4.9.2/../../../../arm-nacl/lib/libcrt_common.a(lib_a-locale.o) (_strtol_r)
/Users/stevefar/nacl_sdk/pepper_45/toolchain/mac_arm_newlib/bin/../lib/gcc/arm-nacl/4.9.2/../../../../arm-nacl/lib/libcrt_common.a(lib_a-svfprintf.o)
                              /Users/stevefar/nacl_sdk/pepper_45/toolchain/mac_arm_newlib/bin/../lib/gcc/arm-nacl/4.9.2/../../../../arm-nacl/lib/libcrt_common.a(lib_a-vsnprintf.o) (_svfprintf_r)
/Users/stevefar/nacl_sdk/pepper_45/toolchain/mac_arm_newlib/bin/../lib/gcc/arm-nacl/4.9.2/../../../../arm-nacl/lib/libcrt_common.a(lib_a-vfiprintf.o)
                              /Users/stevefar/nacl_sdk/pepper_45/toolchain/mac_arm_newlib/bin/../lib/gcc/arm-nacl/4.9.2/../../../../arm-nacl/lib/libcrt_common.a(lib_a-vfprintf.o) (__sprint_r)
/Users/stevefar/nacl_sdk/pepper_45/toolchain/mac_arm_newlib/bin/../lib/gcc/arm-nacl/4.9.2/../../../../arm-nacl/lib/libcrt_common.a(lib_a-wcsnrtombs.o)
                              /Users/stevefar/nacl_sdk/pepper_45/toolchain/mac_arm_newlib/bin/../lib/gcc/arm-nacl/4.9.2/../../../../arm-nacl/lib/libcrt_common.a(lib_a-wcsrtombs.o) (_wcsnrtombs_r)
/Users/stevefar/nacl_sdk/pepper_45/toolchain/mac_arm_newlib/bin/../lib/gcc/arm-nacl/4.9.2/../../../../arm-nacl/lib/libcrt_common.a(lib_a-ctype_.o)
                              /Users/stevefar/nacl_sdk/pepper_45/toolchain/mac_arm_newlib/bin/../lib/gcc/arm-nacl/4.9.2/../../../../arm-nacl/lib/libcrt_common.a(lib_a-locale.o) (__set_ctype)
/Users/stevefar/nacl_sdk/pepper_45/toolchain/mac_arm_newlib/bin/../lib/gcc/arm-nacl/4.9.2/../../../../arm-nacl/lib/libcrt_common.a(lib_a-fputwc.o)
                              /Users/stevefar/nacl_sdk/pepper_45/toolchain/mac_arm_newlib/bin/../lib/gcc/arm-nacl/4.9.2/../../../../arm-nacl/lib/libcrt_common.a(lib_a-vfiprintf.o) (_fputwc_r)
/Users/stevefar/nacl_sdk/pepper_45/toolchain/mac_arm_newlib/bin/../lib/gcc/arm-nacl/4.9.2/../../../../arm-nacl/lib/libcrt_common.a(lib_a-svfiprintf.o)
                              /Users/stevefar/nacl_sdk/pepper_45/toolchain/mac_arm_newlib/bin/../lib/gcc/arm-nacl/4.9.2/../../../../arm-nacl/lib/libcrt_common.a(lib_a-svfprintf.o) (__ssprint_r)
/Users/stevefar/nacl_sdk/pepper_45/toolchain/mac_arm_newlib/bin/../lib/gcc/arm-nacl/4.9.2/../../../../arm-nacl/lib/libcrt_common.a(lib_a-wbuf.o)
                              /Users/stevefar/nacl_sdk/pepper_45/toolchain/mac_arm_newlib/bin/../lib/gcc/arm-nacl/4.9.2/../../../../arm-nacl/lib/libcrt_common.a(lib_a-fputwc.o) (__swbuf_r)
/Users/stevefar/nacl_sdk/pepper_45/toolchain/mac_arm_newlib/bin/../lib/gcc/arm-nacl/4.9.2/../../../../arm-nacl/lib/libnacl.a(close_e9b92fbd.o)
                              /Users/stevefar/nacl_sdk/pepper_45/toolchain/mac_arm_newlib/bin/../lib/gcc/arm-nacl/4.9.2/../../../../arm-nacl/lib/libcrt_common.a(lib_a-stdio.o) (close)
/Users/stevefar/nacl_sdk/pepper_45/toolchain/mac_arm_newlib/bin/../lib/gcc/arm-nacl/4.9.2/../../../../arm-nacl/lib/libnacl.a(isatty_02f56e94.o)
                              /Users/stevefar/nacl_sdk/pepper_45/toolchain/mac_arm_newlib/bin/../lib/gcc/arm-nacl/4.9.2/../../../../arm-nacl/lib/libcrt_common.a(lib_a-makebuf.o) (isatty)
/Users/stevefar/nacl_sdk/pepper_45/toolchain/mac_arm_newlib/bin/../lib/gcc/arm-nacl/4.9.2/../../../../arm-nacl/lib/libnacl.a(nacl_irt_fdio_b571b5e7.o)
                              /Users/stevefar/nacl_sdk/pepper_45/toolchain/mac_arm_newlib/bin/../lib/gcc/arm-nacl/4.9.2/../../../../arm-nacl/lib/libnacl.a(isatty_02f56e94.o) (__libnacl_irt_dev_fdio_init)
/Users/stevefar/nacl_sdk/pepper_45/toolchain/mac_arm_newlib/bin/../lib/gcc/arm-nacl/4.9.2/../../../../arm-nacl/lib/libnacl.a(fstat_0540ff63.o)
                              /Users/stevefar/nacl_sdk/pepper_45/toolchain/mac_arm_newlib/bin/../lib/gcc/arm-nacl/4.9.2/../../../../arm-nacl/lib/libcrt_common.a(lib_a-makebuf.o) (fstat)
/Users/stevefar/nacl_sdk/pepper_45/toolchain/mac_arm_newlib/bin/../lib/gcc/arm-nacl/4.9.2/../../../../arm-nacl/lib/libnacl.a(lseek_64d2d05c.o)
                              /Users/stevefar/nacl_sdk/pepper_45/toolchain/mac_arm_newlib/bin/../lib/gcc/arm-nacl/4.9.2/../../../../arm-nacl/lib/libcrt_common.a(lib_a-stdio.o) (lseek)
/Users/stevefar/nacl_sdk/pepper_45/toolchain/mac_arm_newlib/bin/../lib/gcc/arm-nacl/4.9.2/../../../../arm-nacl/lib/libnacl.a(read_df872e10.o)
                              /Users/stevefar/nacl_sdk/pepper_45/toolchain/mac_arm_newlib/bin/../lib/gcc/arm-nacl/4.9.2/../../../../arm-nacl/lib/libcrt_common.a(lib_a-stdio.o) (read)
/Users/stevefar/nacl_sdk/pepper_45/toolchain/mac_arm_newlib/bin/../lib/gcc/arm-nacl/4.9.2/../../../../arm-nacl/lib/libnacl.a(nanosleep_e59fdef1.o)
                              /Users/stevefar/nacl_sdk/pepper_45/toolchain/mac_arm_newlib/bin/../lib/gcc/arm-nacl/4.9.2/../../../../arm-nacl/lib/libcrt_common.a(lib_a-sleep.o) (nanosleep)
/Users/stevefar/nacl_sdk/pepper_45/toolchain/mac_arm_newlib/bin/../lib/gcc/arm-nacl/4.9.2/libgcc.a(_udivsi3.o)
                              /Users/stevefar/nacl_sdk/pepper_45/toolchain/mac_arm_newlib/bin/../lib/gcc/arm-nacl/4.9.2/../../../../arm-nacl/lib/libnacl.a(malloc_222c4a1e.o) (__aeabi_uidiv)
/Users/stevefar/nacl_sdk/pepper_45/toolchain/mac_arm_newlib/bin/../lib/gcc/arm-nacl/4.9.2/libgcc.a(_divsi3.o)
                              /Users/stevefar/nacl_sdk/pepper_45/toolchain/mac_arm_newlib/bin/../lib/gcc/arm-nacl/4.9.2/../../../../arm-nacl/lib/libcrt_common.a(lib_a-fvwrite.o) (__aeabi_idiv)
/Users/stevefar/nacl_sdk/pepper_45/toolchain/mac_arm_newlib/bin/../lib/gcc/arm-nacl/4.9.2/libgcc.a(_aeabi_uldivmod.o)
                              /Users/stevefar/nacl_sdk/pepper_45/toolchain/mac_arm_newlib/bin/../lib/gcc/arm-nacl/4.9.2/../../../../arm-nacl/lib/libcrt_common.a(lib_a-vfprintf.o) (__aeabi_uldivmod)
/Users/stevefar/nacl_sdk/pepper_45/toolchain/mac_arm_newlib/bin/../lib/gcc/arm-nacl/4.9.2/libgcc.a(_dvmd_nacl.o)
                              /Users/stevefar/nacl_sdk/pepper_45/toolchain/mac_arm_newlib/bin/../lib/gcc/arm-nacl/4.9.2/libgcc.a(_udivsi3.o) (__aeabi_idiv0)
/Users/stevefar/nacl_sdk/pepper_45/toolchain/mac_arm_newlib/bin/../lib/gcc/arm-nacl/4.9.2/libgcc.a(bpabi.o)
                              /Users/stevefar/nacl_sdk/pepper_45/toolchain/mac_arm_newlib/bin/../lib/gcc/arm-nacl/4.9.2/libgcc.a(_aeabi_uldivmod.o) (__gnu_uldivmod_helper)
/Users/stevefar/nacl_sdk/pepper_45/toolchain/mac_arm_newlib/bin/../lib/gcc/arm-nacl/4.9.2/libgcc.a(_divdi3.o)
                              /Users/stevefar/nacl_sdk/pepper_45/toolchain/mac_arm_newlib/bin/../lib/gcc/arm-nacl/4.9.2/libgcc.a(bpabi.o) (__divdi3)
/Users/stevefar/nacl_sdk/pepper_45/toolchain/mac_arm_newlib/bin/../lib/gcc/arm-nacl/4.9.2/libgcc.a(_udivdi3.o)
                              /Users/stevefar/nacl_sdk/pepper_45/toolchain/mac_arm_newlib/bin/../lib/gcc/arm-nacl/4.9.2/libgcc.a(bpabi.o) (__udivdi3)

Allocating common symbols
Common symbol       size              file

__nacl_irt_query    0x4               /Users/stevefar/nacl_sdk/pepper_45/toolchain/mac_arm_newlib/bin/../lib/gcc/arm-nacl/4.9.2/../../../../arm-nacl/lib/libnacl.a(nacl_irt_6de1d53f.o)
__libnacl_irt_dev_filename
                    0x40              /Users/stevefar/nacl_sdk/pepper_45/toolchain/mac_arm_newlib/bin/../lib/gcc/arm-nacl/4.9.2/../../../../arm-nacl/lib/libnacl.a(nacl_irt_6de1d53f.o)
__nc_thread_initialized
                    0x4               /Users/stevefar/nacl_sdk/pepper_45/toolchain/mac_arm_newlib/bin/../lib/gcc/arm-nacl/4.9.2/../../../../arm-nacl/lib/libpthread.a(nc_thread_7e478b15.o)
g_PPAPIThread       0x4               newlib/Release/debugging_arm.o
__libnacl_irt_clock
                    0x8               /Users/stevefar/nacl_sdk/pepper_45/toolchain/mac_arm_newlib/bin/../lib/gcc/arm-nacl/4.9.2/../../../../arm-nacl/lib/libnacl.a(nacl_irt_6de1d53f.o)
__nc_thread_management_lock
                    0x14              /Users/stevefar/nacl_sdk/pepper_45/toolchain/mac_arm_newlib/bin/../lib/gcc/arm-nacl/4.9.2/../../../../arm-nacl/lib/libpthread.a(nc_thread_7e478b15.o)
__libnacl_irt_futex
                    0x8               /Users/stevefar/nacl_sdk/pepper_45/toolchain/mac_arm_newlib/bin/../lib/gcc/arm-nacl/4.9.2/../../../../arm-nacl/lib/libpthread.a(nc_init_irt_d3daafc0.o)
g_Instance          0x4               newlib/Release/debugging_arm.o
__nc_memory_block_counter
                    0x8               /Users/stevefar/nacl_sdk/pepper_45/toolchain/mac_arm_newlib/bin/../lib/gcc/arm-nacl/4.9.2/../../../../arm-nacl/lib/libpthread.a(nc_thread_7e478b15.o)
__nacl_initial_thread_stack_end
                    0x4               /Users/stevefar/nacl_sdk/pepper_45/toolchain/mac_arm_newlib/bin/../lib/gcc/arm-nacl/4.9.2/../../../../arm-nacl/lib/libnacl.a(start_fa9ef7de.o)
__libnacl_irt_memory
                    0xc               /Users/stevefar/nacl_sdk/pepper_45/toolchain/mac_arm_newlib/bin/../lib/gcc/arm-nacl/4.9.2/../../../../arm-nacl/lib/libnacl.a(nacl_irt_6de1d53f.o)
__nc_initial_thread_id
                    0x4               /Users/stevefar/nacl_sdk/pepper_45/toolchain/mac_arm_newlib/bin/../lib/gcc/arm-nacl/4.9.2/../../../../arm-nacl/lib/libpthread.a(nc_thread_7e478b15.o)
__libnacl_irt_dev_fdio
                    0x38              /Users/stevefar/nacl_sdk/pepper_45/toolchain/mac_arm_newlib/bin/../lib/gcc/arm-nacl/4.9.2/../../../../arm-nacl/lib/libnacl.a(nacl_irt_6de1d53f.o)
g_NexeThread        0x4               newlib/Release/debugging_arm.o
__libnacl_irt_basic
                    0x18              /Users/stevefar/nacl_sdk/pepper_45/toolchain/mac_arm_newlib/bin/../lib/gcc/arm-nacl/4.9.2/../../../../arm-nacl/lib/libnacl.a(nacl_irt_6de1d53f.o)
__nc_thread_memory_blocks
                    0x10              /Users/stevefar/nacl_sdk/pepper_45/toolchain/mac_arm_newlib/bin/../lib/gcc/arm-nacl/4.9.2/../../../../arm-nacl/lib/libpthread.a(nc_thread_7e478b15.o)
__libnacl_irt_thread
                    0xc               /Users/stevefar/nacl_sdk/pepper_45/toolchain/mac_arm_newlib/bin/../lib/gcc/arm-nacl/4.9.2/../../../../arm-nacl/lib/libpthread.a(nc_thread_7e478b15.o)
__libnacl_irt_tls   0x8               /Users/stevefar/nacl_sdk/pepper_45/toolchain/mac_arm_newlib/bin/../lib/gcc/arm-nacl/4.9.2/../../../../arm-nacl/lib/libnacl.a(nacl_irt_6de1d53f.o)
__libnacl_irt_dev_getpid
                    0x4               /Users/stevefar/nacl_sdk/pepper_45/toolchain/mac_arm_newlib/bin/../lib/gcc/arm-nacl/4.9.2/../../../../arm-nacl/lib/libnacl.a(nacl_irt_6de1d53f.o)

Discarded input sections

 .group         0x0000000000000000        0x8 /Users/stevefar/nacl_sdk/pepper_45/toolchain/mac_arm_newlib/bin/../lib/gcc/arm-nacl/4.9.2/../../../../arm-nacl/lib/crti.o
 .group         0x0000000000000000        0x8 /Users/stevefar/nacl_sdk/pepper_45/toolchain/mac_arm_newlib/bin/../lib/gcc/arm-nacl/4.9.2/crtbegin.o
 .note.NaCl.ABI.arm
                0x0000000000000000       0x18 /Users/stevefar/nacl_sdk/pepper_45/toolchain/mac_arm_newlib/bin/../lib/gcc/arm-nacl/4.9.2/crtbegin.o
 .note.GNU-stack
                0x0000000000000000        0x0 /Users/stevefar/nacl_sdk/pepper_45/toolchain/mac_arm_newlib/bin/../lib/gcc/arm-nacl/4.9.2/crtbegin.o
 .group         0x0000000000000000        0x8 newlib/Release/debugging_arm.o
 .note.NaCl.ABI.arm
                0x0000000000000000       0x18 newlib/Release/debugging_arm.o
 .note.GNU-stack
                0x0000000000000000        0x0 newlib/Release/debugging_arm.o
 .group         0x0000000000000000        0x8 /Users/stevefar/nacl_sdk/pepper_45/lib/newlib_arm/Release/liberror_handling.a(error_handling_arm.o)
 .note.NaCl.ABI.arm
                0x0000000000000000       0x18 /Users/stevefar/nacl_sdk/pepper_45/lib/newlib_arm/Release/liberror_handling.a(error_handling_arm.o)
 .note.GNU-stack
                0x0000000000000000        0x0 /Users/stevefar/nacl_sdk/pepper_45/lib/newlib_arm/Release/liberror_handling.a(error_handling_arm.o)
 .group         0x0000000000000000        0x8 /Users/stevefar/nacl_sdk/pepper_45/lib/newlib_arm/Release/liberror_handling.a(string_stream_arm.o)
 .note.NaCl.ABI.arm
                0x0000000000000000       0x18 /Users/stevefar/nacl_sdk/pepper_45/lib/newlib_arm/Release/liberror_handling.a(string_stream_arm.o)
 .note.GNU-stack
                0x0000000000000000        0x0 /Users/stevefar/nacl_sdk/pepper_45/lib/newlib_arm/Release/liberror_handling.a(string_stream_arm.o)
 .group         0x0000000000000000        0x8 /Users/stevefar/nacl_sdk/pepper_45/toolchain/mac_arm_newlib/bin/../lib/gcc/arm-nacl/4.9.2/../../../../arm-nacl/lib/libppapi_stub.a(plugin_main_irt_21ce9d26.o)
 .note.NaCl.ABI.arm
                0x0000000000000000       0x18 /Users/stevefar/nacl_sdk/pepper_45/toolchain/mac_arm_newlib/bin/../lib/gcc/arm-nacl/4.9.2/../../../../arm-nacl/lib/libppapi_stub.a(plugin_main_irt_21ce9d26.o)
 .note.GNU-stack
                0x0000000000000000        0x0 /Users/stevefar/nacl_sdk/pepper_45/toolchain/mac_arm_newlib/bin/../lib/gcc/arm-nacl/4.9.2/../../../../arm-nacl/lib/libppapi_stub.a(plugin_main_irt_21ce9d26.o)
 .group         0x0000000000000000        0x8 /Users/stevefar/nacl_sdk/pepper_45/toolchain/mac_arm_newlib/bin/../lib/gcc/arm-nacl/4.9.2/../../../../arm-nacl/lib/libppapi_stub.a(ppapi_plugin_main_399d0cf7.o)
 .note.NaCl.ABI.arm
                0x0000000000000000       0x18 /Users/stevefar/nacl_sdk/pepper_45/toolchain/mac_arm_newlib/bin/../lib/gcc/arm-nacl/4.9.2/../../../../arm-nacl/lib/libppapi_stub.a(ppapi_plugin_main_399d0cf7.o)
 .note.GNU-stack
                0x0000000000000000        0x0 /Users/stevefar/nacl_sdk/pepper_45/toolchain/mac_arm_newlib/bin/../lib/gcc/arm-nacl/4.9.2/../../../../arm-nacl/lib/libppapi_stub.a(ppapi_plugin_main_399d0cf7.o)
 .group         0x0000000000000000        0x8 /Users/stevefar/nacl_sdk/pepper_45/toolchain/mac_arm_newlib/bin/../lib/gcc/arm-nacl/4.9.2/../../../../arm-nacl/lib/libppapi_stub.a(ppapi_plugin_start_8da67623.o)
 .note.NaCl.ABI.arm
                0x0000000000000000       0x18 /Users/stevefar/nacl_sdk/pepper_45/toolchain/mac_arm_newlib/bin/../lib/gcc/arm-nacl/4.9.2/../../../../arm-nacl/lib/libppapi_stub.a(ppapi_plugin_start_8da67623.o)
 .note.GNU-stack
                0x0000000000000000        0x0 /Users/stevefar/nacl_sdk/pepper_45/toolchain/mac_arm_newlib/bin/../lib/gcc/arm-nacl/4.9.2/../../../../arm-nacl/lib/libppapi_stub.a(ppapi_plugin_start_8da67623.o)
 .group         0x0000000000000000        0x8 /Users/stevefar/nacl_sdk/pepper_45/toolchain/mac_arm_newlib/bin/../lib/gcc/arm-nacl/4.9.2/../../../../arm-nacl/lib/libppapi_stub.a(thread_creator_ccf263e1.o)
 .note.NaCl.ABI.arm
                0x0000000000000000       0x18 /Users/stevefar/nacl_sdk/pepper_45/toolchain/mac_arm_newlib/bin/../lib/gcc/arm-nacl/4.9.2/../../../../arm-nacl/lib/libppapi_stub.a(thread_creator_ccf263e1.o)
 .note.GNU-stack
                0x0000000000000000        0x0 /Users/stevefar/nacl_sdk/pepper_45/toolchain/mac_arm_newlib/bin/../lib/gcc/arm-nacl/4.9.2/../../../../arm-nacl/lib/libppapi_stub.a(thread_creator_ccf263e1.o)
 .group         0x0000000000000000        0x8 /Users/stevefar/nacl_sdk/pepper_45/toolchain/mac_arm_newlib/bin/../lib/gcc/arm-nacl/4.9.2/../../../../arm-nacl/lib/libpthread.a(nc_thread_7e478b15.o)
 .note.NaCl.ABI.arm
                0x0000000000000000       0x18 /Users/stevefar/nacl_sdk/pepper_45/toolchain/mac_arm_newlib/bin/../lib/gcc/arm-nacl/4.9.2/../../../../arm-nacl/lib/libpthread.a(nc_thread_7e478b15.o)
 .note.GNU-stack
                0x0000000000000000        0x0 /Users/stevefar/nacl_sdk/pepper_45/toolchain/mac_arm_newlib/bin/../lib/gcc/arm-nacl/4.9.2/../../../../arm-nacl/lib/libpthread.a(nc_thread_7e478b15.o)
 .group         0x0000000000000000        0x8 /Users/stevefar/nacl_sdk/pepper_45/toolchain/mac_arm_newlib/bin/../lib/gcc/arm-nacl/4.9.2/../../../../arm-nacl/lib/libpthread.a(nc_condvar_305aa45a.o)
 .note.NaCl.ABI.arm
                0x0000000000000000       0x18 /Users/stevefar/nacl_sdk/pepper_45/toolchain/mac_arm_newlib/bin/../lib/gcc/arm-nacl/4.9.2/../../../../arm-nacl/lib/libpthread.a(nc_condvar_305aa45a.o)
 .note.GNU-stack
                0x0000000000000000        0x0 /Users/stevefar/nacl_sdk/pepper_45/toolchain/mac_arm_newlib/bin/../lib/gcc/arm-nacl/4.9.2/../../../../arm-nacl/lib/libpthread.a(nc_condvar_305aa45a.o)
 .group         0x0000000000000000        0x8 /Users/stevefar/nacl_sdk/pepper_45/toolchain/mac_arm_newlib/bin/../lib/gcc/arm-nacl/4.9.2/../../../../arm-nacl/lib/libpthread.a(dynamic_annotations_33ba59cc.o)
 .note.NaCl.ABI.arm
                0x0000000000000000       0x18 /Users/stevefar/nacl_sdk/pepper_45/toolchain/mac_arm_newlib/bin/../lib/gcc/arm-nacl/4.9.2/../../../../arm-nacl/lib/libpthread.a(dynamic_annotations_33ba59cc.o)
 .note.GNU-stack
                0x0000000000000000        0x0 /Users/stevefar/nacl_sdk/pepper_45/toolchain/mac_arm_newlib/bin/../lib/gcc/arm-nacl/4.9.2/../../../../arm-nacl/lib/libpthread.a(dynamic_annotations_33ba59cc.o)
 .group         0x0000000000000000        0x8 /Users/stevefar/nacl_sdk/pepper_45/toolchain/mac_arm_newlib/bin/../lib/gcc/arm-nacl/4.9.2/../../../../arm-nacl/lib/libpthread.a(nc_mutex_86341ae1.o)
 .note.NaCl.ABI.arm
                0x0000000000000000       0x18 /Users/stevefar/nacl_sdk/pepper_45/toolchain/mac_arm_newlib/bin/../lib/gcc/arm-nacl/4.9.2/../../../../arm-nacl/lib/libpthread.a(nc_mutex_86341ae1.o)
 .note.GNU-stack
                0x0000000000000000        0x0 /Users/stevefar/nacl_sdk/pepper_45/toolchain/mac_arm_newlib/bin/../lib/gcc/arm-nacl/4.9.2/../../../../arm-nacl/lib/libpthread.a(nc_mutex_86341ae1.o)
 .group         0x0000000000000000        0x8 /Users/stevefar/nacl_sdk/pepper_45/toolchain/mac_arm_newlib/bin/../lib/gcc/arm-nacl/4.9.2/../../../../arm-nacl/lib/libpthread.a(nc_init_irt_d3daafc0.o)
 .note.NaCl.ABI.arm
                0x0000000000000000       0x18 /Users/stevefar/nacl_sdk/pepper_45/toolchain/mac_arm_newlib/bin/../lib/gcc/arm-nacl/4.9.2/../../../../arm-nacl/lib/libpthread.a(nc_init_irt_d3daafc0.o)
 .note.GNU-stack
                0x0000000000000000        0x0 /Users/stevefar/nacl_sdk/pepper_45/toolchain/mac_arm_newlib/bin/../lib/gcc/arm-nacl/4.9.2/../../../../arm-nacl/lib/libpthread.a(nc_init_irt_d3daafc0.o)
 .group         0x0000000000000000        0x8 /Users/stevefar/nacl_sdk/pepper_45/toolchain/mac_arm_newlib/bin/../lib/gcc/arm-nacl/4.9.2/libgcc.a(unwind-arm.o)
 .note.NaCl.ABI.arm
                0x0000000000000000       0x18 /Users/stevefar/nacl_sdk/pepper_45/toolchain/mac_arm_newlib/bin/../lib/gcc/arm-nacl/4.9.2/libgcc.a(unwind-arm.o)
 .note.GNU-stack
                0x0000000000000000        0x0 /Users/stevefar/nacl_sdk/pepper_45/toolchain/mac_arm_newlib/bin/../lib/gcc/arm-nacl/4.9.2/libgcc.a(unwind-arm.o)
 .group         0x0000000000000000        0x8 /Users/stevefar/nacl_sdk/pepper_45/toolchain/mac_arm_newlib/bin/../lib/gcc/arm-nacl/4.9.2/libgcc.a(libunwind.o)
 .note.NaCl.ABI.arm
                0x0000000000000000       0x18 /Users/stevefar/nacl_sdk/pepper_45/toolchain/mac_arm_newlib/bin/../lib/gcc/arm-nacl/4.9.2/libgcc.a(libunwind.o)
 .note.GNU-stack
                0x0000000000000000        0x0 /Users/stevefar/nacl_sdk/pepper_45/toolchain/mac_arm_newlib/bin/../lib/gcc/arm-nacl/4.9.2/libgcc.a(libunwind.o)
 .group         0x0000000000000000        0x8 /Users/stevefar/nacl_sdk/pepper_45/toolchain/mac_arm_newlib/bin/../lib/gcc/arm-nacl/4.9.2/libgcc.a(pr-support.o)
 .note.NaCl.ABI.arm
                0x0000000000000000       0x18 /Users/stevefar/nacl_sdk/pepper_45/toolchain/mac_arm_newlib/bin/../lib/gcc/arm-nacl/4.9.2/libgcc.a(pr-support.o)
 .note.GNU-stack
                0x0000000000000000        0x0 /Users/stevefar/nacl_sdk/pepper_45/toolchain/mac_arm_newlib/bin/../lib/gcc/arm-nacl/4.9.2/libgcc.a(pr-support.o)
 .group         0x0000000000000000        0x8 /Users/stevefar/nacl_sdk/pepper_45/toolchain/mac_arm_newlib/bin/../lib/gcc/arm-nacl/4.9.2/../../../../arm-nacl/lib/libnacl.a(_exit_710c7d0d.o)
 .note.NaCl.ABI.arm
                0x0000000000000000       0x18 /Users/stevefar/nacl_sdk/pepper_45/toolchain/mac_arm_newlib/bin/../lib/gcc/arm-nacl/4.9.2/../../../../arm-nacl/lib/libnacl.a(_exit_710c7d0d.o)
 .note.GNU-stack
                0x0000000000000000        0x0 /Users/stevefar/nacl_sdk/pepper_45/toolchain/mac_arm_newlib/bin/../lib/gcc/arm-nacl/4.9.2/../../../../arm-nacl/lib/libnacl.a(_exit_710c7d0d.o)
 .group         0x0000000000000000        0x8 /Users/stevefar/nacl_sdk/pepper_45/toolchain/mac_arm_newlib/bin/../lib/gcc/arm-nacl/4.9.2/../../../../arm-nacl/lib/libnacl.a(abort_9f6b5845.o)
 .note.NaCl.ABI.arm
                0x0000000000000000       0x18 /Users/stevefar/nacl_sdk/pepper_45/toolchain/mac_arm_newlib/bin/../lib/gcc/arm-nacl/4.9.2/../../../../arm-nacl/lib/libnacl.a(abort_9f6b5845.o)
 .note.GNU-stack
                0x0000000000000000        0x0 /Users/stevefar/nacl_sdk/pepper_45/toolchain/mac_arm_newlib/bin/../lib/gcc/arm-nacl/4.9.2/../../../../arm-nacl/lib/libnacl.a(abort_9f6b5845.o)
 .group         0x0000000000000000        0x8 /Users/stevefar/nacl_sdk/pepper_45/toolchain/mac_arm_newlib/bin/../lib/gcc/arm-nacl/4.9.2/../../../../arm-nacl/lib/libnacl.a(environ_25cd24d8.o)
 .note.NaCl.ABI.arm
                0x0000000000000000       0x18 /Users/stevefar/nacl_sdk/pepper_45/toolchain/mac_arm_newlib/bin/../lib/gcc/arm-nacl/4.9.2/../../../../arm-nacl/lib/libnacl.a(environ_25cd24d8.o)
 .note.GNU-stack
                0x0000000000000000        0x0 /Users/stevefar/nacl_sdk/pepper_45/toolchain/mac_arm_newlib/bin/../lib/gcc/arm-nacl/4.9.2/../../../../arm-nacl/lib/libnacl.a(environ_25cd24d8.o)
 .group         0x0000000000000000        0x8 /Users/stevefar/nacl_sdk/pepper_45/toolchain/mac_arm_newlib/bin/../lib/gcc/arm-nacl/4.9.2/../../../../arm-nacl/lib/libnacl.a(malloc_222c4a1e.o)
 .note.NaCl.ABI.arm
                0x0000000000000000       0x18 /Users/stevefar/nacl_sdk/pepper_45/toolchain/mac_arm_newlib/bin/../lib/gcc/arm-nacl/4.9.2/../../../../arm-nacl/lib/libnacl.a(malloc_222c4a1e.o)
 .note.GNU-stack
                0x0000000000000000        0x0 /Users/stevefar/nacl_sdk/pepper_45/toolchain/mac_arm_newlib/bin/../lib/gcc/arm-nacl/4.9.2/../../../../arm-nacl/lib/libnacl.a(malloc_222c4a1e.o)
 .group         0x0000000000000000        0x8 /Users/stevefar/nacl_sdk/pepper_45/toolchain/mac_arm_newlib/bin/../lib/gcc/arm-nacl/4.9.2/../../../../arm-nacl/lib/libnacl.a(nacl_irt_6de1d53f.o)
 .note.NaCl.ABI.arm
                0x0000000000000000       0x18 /Users/stevefar/nacl_sdk/pepper_45/toolchain/mac_arm_newlib/bin/../lib/gcc/arm-nacl/4.9.2/../../../../arm-nacl/lib/libnacl.a(nacl_irt_6de1d53f.o)
 .note.GNU-stack
                0x0000000000000000        0x0 /Users/stevefar/nacl_sdk/pepper_45/toolchain/mac_arm_newlib/bin/../lib/gcc/arm-nacl/4.9.2/../../../../arm-nacl/lib/libnacl.a(nacl_irt_6de1d53f.o)
 .group         0x0000000000000000        0x8 /Users/stevefar/nacl_sdk/pepper_45/toolchain/mac_arm_newlib/bin/../lib/gcc/arm-nacl/4.9.2/../../../../arm-nacl/lib/libnacl.a(pthread_initialize_minimal_4b6e776b.o)
 .note.NaCl.ABI.arm
                0x0000000000000000       0x18 /Users/stevefar/nacl_sdk/pepper_45/toolchain/mac_arm_newlib/bin/../lib/gcc/arm-nacl/4.9.2/../../../../arm-nacl/lib/libnacl.a(pthread_initialize_minimal_4b6e776b.o)
 .note.GNU-stack
                0x0000000000000000        0x0 /Users/stevefar/nacl_sdk/pepper_45/toolchain/mac_arm_newlib/bin/../lib/gcc/arm-nacl/4.9.2/../../../../arm-nacl/lib/libnacl.a(pthread_initialize_minimal_4b6e776b.o)
 .group         0x0000000000000000        0x8 /Users/stevefar/nacl_sdk/pepper_45/toolchain/mac_arm_newlib/bin/../lib/gcc/arm-nacl/4.9.2/../../../../arm-nacl/lib/libnacl.a(nacl_read_tp_5748ac47.o)
 .note.NaCl.ABI.arm
                0x0000000000000000       0x18 /Users/stevefar/nacl_sdk/pepper_45/toolchain/mac_arm_newlib/bin/../lib/gcc/arm-nacl/4.9.2/../../../../arm-nacl/lib/libnacl.a(nacl_read_tp_5748ac47.o)
 .note.GNU-stack
                0x0000000000000000        0x0 /Users/stevefar/nacl_sdk/pepper_45/toolchain/mac_arm_newlib/bin/../lib/gcc/arm-nacl/4.9.2/../../../../arm-nacl/lib/libnacl.a(nacl_read_tp_5748ac47.o)
 .group         0x0000000000000000        0x8 /Users/stevefar/nacl_sdk/pepper_45/toolchain/mac_arm_newlib/bin/../lib/gcc/arm-nacl/4.9.2/../../../../arm-nacl/lib/libnacl.a(nacl_interface_query_ef8a99f1.o)
 .note.NaCl.ABI.arm
                0x0000000000000000       0x18 /Users/stevefar/nacl_sdk/pepper_45/toolchain/mac_arm_newlib/bin/../lib/gcc/arm-nacl/4.9.2/../../../../arm-nacl/lib/libnacl.a(nacl_interface_query_ef8a99f1.o)
 .note.GNU-stack
                0x0000000000000000        0x0 /Users/stevefar/nacl_sdk/pepper_45/toolchain/mac_arm_newlib/bin/../lib/gcc/arm-nacl/4.9.2/../../../../arm-nacl/lib/libnacl.a(nacl_interface_query_ef8a99f1.o)
 .group         0x0000000000000000        0x8 /Users/stevefar/nacl_sdk/pepper_45/toolchain/mac_arm_newlib/bin/../lib/gcc/arm-nacl/4.9.2/../../../../arm-nacl/lib/libnacl.a(mmap_767fb080.o)
 .note.NaCl.ABI.arm
                0x0000000000000000       0x18 /Users/stevefar/nacl_sdk/pepper_45/toolchain/mac_arm_newlib/bin/../lib/gcc/arm-nacl/4.9.2/../../../../arm-nacl/lib/libnacl.a(mmap_767fb080.o)
 .note.GNU-stack
                0x0000000000000000        0x0 /Users/stevefar/nacl_sdk/pepper_45/toolchain/mac_arm_newlib/bin/../lib/gcc/arm-nacl/4.9.2/../../../../arm-nacl/lib/libnacl.a(mmap_767fb080.o)
 .group         0x0000000000000000        0x8 /Users/stevefar/nacl_sdk/pepper_45/toolchain/mac_arm_newlib/bin/../lib/gcc/arm-nacl/4.9.2/../../../../arm-nacl/lib/libnacl.a(sched_yield_56c375be.o)
 .note.NaCl.ABI.arm
                0x0000000000000000       0x18 /Users/stevefar/nacl_sdk/pepper_45/toolchain/mac_arm_newlib/bin/../lib/gcc/arm-nacl/4.9.2/../../../../arm-nacl/lib/libnacl.a(sched_yield_56c375be.o)
 .note.GNU-stack
                0x0000000000000000        0x0 /Users/stevefar/nacl_sdk/pepper_45/toolchain/mac_arm_newlib/bin/../lib/gcc/arm-nacl/4.9.2/../../../../arm-nacl/lib/libnacl.a(sched_yield_56c375be.o)
 .group         0x0000000000000000        0x8 /Users/stevefar/nacl_sdk/pepper_45/toolchain/mac_arm_newlib/bin/../lib/gcc/arm-nacl/4.9.2/../../../../arm-nacl/lib/libnacl.a(start_fa9ef7de.o)
 .note.NaCl.ABI.arm
                0x0000000000000000       0x18 /Users/stevefar/nacl_sdk/pepper_45/toolchain/mac_arm_newlib/bin/../lib/gcc/arm-nacl/4.9.2/../../../../arm-nacl/lib/libnacl.a(start_fa9ef7de.o)
 .note.GNU-stack
                0x0000000000000000        0x0 /Users/stevefar/nacl_sdk/pepper_45/toolchain/mac_arm_newlib/bin/../lib/gcc/arm-nacl/4.9.2/../../../../arm-nacl/lib/libnacl.a(start_fa9ef7de.o)
 .group         0x0000000000000000        0x8 /Users/stevefar/nacl_sdk/pepper_45/toolchain/mac_arm_newlib/bin/../lib/gcc/arm-nacl/4.9.2/../../../../arm-nacl/lib/libnacl.a(munmap_d4f09867.o)
 .note.NaCl.ABI.arm
                0x0000000000000000       0x18 /Users/stevefar/nacl_sdk/pepper_45/toolchain/mac_arm_newlib/bin/../lib/gcc/arm-nacl/4.9.2/../../../../arm-nacl/lib/libnacl.a(munmap_d4f09867.o)
 .note.GNU-stack
                0x0000000000000000        0x0 /Users/stevefar/nacl_sdk/pepper_45/toolchain/mac_arm_newlib/bin/../lib/gcc/arm-nacl/4.9.2/../../../../arm-nacl/lib/libnacl.a(munmap_d4f09867.o)
 .group         0x0000000000000000        0x8 /Users/stevefar/nacl_sdk/pepper_45/toolchain/mac_arm_newlib/bin/../lib/gcc/arm-nacl/4.9.2/../../../../arm-nacl/lib/libnacl.a(tls_bba1975b.o)
 .note.NaCl.ABI.arm
                0x0000000000000000       0x18 /Users/stevefar/nacl_sdk/pepper_45/toolchain/mac_arm_newlib/bin/../lib/gcc/arm-nacl/4.9.2/../../../../arm-nacl/lib/libnacl.a(tls_bba1975b.o)
 .note.GNU-stack
                0x0000000000000000        0x0 /Users/stevefar/nacl_sdk/pepper_45/toolchain/mac_arm_newlib/bin/../lib/gcc/arm-nacl/4.9.2/../../../../arm-nacl/lib/libnacl.a(tls_bba1975b.o)
 .group         0x0000000000000000        0x8 /Users/stevefar/nacl_sdk/pepper_45/toolchain/mac_arm_newlib/bin/../lib/gcc/arm-nacl/4.9.2/../../../../arm-nacl/lib/libnacl.a(write_fb49787f.o)
 .note.NaCl.ABI.arm
                0x0000000000000000       0x18 /Users/stevefar/nacl_sdk/pepper_45/toolchain/mac_arm_newlib/bin/../lib/gcc/arm-nacl/4.9.2/../../../../arm-nacl/lib/libnacl.a(write_fb49787f.o)
 .note.GNU-stack
                0x0000000000000000        0x0 /Users/stevefar/nacl_sdk/pepper_45/toolchain/mac_arm_newlib/bin/../lib/gcc/arm-nacl/4.9.2/../../../../arm-nacl/lib/libnacl.a(write_fb49787f.o)
 .group         0x0000000000000000        0x8 /Users/stevefar/nacl_sdk/pepper_45/toolchain/mac_arm_newlib/bin/../lib/gcc/arm-nacl/4.9.2/../../../../arm-nacl/lib/libnacl.a(nacl_tls_get_d2f842b5.o)
 .note.NaCl.ABI.arm
                0x0000000000000000       0x18 /Users/stevefar/nacl_sdk/pepper_45/toolchain/mac_arm_newlib/bin/../lib/gcc/arm-nacl/4.9.2/../../../../arm-nacl/lib/libnacl.a(nacl_tls_get_d2f842b5.o)
 .note.GNU-stack
                0x0000000000000000        0x0 /Users/stevefar/nacl_sdk/pepper_45/toolchain/mac_arm_newlib/bin/../lib/gcc/arm-nacl/4.9.2/../../../../arm-nacl/lib/libnacl.a(nacl_tls_get_d2f842b5.o)
 .group         0x0000000000000000        0x8 /Users/stevefar/nacl_sdk/pepper_45/toolchain/mac_arm_newlib/bin/../lib/gcc/arm-nacl/4.9.2/../../../../arm-nacl/lib/libnacl.a(nacl_irt_init_7b4f826e.o)
 .note.NaCl.ABI.arm
                0x0000000000000000       0x18 /Users/stevefar/nacl_sdk/pepper_45/toolchain/mac_arm_newlib/bin/../lib/gcc/arm-nacl/4.9.2/../../../../arm-nacl/lib/libnacl.a(nacl_irt_init_7b4f826e.o)
 .note.GNU-stack
                0x0000000000000000        0x0 /Users/stevefar/nacl_sdk/pepper_45/toolchain/mac_arm_newlib/bin/../lib/gcc/arm-nacl/4.9.2/../../../../arm-nacl/lib/libnacl.a(nacl_irt_init_7b4f826e.o)
 .group         0x0000000000000000        0x8 /Users/stevefar/nacl_sdk/pepper_45/toolchain/mac_arm_newlib/bin/../lib/gcc/arm-nacl/4.9.2/../../../../arm-nacl/lib/libnacl.a(sysconf_ad295ea2.o)
 .note.NaCl.ABI.arm
                0x0000000000000000       0x18 /Users/stevefar/nacl_sdk/pepper_45/toolchain/mac_arm_newlib/bin/../lib/gcc/arm-nacl/4.9.2/../../../../arm-nacl/lib/libnacl.a(sysconf_ad295ea2.o)
 .note.GNU-stack
                0x0000000000000000        0x0 /Users/stevefar/nacl_sdk/pepper_45/toolchain/mac_arm_newlib/bin/../lib/gcc/arm-nacl/4.9.2/../../../../arm-nacl/lib/libnacl.a(sysconf_ad295ea2.o)
 .group         0x0000000000000000        0x8 /Users/stevefar/nacl_sdk/pepper_45/toolchain/mac_arm_newlib/bin/../lib/gcc/arm-nacl/4.9.2/../../../../arm-nacl/lib/libnacl.a(nacl_tls_init_eb0cd232.o)
 .note.NaCl.ABI.arm
                0x0000000000000000       0x18 /Users/stevefar/nacl_sdk/pepper_45/toolchain/mac_arm_newlib/bin/../lib/gcc/arm-nacl/4.9.2/../../../../arm-nacl/lib/libnacl.a(nacl_tls_init_eb0cd232.o)
 .note.GNU-stack
                0x0000000000000000        0x0 /Users/stevefar/nacl_sdk/pepper_45/toolchain/mac_arm_newlib/bin/../lib/gcc/arm-nacl/4.9.2/../../../../arm-nacl/lib/libnacl.a(nacl_tls_init_eb0cd232.o)
 .group         0x0000000000000000        0x8 /Users/stevefar/nacl_sdk/pepper_45/toolchain/mac_arm_newlib/bin/../lib/gcc/arm-nacl/4.9.2/../../../../arm-nacl/lib/libcrt_common.a(lib_a-atexit.o)
 .note.NaCl.ABI.arm
                0x0000000000000000       0x18 /Users/stevefar/nacl_sdk/pepper_45/toolchain/mac_arm_newlib/bin/../lib/gcc/arm-nacl/4.9.2/../../../../arm-nacl/lib/libcrt_common.a(lib_a-atexit.o)
 .note.GNU-stack
                0x0000000000000000        0x0 /Users/stevefar/nacl_sdk/pepper_45/toolchain/mac_arm_newlib/bin/../lib/gcc/arm-nacl/4.9.2/../../../../arm-nacl/lib/libcrt_common.a(lib_a-atexit.o)
 .group         0x0000000000000000        0x8 /Users/stevefar/nacl_sdk/pepper_45/toolchain/mac_arm_newlib/bin/../lib/gcc/arm-nacl/4.9.2/../../../../arm-nacl/lib/libcrt_common.a(lib_a-errno.o)
 .note.NaCl.ABI.arm
                0x0000000000000000       0x18 /Users/stevefar/nacl_sdk/pepper_45/toolchain/mac_arm_newlib/bin/../lib/gcc/arm-nacl/4.9.2/../../../../arm-nacl/lib/libcrt_common.a(lib_a-errno.o)
 .note.GNU-stack
                0x0000000000000000        0x0 /Users/stevefar/nacl_sdk/pepper_45/toolchain/mac_arm_newlib/bin/../lib/gcc/arm-nacl/4.9.2/../../../../arm-nacl/lib/libcrt_common.a(lib_a-errno.o)
 .group         0x0000000000000000        0x8 /Users/stevefar/nacl_sdk/pepper_45/toolchain/mac_arm_newlib/bin/../lib/gcc/arm-nacl/4.9.2/../../../../arm-nacl/lib/libcrt_common.a(lib_a-exit.o)
 .note.NaCl.ABI.arm
                0x0000000000000000       0x18 /Users/stevefar/nacl_sdk/pepper_45/toolchain/mac_arm_newlib/bin/../lib/gcc/arm-nacl/4.9.2/../../../../arm-nacl/lib/libcrt_common.a(lib_a-exit.o)
 .note.GNU-stack
                0x0000000000000000        0x0 /Users/stevefar/nacl_sdk/pepper_45/toolchain/mac_arm_newlib/bin/../lib/gcc/arm-nacl/4.9.2/../../../../arm-nacl/lib/libcrt_common.a(lib_a-exit.o)
 .group         0x0000000000000000        0x8 /Users/stevefar/nacl_sdk/pepper_45/toolchain/mac_arm_newlib/bin/../lib/gcc/arm-nacl/4.9.2/../../../../arm-nacl/lib/libcrt_common.a(lib_a-fflush.o)
 .note.NaCl.ABI.arm
                0x0000000000000000       0x18 /Users/stevefar/nacl_sdk/pepper_45/toolchain/mac_arm_newlib/bin/../lib/gcc/arm-nacl/4.9.2/../../../../arm-nacl/lib/libcrt_common.a(lib_a-fflush.o)
 .note.GNU-stack
                0x0000000000000000        0x0 /Users/stevefar/nacl_sdk/pepper_45/toolchain/mac_arm_newlib/bin/../lib/gcc/arm-nacl/4.9.2/../../../../arm-nacl/lib/libcrt_common.a(lib_a-fflush.o)
 .group         0x0000000000000000        0x8 /Users/stevefar/nacl_sdk/pepper_45/toolchain/mac_arm_newlib/bin/../lib/gcc/arm-nacl/4.9.2/../../../../arm-nacl/lib/libcrt_common.a(lib_a-findfp.o)
 .note.NaCl.ABI.arm
                0x0000000000000000       0x18 /Users/stevefar/nacl_sdk/pepper_45/toolchain/mac_arm_newlib/bin/../lib/gcc/arm-nacl/4.9.2/../../../../arm-nacl/lib/libcrt_common.a(lib_a-findfp.o)
 .note.GNU-stack
                0x0000000000000000        0x0 /Users/stevefar/nacl_sdk/pepper_45/toolchain/mac_arm_newlib/bin/../lib/gcc/arm-nacl/4.9.2/../../../../arm-nacl/lib/libcrt_common.a(lib_a-findfp.o)
 .group         0x0000000000000000        0x8 /Users/stevefar/nacl_sdk/pepper_45/toolchain/mac_arm_newlib/bin/../lib/gcc/arm-nacl/4.9.2/../../../../arm-nacl/lib/libcrt_common.a(lib_a-fini.o)
 .note.NaCl.ABI.arm
                0x0000000000000000       0x18 /Users/stevefar/nacl_sdk/pepper_45/toolchain/mac_arm_newlib/bin/../lib/gcc/arm-nacl/4.9.2/../../../../arm-nacl/lib/libcrt_common.a(lib_a-fini.o)
 .note.GNU-stack
                0x0000000000000000        0x0 /Users/stevefar/nacl_sdk/pepper_45/toolchain/mac_arm_newlib/bin/../lib/gcc/arm-nacl/4.9.2/../../../../arm-nacl/lib/libcrt_common.a(lib_a-fini.o)
 .group         0x0000000000000000        0x8 /Users/stevefar/nacl_sdk/pepper_45/toolchain/mac_arm_newlib/bin/../lib/gcc/arm-nacl/4.9.2/../../../../arm-nacl/lib/libcrt_common.a(lib_a-fprintf.o)
 .note.NaCl.ABI.arm
                0x0000000000000000       0x18 /Users/stevefar/nacl_sdk/pepper_45/toolchain/mac_arm_newlib/bin/../lib/gcc/arm-nacl/4.9.2/../../../../arm-nacl/lib/libcrt_common.a(lib_a-fprintf.o)
 .note.GNU-stack
                0x0000000000000000        0x0 /Users/stevefar/nacl_sdk/pepper_45/toolchain/mac_arm_newlib/bin/../lib/gcc/arm-nacl/4.9.2/../../../../arm-nacl/lib/libcrt_common.a(lib_a-fprintf.o)
 .group         0x0000000000000000        0x8 /Users/stevefar/nacl_sdk/pepper_45/toolchain/mac_arm_newlib/bin/../lib/gcc/arm-nacl/4.9.2/../../../../arm-nacl/lib/libcrt_common.a(lib_a-fwalk.o)
 .note.NaCl.ABI.arm
                0x0000000000000000       0x18 /Users/stevefar/nacl_sdk/pepper_45/toolchain/mac_arm_newlib/bin/../lib/gcc/arm-nacl/4.9.2/../../../../arm-nacl/lib/libcrt_common.a(lib_a-fwalk.o)
 .note.GNU-stack
                0x0000000000000000        0x0 /Users/stevefar/nacl_sdk/pepper_45/toolchain/mac_arm_newlib/bin/../lib/gcc/arm-nacl/4.9.2/../../../../arm-nacl/lib/libcrt_common.a(lib_a-fwalk.o)
 .group         0x0000000000000000        0x8 /Users/stevefar/nacl_sdk/pepper_45/toolchain/mac_arm_newlib/bin/../lib/gcc/arm-nacl/4.9.2/../../../../arm-nacl/lib/libcrt_common.a(lib_a-fwrite.o)
 .note.NaCl.ABI.arm
                0x0000000000000000       0x18 /Users/stevefar/nacl_sdk/pepper_45/toolchain/mac_arm_newlib/bin/../lib/gcc/arm-nacl/4.9.2/../../../../arm-nacl/lib/libcrt_common.a(lib_a-fwrite.o)
 .note.GNU-stack
                0x0000000000000000        0x0 /Users/stevefar/nacl_sdk/pepper_45/toolchain/mac_arm_newlib/bin/../lib/gcc/arm-nacl/4.9.2/../../../../arm-nacl/lib/libcrt_common.a(lib_a-fwrite.o)
 .group         0x0000000000000000        0x8 /Users/stevefar/nacl_sdk/pepper_45/toolchain/mac_arm_newlib/bin/../lib/gcc/arm-nacl/4.9.2/../../../../arm-nacl/lib/libcrt_common.a(lib_a-getenv.o)
 .note.NaCl.ABI.arm
                0x0000000000000000       0x18 /Users/stevefar/nacl_sdk/pepper_45/toolchain/mac_arm_newlib/bin/../lib/gcc/arm-nacl/4.9.2/../../../../arm-nacl/lib/libcrt_common.a(lib_a-getenv.o)
 .note.GNU-stack
                0x0000000000000000        0x0 /Users/stevefar/nacl_sdk/pepper_45/toolchain/mac_arm_newlib/bin/../lib/gcc/arm-nacl/4.9.2/../../../../arm-nacl/lib/libcrt_common.a(lib_a-getenv.o)
 .group         0x0000000000000000        0x8 /Users/stevefar/nacl_sdk/pepper_45/toolchain/mac_arm_newlib/bin/../lib/gcc/arm-nacl/4.9.2/../../../../arm-nacl/lib/libcrt_common.a(lib_a-getenv_r.o)
 .note.NaCl.ABI.arm
                0x0000000000000000       0x18 /Users/stevefar/nacl_sdk/pepper_45/toolchain/mac_arm_newlib/bin/../lib/gcc/arm-nacl/4.9.2/../../../../arm-nacl/lib/libcrt_common.a(lib_a-getenv_r.o)
 .note.GNU-stack
                0x0000000000000000        0x0 /Users/stevefar/nacl_sdk/pepper_45/toolchain/mac_arm_newlib/bin/../lib/gcc/arm-nacl/4.9.2/../../../../arm-nacl/lib/libcrt_common.a(lib_a-getenv_r.o)
 .group         0x0000000000000000        0x8 /Users/stevefar/nacl_sdk/pepper_45/toolchain/mac_arm_newlib/bin/../lib/gcc/arm-nacl/4.9.2/../../../../arm-nacl/lib/libcrt_common.a(lib_a-impure.o)
 .note.NaCl.ABI.arm
                0x0000000000000000       0x18 /Users/stevefar/nacl_sdk/pepper_45/toolchain/mac_arm_newlib/bin/../lib/gcc/arm-nacl/4.9.2/../../../../arm-nacl/lib/libcrt_common.a(lib_a-impure.o)
 .note.GNU-stack
                0x0000000000000000        0x0 /Users/stevefar/nacl_sdk/pepper_45/toolchain/mac_arm_newlib/bin/../lib/gcc/arm-nacl/4.9.2/../../../../arm-nacl/lib/libcrt_common.a(lib_a-impure.o)
 .group         0x0000000000000000        0x8 /Users/stevefar/nacl_sdk/pepper_45/toolchain/mac_arm_newlib/bin/../lib/gcc/arm-nacl/4.9.2/../../../../arm-nacl/lib/libcrt_common.a(lib_a-init.o)
 .note.NaCl.ABI.arm
                0x0000000000000000       0x18 /Users/stevefar/nacl_sdk/pepper_45/toolchain/mac_arm_newlib/bin/../lib/gcc/arm-nacl/4.9.2/../../../../arm-nacl/lib/libcrt_common.a(lib_a-init.o)
 .note.GNU-stack
                0x0000000000000000        0x0 /Users/stevefar/nacl_sdk/pepper_45/toolchain/mac_arm_newlib/bin/../lib/gcc/arm-nacl/4.9.2/../../../../arm-nacl/lib/libcrt_common.a(lib_a-init.o)
 .group         0x0000000000000000        0x8 /Users/stevefar/nacl_sdk/pepper_45/toolchain/mac_arm_newlib/bin/../lib/gcc/arm-nacl/4.9.2/../../../../arm-nacl/lib/libcrt_common.a(lib_a-memcpy.o)
 .note.NaCl.ABI.arm
                0x0000000000000000       0x18 /Users/stevefar/nacl_sdk/pepper_45/toolchain/mac_arm_newlib/bin/../lib/gcc/arm-nacl/4.9.2/../../../../arm-nacl/lib/libcrt_common.a(lib_a-memcpy.o)
 .group         0x0000000000000000        0x8 /Users/stevefar/nacl_sdk/pepper_45/toolchain/mac_arm_newlib/bin/../lib/gcc/arm-nacl/4.9.2/../../../../arm-nacl/lib/libcrt_common.a(lib_a-memset.o)
 .note.NaCl.ABI.arm
                0x0000000000000000       0x18 /Users/stevefar/nacl_sdk/pepper_45/toolchain/mac_arm_newlib/bin/../lib/gcc/arm-nacl/4.9.2/../../../../arm-nacl/lib/libcrt_common.a(lib_a-memset.o)
 .note.GNU-stack
                0x0000000000000000        0x0 /Users/stevefar/nacl_sdk/pepper_45/toolchain/mac_arm_newlib/bin/../lib/gcc/arm-nacl/4.9.2/../../../../arm-nacl/lib/libcrt_common.a(lib_a-memset.o)
 .group         0x0000000000000000        0x8 /Users/stevefar/nacl_sdk/pepper_45/toolchain/mac_arm_newlib/bin/../lib/gcc/arm-nacl/4.9.2/../../../../arm-nacl/lib/libcrt_common.a(lib_a-sleep.o)
 .note.NaCl.ABI.arm
                0x0000000000000000       0x18 /Users/stevefar/nacl_sdk/pepper_45/toolchain/mac_arm_newlib/bin/../lib/gcc/arm-nacl/4.9.2/../../../../arm-nacl/lib/libcrt_common.a(lib_a-sleep.o)
 .note.GNU-stack
                0x0000000000000000        0x0 /Users/stevefar/nacl_sdk/pepper_45/toolchain/mac_arm_newlib/bin/../lib/gcc/arm-nacl/4.9.2/../../../../arm-nacl/lib/libcrt_common.a(lib_a-sleep.o)
 .group         0x0000000000000000        0x8 /Users/stevefar/nacl_sdk/pepper_45/toolchain/mac_arm_newlib/bin/../lib/gcc/arm-nacl/4.9.2/../../../../arm-nacl/lib/libcrt_common.a(lib_a-stdio.o)
 .note.NaCl.ABI.arm
                0x0000000000000000       0x18 /Users/stevefar/nacl_sdk/pepper_45/toolchain/mac_arm_newlib/bin/../lib/gcc/arm-nacl/4.9.2/../../../../arm-nacl/lib/libcrt_common.a(lib_a-stdio.o)
 .note.GNU-stack
                0x0000000000000000        0x0 /Users/stevefar/nacl_sdk/pepper_45/toolchain/mac_arm_newlib/bin/../lib/gcc/arm-nacl/4.9.2/../../../../arm-nacl/lib/libcrt_common.a(lib_a-stdio.o)
 .group         0x0000000000000000        0x8 /Users/stevefar/nacl_sdk/pepper_45/toolchain/mac_arm_newlib/bin/../lib/gcc/arm-nacl/4.9.2/../../../../arm-nacl/lib/libcrt_common.a(lib_a-strcmp.o)
 .note.NaCl.ABI.arm
                0x0000000000000000       0x18 /Users/stevefar/nacl_sdk/pepper_45/toolchain/mac_arm_newlib/bin/../lib/gcc/arm-nacl/4.9.2/../../../../arm-nacl/lib/libcrt_common.a(lib_a-strcmp.o)
 .group         0x0000000000000000        0x8 /Users/stevefar/nacl_sdk/pepper_45/toolchain/mac_arm_newlib/bin/../lib/gcc/arm-nacl/4.9.2/../../../../arm-nacl/lib/libcrt_common.a(lib_a-strlen-armv7.o)
 .note.NaCl.ABI.arm
                0x0000000000000000       0x18 /Users/stevefar/nacl_sdk/pepper_45/toolchain/mac_arm_newlib/bin/../lib/gcc/arm-nacl/4.9.2/../../../../arm-nacl/lib/libcrt_common.a(lib_a-strlen-armv7.o)
 .group         0x0000000000000000        0x8 /Users/stevefar/nacl_sdk/pepper_45/toolchain/mac_arm_newlib/bin/../lib/gcc/arm-nacl/4.9.2/../../../../arm-nacl/lib/libcrt_common.a(lib_a-strncmp.o)
 .note.NaCl.ABI.arm
                0x0000000000000000       0x18 /Users/stevefar/nacl_sdk/pepper_45/toolchain/mac_arm_newlib/bin/../lib/gcc/arm-nacl/4.9.2/../../../../arm-nacl/lib/libcrt_common.a(lib_a-strncmp.o)
 .note.GNU-stack
                0x0000000000000000        0x0 /Users/stevefar/nacl_sdk/pepper_45/toolchain/mac_arm_newlib/bin/../lib/gcc/arm-nacl/4.9.2/../../../../arm-nacl/lib/libcrt_common.a(lib_a-strncmp.o)
 .group         0x0000000000000000        0x8 /Users/stevefar/nacl_sdk/pepper_45/toolchain/mac_arm_newlib/bin/../lib/gcc/arm-nacl/4.9.2/../../../../arm-nacl/lib/libcrt_common.a(lib_a-vfprintf.o)
 .note.NaCl.ABI.arm
                0x0000000000000000       0x18 /Users/stevefar/nacl_sdk/pepper_45/toolchain/mac_arm_newlib/bin/../lib/gcc/arm-nacl/4.9.2/../../../../arm-nacl/lib/libcrt_common.a(lib_a-vfprintf.o)
 .note.GNU-stack
                0x0000000000000000        0x0 /Users/stevefar/nacl_sdk/pepper_45/toolchain/mac_arm_newlib/bin/../lib/gcc/arm-nacl/4.9.2/../../../../arm-nacl/lib/libcrt_common.a(lib_a-vfprintf.o)
 .group         0x0000000000000000        0x8 /Users/stevefar/nacl_sdk/pepper_45/toolchain/mac_arm_newlib/bin/../lib/gcc/arm-nacl/4.9.2/../../../../arm-nacl/lib/libcrt_common.a(lib_a-vsnprintf.o)
 .note.NaCl.ABI.arm
                0x0000000000000000       0x18 /Users/stevefar/nacl_sdk/pepper_45/toolchain/mac_arm_newlib/bin/../lib/gcc/arm-nacl/4.9.2/../../../../arm-nacl/lib/libcrt_common.a(lib_a-vsnprintf.o)
 .note.GNU-stack
                0x0000000000000000        0x0 /Users/stevefar/nacl_sdk/pepper_45/toolchain/mac_arm_newlib/bin/../lib/gcc/arm-nacl/4.9.2/../../../../arm-nacl/lib/libcrt_common.a(lib_a-vsnprintf.o)
 .group         0x0000000000000000        0x8 /Users/stevefar/nacl_sdk/pepper_45/toolchain/mac_arm_newlib/bin/../lib/gcc/arm-nacl/4.9.2/../../../../arm-nacl/lib/libcrt_common.a(lib_a-vsprintf.o)
 .note.NaCl.ABI.arm
                0x0000000000000000       0x18 /Users/stevefar/nacl_sdk/pepper_45/toolchain/mac_arm_newlib/bin/../lib/gcc/arm-nacl/4.9.2/../../../../arm-nacl/lib/libcrt_common.a(lib_a-vsprintf.o)
 .note.GNU-stack
                0x0000000000000000        0x0 /Users/stevefar/nacl_sdk/pepper_45/toolchain/mac_arm_newlib/bin/../lib/gcc/arm-nacl/4.9.2/../../../../arm-nacl/lib/libcrt_common.a(lib_a-vsprintf.o)
 .group         0x0000000000000000        0x8 /Users/stevefar/nacl_sdk/pepper_45/toolchain/mac_arm_newlib/bin/../lib/gcc/arm-nacl/4.9.2/../../../../arm-nacl/lib/libcrt_common.a(lib_a-wcrtomb.o)
 .note.NaCl.ABI.arm
                0x0000000000000000       0x18 /Users/stevefar/nacl_sdk/pepper_45/toolchain/mac_arm_newlib/bin/../lib/gcc/arm-nacl/4.9.2/../../../../arm-nacl/lib/libcrt_common.a(lib_a-wcrtomb.o)
 .note.GNU-stack
                0x0000000000000000        0x0 /Users/stevefar/nacl_sdk/pepper_45/toolchain/mac_arm_newlib/bin/../lib/gcc/arm-nacl/4.9.2/../../../../arm-nacl/lib/libcrt_common.a(lib_a-wcrtomb.o)
 .group         0x0000000000000000        0x8 /Users/stevefar/nacl_sdk/pepper_45/toolchain/mac_arm_newlib/bin/../lib/gcc/arm-nacl/4.9.2/../../../../arm-nacl/lib/libcrt_common.a(lib_a-wcsrtombs.o)
 .note.NaCl.ABI.arm
                0x0000000000000000       0x18 /Users/stevefar/nacl_sdk/pepper_45/toolchain/mac_arm_newlib/bin/../lib/gcc/arm-nacl/4.9.2/../../../../arm-nacl/lib/libcrt_common.a(lib_a-wcsrtombs.o)
 .note.GNU-stack
                0x0000000000000000        0x0 /Users/stevefar/nacl_sdk/pepper_45/toolchain/mac_arm_newlib/bin/../lib/gcc/arm-nacl/4.9.2/../../../../arm-nacl/lib/libcrt_common.a(lib_a-wcsrtombs.o)
 .group         0x0000000000000000        0x8 /Users/stevefar/nacl_sdk/pepper_45/toolchain/mac_arm_newlib/bin/../lib/gcc/arm-nacl/4.9.2/../../../../arm-nacl/lib/libcrt_common.a(lib_a-wctomb_r.o)
 .note.NaCl.ABI.arm
                0x0000000000000000       0x18 /Users/stevefar/nacl_sdk/pepper_45/toolchain/mac_arm_newlib/bin/../lib/gcc/arm-nacl/4.9.2/../../../../arm-nacl/lib/libcrt_common.a(lib_a-wctomb_r.o)
 .note.GNU-stack
                0x0000000000000000        0x0 /Users/stevefar/nacl_sdk/pepper_45/toolchain/mac_arm_newlib/bin/../lib/gcc/arm-nacl/4.9.2/../../../../arm-nacl/lib/libcrt_common.a(lib_a-wctomb_r.o)
 .group         0x0000000000000000        0x8 /Users/stevefar/nacl_sdk/pepper_45/toolchain/mac_arm_newlib/bin/../lib/gcc/arm-nacl/4.9.2/../../../../arm-nacl/lib/libcrt_common.a(lib_a-wsetup.o)
 .note.NaCl.ABI.arm
                0x0000000000000000       0x18 /Users/stevefar/nacl_sdk/pepper_45/toolchain/mac_arm_newlib/bin/../lib/gcc/arm-nacl/4.9.2/../../../../arm-nacl/lib/libcrt_common.a(lib_a-wsetup.o)
 .note.GNU-stack
                0x0000000000000000        0x0 /Users/stevefar/nacl_sdk/pepper_45/toolchain/mac_arm_newlib/bin/../lib/gcc/arm-nacl/4.9.2/../../../../arm-nacl/lib/libcrt_common.a(lib_a-wsetup.o)
 .group         0x0000000000000000        0x8 /Users/stevefar/nacl_sdk/pepper_45/toolchain/mac_arm_newlib/bin/../lib/gcc/arm-nacl/4.9.2/../../../../arm-nacl/lib/libcrt_common.a(lib_a-__atexit.o)
 .note.NaCl.ABI.arm
                0x0000000000000000       0x18 /Users/stevefar/nacl_sdk/pepper_45/toolchain/mac_arm_newlib/bin/../lib/gcc/arm-nacl/4.9.2/../../../../arm-nacl/lib/libcrt_common.a(lib_a-__atexit.o)
 .note.GNU-stack
                0x0000000000000000        0x0 /Users/stevefar/nacl_sdk/pepper_45/toolchain/mac_arm_newlib/bin/../lib/gcc/arm-nacl/4.9.2/../../../../arm-nacl/lib/libcrt_common.a(lib_a-__atexit.o)
 .group         0x0000000000000000        0x8 /Users/stevefar/nacl_sdk/pepper_45/toolchain/mac_arm_newlib/bin/../lib/gcc/arm-nacl/4.9.2/../../../../arm-nacl/lib/libcrt_common.a(lib_a-__call_atexit.o)
 .note.NaCl.ABI.arm
                0x0000000000000000       0x18 /Users/stevefar/nacl_sdk/pepper_45/toolchain/mac_arm_newlib/bin/../lib/gcc/arm-nacl/4.9.2/../../../../arm-nacl/lib/libcrt_common.a(lib_a-__call_atexit.o)
 .note.GNU-stack
                0x0000000000000000        0x0 /Users/stevefar/nacl_sdk/pepper_45/toolchain/mac_arm_newlib/bin/../lib/gcc/arm-nacl/4.9.2/../../../../arm-nacl/lib/libcrt_common.a(lib_a-__call_atexit.o)
 .group         0x0000000000000000        0x8 /Users/stevefar/nacl_sdk/pepper_45/toolchain/mac_arm_newlib/bin/../lib/gcc/arm-nacl/4.9.2/../../../../arm-nacl/lib/libcrt_common.a(lib_a-dtoa.o)
 .note.NaCl.ABI.arm
                0x0000000000000000       0x18 /Users/stevefar/nacl_sdk/pepper_45/toolchain/mac_arm_newlib/bin/../lib/gcc/arm-nacl/4.9.2/../../../../arm-nacl/lib/libcrt_common.a(lib_a-dtoa.o)
 .note.GNU-stack
                0x0000000000000000        0x0 /Users/stevefar/nacl_sdk/pepper_45/toolchain/mac_arm_newlib/bin/../lib/gcc/arm-nacl/4.9.2/../../../../arm-nacl/lib/libcrt_common.a(lib_a-dtoa.o)
 .group         0x0000000000000000        0x8 /Users/stevefar/nacl_sdk/pepper_45/toolchain/mac_arm_newlib/bin/../lib/gcc/arm-nacl/4.9.2/../../../../arm-nacl/lib/libcrt_common.a(lib_a-envlock.o)
 .note.NaCl.ABI.arm
                0x0000000000000000       0x18 /Users/stevefar/nacl_sdk/pepper_45/toolchain/mac_arm_newlib/bin/../lib/gcc/arm-nacl/4.9.2/../../../../arm-nacl/lib/libcrt_common.a(lib_a-envlock.o)
 .note.GNU-stack
                0x0000000000000000        0x0 /Users/stevefar/nacl_sdk/pepper_45/toolchain/mac_arm_newlib/bin/../lib/gcc/arm-nacl/4.9.2/../../../../arm-nacl/lib/libcrt_common.a(lib_a-envlock.o)
 .group         0x0000000000000000        0x8 /Users/stevefar/nacl_sdk/pepper_45/toolchain/mac_arm_newlib/bin/../lib/gcc/arm-nacl/4.9.2/../../../../arm-nacl/lib/libcrt_common.a(lib_a-fclose.o)
 .note.NaCl.ABI.arm
                0x0000000000000000       0x18 /Users/stevefar/nacl_sdk/pepper_45/toolchain/mac_arm_newlib/bin/../lib/gcc/arm-nacl/4.9.2/../../../../arm-nacl/lib/libcrt_common.a(lib_a-fclose.o)
 .note.GNU-stack
                0x0000000000000000        0x0 /Users/stevefar/nacl_sdk/pepper_45/toolchain/mac_arm_newlib/bin/../lib/gcc/arm-nacl/4.9.2/../../../../arm-nacl/lib/libcrt_common.a(lib_a-fclose.o)
 .group         0x0000000000000000        0x8 /Users/stevefar/nacl_sdk/pepper_45/toolchain/mac_arm_newlib/bin/../lib/gcc/arm-nacl/4.9.2/../../../../arm-nacl/lib/libcrt_common.a(lib_a-fvwrite.o)
 .note.NaCl.ABI.arm
                0x0000000000000000       0x18 /Users/stevefar/nacl_sdk/pepper_45/toolchain/mac_arm_newlib/bin/../lib/gcc/arm-nacl/4.9.2/../../../../arm-nacl/lib/libcrt_common.a(lib_a-fvwrite.o)
 .note.GNU-stack
                0x0000000000000000        0x0 /Users/stevefar/nacl_sdk/pepper_45/toolchain/mac_arm_newlib/bin/../lib/gcc/arm-nacl/4.9.2/../../../../arm-nacl/lib/libcrt_common.a(lib_a-fvwrite.o)
 .group         0x0000000000000000        0x8 /Users/stevefar/nacl_sdk/pepper_45/toolchain/mac_arm_newlib/bin/../lib/gcc/arm-nacl/4.9.2/../../../../arm-nacl/lib/libcrt_common.a(lib_a-locale.o)
 .note.NaCl.ABI.arm
                0x0000000000000000       0x18 /Users/stevefar/nacl_sdk/pepper_45/toolchain/mac_arm_newlib/bin/../lib/gcc/arm-nacl/4.9.2/../../../../arm-nacl/lib/libcrt_common.a(lib_a-locale.o)
 .note.GNU-stack
                0x0000000000000000        0x0 /Users/stevefar/nacl_sdk/pepper_45/toolchain/mac_arm_newlib/bin/../lib/gcc/arm-nacl/4.9.2/../../../../arm-nacl/lib/libcrt_common.a(lib_a-locale.o)
 .group         0x0000000000000000        0x8 /Users/stevefar/nacl_sdk/pepper_45/toolchain/mac_arm_newlib/bin/../lib/gcc/arm-nacl/4.9.2/../../../../arm-nacl/lib/libcrt_common.a(lib_a-makebuf.o)
 .note.NaCl.ABI.arm
                0x0000000000000000       0x18 /Users/stevefar/nacl_sdk/pepper_45/toolchain/mac_arm_newlib/bin/../lib/gcc/arm-nacl/4.9.2/../../../../arm-nacl/lib/libcrt_common.a(lib_a-makebuf.o)
 .note.GNU-stack
                0x0000000000000000        0x0 /Users/stevefar/nacl_sdk/pepper_45/toolchain/mac_arm_newlib/bin/../lib/gcc/arm-nacl/4.9.2/../../../../arm-nacl/lib/libcrt_common.a(lib_a-makebuf.o)
 .group         0x0000000000000000        0x8 /Users/stevefar/nacl_sdk/pepper_45/toolchain/mac_arm_newlib/bin/../lib/gcc/arm-nacl/4.9.2/../../../../arm-nacl/lib/libcrt_common.a(lib_a-mbtowc_r.o)
 .note.NaCl.ABI.arm
                0x0000000000000000       0x18 /Users/stevefar/nacl_sdk/pepper_45/toolchain/mac_arm_newlib/bin/../lib/gcc/arm-nacl/4.9.2/../../../../arm-nacl/lib/libcrt_common.a(lib_a-mbtowc_r.o)
 .note.GNU-stack
                0x0000000000000000        0x0 /Users/stevefar/nacl_sdk/pepper_45/toolchain/mac_arm_newlib/bin/../lib/gcc/arm-nacl/4.9.2/../../../../arm-nacl/lib/libcrt_common.a(lib_a-mbtowc_r.o)
 .group         0x0000000000000000        0x8 /Users/stevefar/nacl_sdk/pepper_45/toolchain/mac_arm_newlib/bin/../lib/gcc/arm-nacl/4.9.2/../../../../arm-nacl/lib/libcrt_common.a(lib_a-memchr.o)
 .note.NaCl.ABI.arm
                0x0000000000000000       0x18 /Users/stevefar/nacl_sdk/pepper_45/toolchain/mac_arm_newlib/bin/../lib/gcc/arm-nacl/4.9.2/../../../../arm-nacl/lib/libcrt_common.a(lib_a-memchr.o)
 .group         0x0000000000000000        0x8 /Users/stevefar/nacl_sdk/pepper_45/toolchain/mac_arm_newlib/bin/../lib/gcc/arm-nacl/4.9.2/../../../../arm-nacl/lib/libcrt_common.a(lib_a-memmove.o)
 .note.NaCl.ABI.arm
                0x0000000000000000       0x18 /Users/stevefar/nacl_sdk/pepper_45/toolchain/mac_arm_newlib/bin/../lib/gcc/arm-nacl/4.9.2/../../../../arm-nacl/lib/libcrt_common.a(lib_a-memmove.o)
 .note.GNU-stack
                0x0000000000000000        0x0 /Users/stevefar/nacl_sdk/pepper_45/toolchain/mac_arm_newlib/bin/../lib/gcc/arm-nacl/4.9.2/../../../../arm-nacl/lib/libcrt_common.a(lib_a-memmove.o)
 .group         0x0000000000000000        0x8 /Users/stevefar/nacl_sdk/pepper_45/toolchain/mac_arm_newlib/bin/../lib/gcc/arm-nacl/4.9.2/../../../../arm-nacl/lib/libcrt_common.a(lib_a-mprec.o)
 .note.NaCl.ABI.arm
                0x0000000000000000       0x18 /Users/stevefar/nacl_sdk/pepper_45/toolchain/mac_arm_newlib/bin/../lib/gcc/arm-nacl/4.9.2/../../../../arm-nacl/lib/libcrt_common.a(lib_a-mprec.o)
 .note.GNU-stack
                0x0000000000000000        0x0 /Users/stevefar/nacl_sdk/pepper_45/toolchain/mac_arm_newlib/bin/../lib/gcc/arm-nacl/4.9.2/../../../../arm-nacl/lib/libcrt_common.a(lib_a-mprec.o)
 .group         0x0000000000000000        0x8 /Users/stevefar/nacl_sdk/pepper_45/toolchain/mac_arm_newlib/bin/../lib/gcc/arm-nacl/4.9.2/../../../../arm-nacl/lib/libcrt_common.a(lib_a-s_fpclassify.o)
 .note.NaCl.ABI.arm
                0x0000000000000000       0x18 /Users/stevefar/nacl_sdk/pepper_45/toolchain/mac_arm_newlib/bin/../lib/gcc/arm-nacl/4.9.2/../../../../arm-nacl/lib/libcrt_common.a(lib_a-s_fpclassify.o)
 .note.GNU-stack
                0x0000000000000000        0x0 /Users/stevefar/nacl_sdk/pepper_45/toolchain/mac_arm_newlib/bin/../lib/gcc/arm-nacl/4.9.2/../../../../arm-nacl/lib/libcrt_common.a(lib_a-s_fpclassify.o)
 .group         0x0000000000000000        0x8 /Users/stevefar/nacl_sdk/pepper_45/toolchain/mac_arm_newlib/bin/../lib/gcc/arm-nacl/4.9.2/../../../../arm-nacl/lib/libcrt_common.a(lib_a-s_frexp.o)
 .note.NaCl.ABI.arm
                0x0000000000000000       0x18 /Users/stevefar/nacl_sdk/pepper_45/toolchain/mac_arm_newlib/bin/../lib/gcc/arm-nacl/4.9.2/../../../../arm-nacl/lib/libcrt_common.a(lib_a-s_frexp.o)
 .note.GNU-stack
                0x0000000000000000        0x0 /Users/stevefar/nacl_sdk/pepper_45/toolchain/mac_arm_newlib/bin/../lib/gcc/arm-nacl/4.9.2/../../../../arm-nacl/lib/libcrt_common.a(lib_a-s_frexp.o)
 .group         0x0000000000000000        0x8 /Users/stevefar/nacl_sdk/pepper_45/toolchain/mac_arm_newlib/bin/../lib/gcc/arm-nacl/4.9.2/../../../../arm-nacl/lib/libcrt_common.a(lib_a-strcasecmp.o)
 .note.NaCl.ABI.arm
                0x0000000000000000       0x18 /Users/stevefar/nacl_sdk/pepper_45/toolchain/mac_arm_newlib/bin/../lib/gcc/arm-nacl/4.9.2/../../../../arm-nacl/lib/libcrt_common.a(lib_a-strcasecmp.o)
 .note.GNU-stack
                0x0000000000000000        0x0 /Users/stevefar/nacl_sdk/pepper_45/toolchain/mac_arm_newlib/bin/../lib/gcc/arm-nacl/4.9.2/../../../../arm-nacl/lib/libcrt_common.a(lib_a-strcasecmp.o)
 .group         0x0000000000000000        0x8 /Users/stevefar/nacl_sdk/pepper_45/toolchain/mac_arm_newlib/bin/../lib/gcc/arm-nacl/4.9.2/../../../../arm-nacl/lib/libcrt_common.a(lib_a-strcat.o)
 .note.NaCl.ABI.arm
                0x0000000000000000       0x18 /Users/stevefar/nacl_sdk/pepper_45/toolchain/mac_arm_newlib/bin/../lib/gcc/arm-nacl/4.9.2/../../../../arm-nacl/lib/libcrt_common.a(lib_a-strcat.o)
 .note.GNU-stack
                0x0000000000000000        0x0 /Users/stevefar/nacl_sdk/pepper_45/toolchain/mac_arm_newlib/bin/../lib/gcc/arm-nacl/4.9.2/../../../../arm-nacl/lib/libcrt_common.a(lib_a-strcat.o)
 .group         0x0000000000000000        0x8 /Users/stevefar/nacl_sdk/pepper_45/toolchain/mac_arm_newlib/bin/../lib/gcc/arm-nacl/4.9.2/../../../../arm-nacl/lib/libcrt_common.a(lib_a-strchr.o)
 .note.NaCl.ABI.arm
                0x0000000000000000       0x18 /Users/stevefar/nacl_sdk/pepper_45/toolchain/mac_arm_newlib/bin/../lib/gcc/arm-nacl/4.9.2/../../../../arm-nacl/lib/libcrt_common.a(lib_a-strchr.o)
 .note.GNU-stack
                0x0000000000000000        0x0 /Users/stevefar/nacl_sdk/pepper_45/toolchain/mac_arm_newlib/bin/../lib/gcc/arm-nacl/4.9.2/../../../../arm-nacl/lib/libcrt_common.a(lib_a-strchr.o)
 .group         0x0000000000000000        0x8 /Users/stevefar/nacl_sdk/pepper_45/toolchain/mac_arm_newlib/bin/../lib/gcc/arm-nacl/4.9.2/../../../../arm-nacl/lib/libcrt_common.a(lib_a-strcpy.o)
 .note.NaCl.ABI.arm
                0x0000000000000000       0x18 /Users/stevefar/nacl_sdk/pepper_45/toolchain/mac_arm_newlib/bin/../lib/gcc/arm-nacl/4.9.2/../../../../arm-nacl/lib/libcrt_common.a(lib_a-strcpy.o)
 .note.GNU-stack
                0x0000000000000000        0x0 /Users/stevefar/nacl_sdk/pepper_45/toolchain/mac_arm_newlib/bin/../lib/gcc/arm-nacl/4.9.2/../../../../arm-nacl/lib/libcrt_common.a(lib_a-strcpy.o)
 .group         0x0000000000000000        0x8 /Users/stevefar/nacl_sdk/pepper_45/toolchain/mac_arm_newlib/bin/../lib/gcc/arm-nacl/4.9.2/../../../../arm-nacl/lib/libcrt_common.a(lib_a-strlcpy.o)
 .note.NaCl.ABI.arm
                0x0000000000000000       0x18 /Users/stevefar/nacl_sdk/pepper_45/toolchain/mac_arm_newlib/bin/../lib/gcc/arm-nacl/4.9.2/../../../../arm-nacl/lib/libcrt_common.a(lib_a-strlcpy.o)
 .note.GNU-stack
                0x0000000000000000        0x0 /Users/stevefar/nacl_sdk/pepper_45/toolchain/mac_arm_newlib/bin/../lib/gcc/arm-nacl/4.9.2/../../../../arm-nacl/lib/libcrt_common.a(lib_a-strlcpy.o)
 .group         0x0000000000000000        0x8 /Users/stevefar/nacl_sdk/pepper_45/toolchain/mac_arm_newlib/bin/../lib/gcc/arm-nacl/4.9.2/../../../../arm-nacl/lib/libcrt_common.a(lib_a-strncasecmp.o)
 .note.NaCl.ABI.arm
                0x0000000000000000       0x18 /Users/stevefar/nacl_sdk/pepper_45/toolchain/mac_arm_newlib/bin/../lib/gcc/arm-nacl/4.9.2/../../../../arm-nacl/lib/libcrt_common.a(lib_a-strncasecmp.o)
 .note.GNU-stack
                0x0000000000000000        0x0 /Users/stevefar/nacl_sdk/pepper_45/toolchain/mac_arm_newlib/bin/../lib/gcc/arm-nacl/4.9.2/../../../../arm-nacl/lib/libcrt_common.a(lib_a-strncasecmp.o)
 .group         0x0000000000000000        0x8 /Users/stevefar/nacl_sdk/pepper_45/toolchain/mac_arm_newlib/bin/../lib/gcc/arm-nacl/4.9.2/../../../../arm-nacl/lib/libcrt_common.a(lib_a-strncpy.o)
 .note.NaCl.ABI.arm
                0x0000000000000000       0x18 /Users/stevefar/nacl_sdk/pepper_45/toolchain/mac_arm_newlib/bin/../lib/gcc/arm-nacl/4.9.2/../../../../arm-nacl/lib/libcrt_common.a(lib_a-strncpy.o)
 .note.GNU-stack
                0x0000000000000000        0x0 /Users/stevefar/nacl_sdk/pepper_45/toolchain/mac_arm_newlib/bin/../lib/gcc/arm-nacl/4.9.2/../../../../arm-nacl/lib/libcrt_common.a(lib_a-strncpy.o)
 .group         0x0000000000000000        0x8 /Users/stevefar/nacl_sdk/pepper_45/toolchain/mac_arm_newlib/bin/../lib/gcc/arm-nacl/4.9.2/../../../../arm-nacl/lib/libcrt_common.a(lib_a-strtol.o)
 .note.NaCl.ABI.arm
                0x0000000000000000       0x18 /Users/stevefar/nacl_sdk/pepper_45/toolchain/mac_arm_newlib/bin/../lib/gcc/arm-nacl/4.9.2/../../../../arm-nacl/lib/libcrt_common.a(lib_a-strtol.o)
 .note.GNU-stack
                0x0000000000000000        0x0 /Users/stevefar/nacl_sdk/pepper_45/toolchain/mac_arm_newlib/bin/../lib/gcc/arm-nacl/4.9.2/../../../../arm-nacl/lib/libcrt_common.a(lib_a-strtol.o)
 .group         0x0000000000000000        0x8 /Users/stevefar/nacl_sdk/pepper_45/toolchain/mac_arm_newlib/bin/../lib/gcc/arm-nacl/4.9.2/../../../../arm-nacl/lib/libcrt_common.a(lib_a-svfprintf.o)
 .note.NaCl.ABI.arm
                0x0000000000000000       0x18 /Users/stevefar/nacl_sdk/pepper_45/toolchain/mac_arm_newlib/bin/../lib/gcc/arm-nacl/4.9.2/../../../../arm-nacl/lib/libcrt_common.a(lib_a-svfprintf.o)
 .note.GNU-stack
                0x0000000000000000        0x0 /Users/stevefar/nacl_sdk/pepper_45/toolchain/mac_arm_newlib/bin/../lib/gcc/arm-nacl/4.9.2/../../../../arm-nacl/lib/libcrt_common.a(lib_a-svfprintf.o)
 .group         0x0000000000000000        0x8 /Users/stevefar/nacl_sdk/pepper_45/toolchain/mac_arm_newlib/bin/../lib/gcc/arm-nacl/4.9.2/../../../../arm-nacl/lib/libcrt_common.a(lib_a-vfiprintf.o)
 .note.NaCl.ABI.arm
                0x0000000000000000       0x18 /Users/stevefar/nacl_sdk/pepper_45/toolchain/mac_arm_newlib/bin/../lib/gcc/arm-nacl/4.9.2/../../../../arm-nacl/lib/libcrt_common.a(lib_a-vfiprintf.o)
 .note.GNU-stack
                0x0000000000000000        0x0 /Users/stevefar/nacl_sdk/pepper_45/toolchain/mac_arm_newlib/bin/../lib/gcc/arm-nacl/4.9.2/../../../../arm-nacl/lib/libcrt_common.a(lib_a-vfiprintf.o)
 .group         0x0000000000000000        0x8 /Users/stevefar/nacl_sdk/pepper_45/toolchain/mac_arm_newlib/bin/../lib/gcc/arm-nacl/4.9.2/../../../../arm-nacl/lib/libcrt_common.a(lib_a-wcsnrtombs.o)
 .note.NaCl.ABI.arm
                0x0000000000000000       0x18 /Users/stevefar/nacl_sdk/pepper_45/toolchain/mac_arm_newlib/bin/../lib/gcc/arm-nacl/4.9.2/../../../../arm-nacl/lib/libcrt_common.a(lib_a-wcsnrtombs.o)
 .note.GNU-stack
                0x0000000000000000        0x0 /Users/stevefar/nacl_sdk/pepper_45/toolchain/mac_arm_newlib/bin/../lib/gcc/arm-nacl/4.9.2/../../../../arm-nacl/lib/libcrt_common.a(lib_a-wcsnrtombs.o)
 .group         0x0000000000000000        0x8 /Users/stevefar/nacl_sdk/pepper_45/toolchain/mac_arm_newlib/bin/../lib/gcc/arm-nacl/4.9.2/../../../../arm-nacl/lib/libcrt_common.a(lib_a-ctype_.o)
 .note.NaCl.ABI.arm
                0x0000000000000000       0x18 /Users/stevefar/nacl_sdk/pepper_45/toolchain/mac_arm_newlib/bin/../lib/gcc/arm-nacl/4.9.2/../../../../arm-nacl/lib/libcrt_common.a(lib_a-ctype_.o)
 .note.GNU-stack
                0x0000000000000000        0x0 /Users/stevefar/nacl_sdk/pepper_45/toolchain/mac_arm_newlib/bin/../lib/gcc/arm-nacl/4.9.2/../../../../arm-nacl/lib/libcrt_common.a(lib_a-ctype_.o)
 .group         0x0000000000000000        0x8 /Users/stevefar/nacl_sdk/pepper_45/toolchain/mac_arm_newlib/bin/../lib/gcc/arm-nacl/4.9.2/../../../../arm-nacl/lib/libcrt_common.a(lib_a-fputwc.o)
 .note.NaCl.ABI.arm
                0x0000000000000000       0x18 /Users/stevefar/nacl_sdk/pepper_45/toolchain/mac_arm_newlib/bin/../lib/gcc/arm-nacl/4.9.2/../../../../arm-nacl/lib/libcrt_common.a(lib_a-fputwc.o)
 .note.GNU-stack
                0x0000000000000000        0x0 /Users/stevefar/nacl_sdk/pepper_45/toolchain/mac_arm_newlib/bin/../lib/gcc/arm-nacl/4.9.2/../../../../arm-nacl/lib/libcrt_common.a(lib_a-fputwc.o)
 .group         0x0000000000000000        0x8 /Users/stevefar/nacl_sdk/pepper_45/toolchain/mac_arm_newlib/bin/../lib/gcc/arm-nacl/4.9.2/../../../../arm-nacl/lib/libcrt_common.a(lib_a-svfiprintf.o)
 .note.NaCl.ABI.arm
                0x0000000000000000       0x18 /Users/stevefar/nacl_sdk/pepper_45/toolchain/mac_arm_newlib/bin/../lib/gcc/arm-nacl/4.9.2/../../../../arm-nacl/lib/libcrt_common.a(lib_a-svfiprintf.o)
 .note.GNU-stack
                0x0000000000000000        0x0 /Users/stevefar/nacl_sdk/pepper_45/toolchain/mac_arm_newlib/bin/../lib/gcc/arm-nacl/4.9.2/../../../../arm-nacl/lib/libcrt_common.a(lib_a-svfiprintf.o)
 .group         0x0000000000000000        0x8 /Users/stevefar/nacl_sdk/pepper_45/toolchain/mac_arm_newlib/bin/../lib/gcc/arm-nacl/4.9.2/../../../../arm-nacl/lib/libcrt_common.a(lib_a-wbuf.o)
 .note.NaCl.ABI.arm
                0x0000000000000000       0x18 /Users/stevefar/nacl_sdk/pepper_45/toolchain/mac_arm_newlib/bin/../lib/gcc/arm-nacl/4.9.2/../../../../arm-nacl/lib/libcrt_common.a(lib_a-wbuf.o)
 .note.GNU-stack
                0x0000000000000000        0x0 /Users/stevefar/nacl_sdk/pepper_45/toolchain/mac_arm_newlib/bin/../lib/gcc/arm-nacl/4.9.2/../../../../arm-nacl/lib/libcrt_common.a(lib_a-wbuf.o)
 .group         0x0000000000000000        0x8 /Users/stevefar/nacl_sdk/pepper_45/toolchain/mac_arm_newlib/bin/../lib/gcc/arm-nacl/4.9.2/../../../../arm-nacl/lib/libnacl.a(close_e9b92fbd.o)
 .note.NaCl.ABI.arm
                0x0000000000000000       0x18 /Users/stevefar/nacl_sdk/pepper_45/toolchain/mac_arm_newlib/bin/../lib/gcc/arm-nacl/4.9.2/../../../../arm-nacl/lib/libnacl.a(close_e9b92fbd.o)
 .note.GNU-stack
                0x0000000000000000        0x0 /Users/stevefar/nacl_sdk/pepper_45/toolchain/mac_arm_newlib/bin/../lib/gcc/arm-nacl/4.9.2/../../../../arm-nacl/lib/libnacl.a(close_e9b92fbd.o)
 .group         0x0000000000000000        0x8 /Users/stevefar/nacl_sdk/pepper_45/toolchain/mac_arm_newlib/bin/../lib/gcc/arm-nacl/4.9.2/../../../../arm-nacl/lib/libnacl.a(isatty_02f56e94.o)
 .note.NaCl.ABI.arm
                0x0000000000000000       0x18 /Users/stevefar/nacl_sdk/pepper_45/toolchain/mac_arm_newlib/bin/../lib/gcc/arm-nacl/4.9.2/../../../../arm-nacl/lib/libnacl.a(isatty_02f56e94.o)
 .note.GNU-stack
                0x0000000000000000        0x0 /Users/stevefar/nacl_sdk/pepper_45/toolchain/mac_arm_newlib/bin/../lib/gcc/arm-nacl/4.9.2/../../../../arm-nacl/lib/libnacl.a(isatty_02f56e94.o)
 .group         0x0000000000000000        0x8 /Users/stevefar/nacl_sdk/pepper_45/toolchain/mac_arm_newlib/bin/../lib/gcc/arm-nacl/4.9.2/../../../../arm-nacl/lib/libnacl.a(nacl_irt_fdio_b571b5e7.o)
 .note.NaCl.ABI.arm
                0x0000000000000000       0x18 /Users/stevefar/nacl_sdk/pepper_45/toolchain/mac_arm_newlib/bin/../lib/gcc/arm-nacl/4.9.2/../../../../arm-nacl/lib/libnacl.a(nacl_irt_fdio_b571b5e7.o)
 .note.GNU-stack
                0x0000000000000000        0x0 /Users/stevefar/nacl_sdk/pepper_45/toolchain/mac_arm_newlib/bin/../lib/gcc/arm-nacl/4.9.2/../../../../arm-nacl/lib/libnacl.a(nacl_irt_fdio_b571b5e7.o)
 .group         0x0000000000000000        0x8 /Users/stevefar/nacl_sdk/pepper_45/toolchain/mac_arm_newlib/bin/../lib/gcc/arm-nacl/4.9.2/../../../../arm-nacl/lib/libnacl.a(fstat_0540ff63.o)
 .note.NaCl.ABI.arm
                0x0000000000000000       0x18 /Users/stevefar/nacl_sdk/pepper_45/toolchain/mac_arm_newlib/bin/../lib/gcc/arm-nacl/4.9.2/../../../../arm-nacl/lib/libnacl.a(fstat_0540ff63.o)
 .note.GNU-stack
                0x0000000000000000        0x0 /Users/stevefar/nacl_sdk/pepper_45/toolchain/mac_arm_newlib/bin/../lib/gcc/arm-nacl/4.9.2/../../../../arm-nacl/lib/libnacl.a(fstat_0540ff63.o)
 .group         0x0000000000000000        0x8 /Users/stevefar/nacl_sdk/pepper_45/toolchain/mac_arm_newlib/bin/../lib/gcc/arm-nacl/4.9.2/../../../../arm-nacl/lib/libnacl.a(lseek_64d2d05c.o)
 .note.NaCl.ABI.arm
                0x0000000000000000       0x18 /Users/stevefar/nacl_sdk/pepper_45/toolchain/mac_arm_newlib/bin/../lib/gcc/arm-nacl/4.9.2/../../../../arm-nacl/lib/libnacl.a(lseek_64d2d05c.o)
 .note.GNU-stack
                0x0000000000000000        0x0 /Users/stevefar/nacl_sdk/pepper_45/toolchain/mac_arm_newlib/bin/../lib/gcc/arm-nacl/4.9.2/../../../../arm-nacl/lib/libnacl.a(lseek_64d2d05c.o)
 .group         0x0000000000000000        0x8 /Users/stevefar/nacl_sdk/pepper_45/toolchain/mac_arm_newlib/bin/../lib/gcc/arm-nacl/4.9.2/../../../../arm-nacl/lib/libnacl.a(read_df872e10.o)
 .note.NaCl.ABI.arm
                0x0000000000000000       0x18 /Users/stevefar/nacl_sdk/pepper_45/toolchain/mac_arm_newlib/bin/../lib/gcc/arm-nacl/4.9.2/../../../../arm-nacl/lib/libnacl.a(read_df872e10.o)
 .note.GNU-stack
                0x0000000000000000        0x0 /Users/stevefar/nacl_sdk/pepper_45/toolchain/mac_arm_newlib/bin/../lib/gcc/arm-nacl/4.9.2/../../../../arm-nacl/lib/libnacl.a(read_df872e10.o)
 .group         0x0000000000000000        0x8 /Users/stevefar/nacl_sdk/pepper_45/toolchain/mac_arm_newlib/bin/../lib/gcc/arm-nacl/4.9.2/../../../../arm-nacl/lib/libnacl.a(nanosleep_e59fdef1.o)
 .note.NaCl.ABI.arm
                0x0000000000000000       0x18 /Users/stevefar/nacl_sdk/pepper_45/toolchain/mac_arm_newlib/bin/../lib/gcc/arm-nacl/4.9.2/../../../../arm-nacl/lib/libnacl.a(nanosleep_e59fdef1.o)
 .note.GNU-stack
                0x0000000000000000        0x0 /Users/stevefar/nacl_sdk/pepper_45/toolchain/mac_arm_newlib/bin/../lib/gcc/arm-nacl/4.9.2/../../../../arm-nacl/lib/libnacl.a(nanosleep_e59fdef1.o)
 .group         0x0000000000000000        0x8 /Users/stevefar/nacl_sdk/pepper_45/toolchain/mac_arm_newlib/bin/../lib/gcc/arm-nacl/4.9.2/libgcc.a(_udivsi3.o)
 .note.NaCl.ABI.arm
                0x0000000000000000       0x18 /Users/stevefar/nacl_sdk/pepper_45/toolchain/mac_arm_newlib/bin/../lib/gcc/arm-nacl/4.9.2/libgcc.a(_udivsi3.o)
 .note.GNU-stack
                0x0000000000000000        0x0 /Users/stevefar/nacl_sdk/pepper_45/toolchain/mac_arm_newlib/bin/../lib/gcc/arm-nacl/4.9.2/libgcc.a(_udivsi3.o)
 .group         0x0000000000000000        0x8 /Users/stevefar/nacl_sdk/pepper_45/toolchain/mac_arm_newlib/bin/../lib/gcc/arm-nacl/4.9.2/libgcc.a(_divsi3.o)
 .note.NaCl.ABI.arm
                0x0000000000000000       0x18 /Users/stevefar/nacl_sdk/pepper_45/toolchain/mac_arm_newlib/bin/../lib/gcc/arm-nacl/4.9.2/libgcc.a(_divsi3.o)
 .note.GNU-stack
                0x0000000000000000        0x0 /Users/stevefar/nacl_sdk/pepper_45/toolchain/mac_arm_newlib/bin/../lib/gcc/arm-nacl/4.9.2/libgcc.a(_divsi3.o)
 .group         0x0000000000000000        0x8 /Users/stevefar/nacl_sdk/pepper_45/toolchain/mac_arm_newlib/bin/../lib/gcc/arm-nacl/4.9.2/libgcc.a(_aeabi_uldivmod.o)
 .note.NaCl.ABI.arm
                0x0000000000000000       0x18 /Users/stevefar/nacl_sdk/pepper_45/toolchain/mac_arm_newlib/bin/../lib/gcc/arm-nacl/4.9.2/libgcc.a(_aeabi_uldivmod.o)
 .note.GNU-stack
                0x0000000000000000        0x0 /Users/stevefar/nacl_sdk/pepper_45/toolchain/mac_arm_newlib/bin/../lib/gcc/arm-nacl/4.9.2/libgcc.a(_aeabi_uldivmod.o)
 .group         0x0000000000000000        0x8 /Users/stevefar/nacl_sdk/pepper_45/toolchain/mac_arm_newlib/bin/../lib/gcc/arm-nacl/4.9.2/libgcc.a(_dvmd_nacl.o)
 .note.NaCl.ABI.arm
                0x0000000000000000       0x18 /Users/stevefar/nacl_sdk/pepper_45/toolchain/mac_arm_newlib/bin/../lib/gcc/arm-nacl/4.9.2/libgcc.a(_dvmd_nacl.o)
 .note.GNU-stack
                0x0000000000000000        0x0 /Users/stevefar/nacl_sdk/pepper_45/toolchain/mac_arm_newlib/bin/../lib/gcc/arm-nacl/4.9.2/libgcc.a(_dvmd_nacl.o)
 .group         0x0000000000000000        0x8 /Users/stevefar/nacl_sdk/pepper_45/toolchain/mac_arm_newlib/bin/../lib/gcc/arm-nacl/4.9.2/libgcc.a(bpabi.o)
 .note.NaCl.ABI.arm
                0x0000000000000000       0x18 /Users/stevefar/nacl_sdk/pepper_45/toolchain/mac_arm_newlib/bin/../lib/gcc/arm-nacl/4.9.2/libgcc.a(bpabi.o)
 .note.GNU-stack
                0x0000000000000000        0x0 /Users/stevefar/nacl_sdk/pepper_45/toolchain/mac_arm_newlib/bin/../lib/gcc/arm-nacl/4.9.2/libgcc.a(bpabi.o)
 .group         0x0000000000000000        0x8 /Users/stevefar/nacl_sdk/pepper_45/toolchain/mac_arm_newlib/bin/../lib/gcc/arm-nacl/4.9.2/libgcc.a(_divdi3.o)
 .note.NaCl.ABI.arm
                0x0000000000000000       0x18 /Users/stevefar/nacl_sdk/pepper_45/toolchain/mac_arm_newlib/bin/../lib/gcc/arm-nacl/4.9.2/libgcc.a(_divdi3.o)
 .note.GNU-stack
                0x0000000000000000        0x0 /Users/stevefar/nacl_sdk/pepper_45/toolchain/mac_arm_newlib/bin/../lib/gcc/arm-nacl/4.9.2/libgcc.a(_divdi3.o)
 .group         0x0000000000000000        0x8 /Users/stevefar/nacl_sdk/pepper_45/toolchain/mac_arm_newlib/bin/../lib/gcc/arm-nacl/4.9.2/libgcc.a(_udivdi3.o)
 .note.NaCl.ABI.arm
                0x0000000000000000       0x18 /Users/stevefar/nacl_sdk/pepper_45/toolchain/mac_arm_newlib/bin/../lib/gcc/arm-nacl/4.9.2/libgcc.a(_udivdi3.o)
 .note.GNU-stack
                0x0000000000000000        0x0 /Users/stevefar/nacl_sdk/pepper_45/toolchain/mac_arm_newlib/bin/../lib/gcc/arm-nacl/4.9.2/libgcc.a(_udivdi3.o)
 .group         0x0000000000000000        0x8 /Users/stevefar/nacl_sdk/pepper_45/toolchain/mac_arm_newlib/bin/../lib/gcc/arm-nacl/4.9.2/crtend.o
 .note.NaCl.ABI.arm
                0x0000000000000000       0x18 /Users/stevefar/nacl_sdk/pepper_45/toolchain/mac_arm_newlib/bin/../lib/gcc/arm-nacl/4.9.2/crtend.o
 .note.GNU-stack
                0x0000000000000000        0x0 /Users/stevefar/nacl_sdk/pepper_45/toolchain/mac_arm_newlib/bin/../lib/gcc/arm-nacl/4.9.2/crtend.o
 .group         0x0000000000000000        0x8 /Users/stevefar/nacl_sdk/pepper_45/toolchain/mac_arm_newlib/bin/../lib/gcc/arm-nacl/4.9.2/../../../../arm-nacl/lib/crtn.o
 .note.NaCl.ABI.arm
                0x0000000000000000       0x18 /Users/stevefar/nacl_sdk/pepper_45/toolchain/mac_arm_newlib/bin/../lib/gcc/arm-nacl/4.9.2/../../../../arm-nacl/lib/crtn.o

Memory Configuration

Name             Origin             Length             Attributes
*default*        0x0000000000000000 0xffffffffffffffff

Linker script and memory map

LOAD /Users/stevefar/nacl_sdk/pepper_45/toolchain/mac_arm_newlib/bin/../lib/gcc/arm-nacl/4.9.2/../../../../arm-nacl/lib/crt1.o
LOAD /Users/stevefar/nacl_sdk/pepper_45/toolchain/mac_arm_newlib/bin/../lib/gcc/arm-nacl/4.9.2/../../../../arm-nacl/lib/crti.o
LOAD /Users/stevefar/nacl_sdk/pepper_45/toolchain/mac_arm_newlib/bin/../lib/gcc/arm-nacl/4.9.2/crtbegin.o
LOAD newlib/Release/debugging_arm.o
LOAD /Users/stevefar/nacl_sdk/pepper_45/lib/newlib_arm/Release/liberror_handling.a
LOAD /Users/stevefar/nacl_sdk/pepper_45/toolchain/mac_arm_newlib/bin/../lib/gcc/arm-nacl/4.9.2/../../../../arm-nacl/lib/libppapi.a
LOAD /Users/stevefar/nacl_sdk/pepper_45/toolchain/mac_arm_newlib/bin/../lib/gcc/arm-nacl/4.9.2/../../../../arm-nacl/lib/libppapi_stub.a
LOAD /Users/stevefar/nacl_sdk/pepper_45/toolchain/mac_arm_newlib/bin/../lib/gcc/arm-nacl/4.9.2/../../../../arm-nacl/lib/libpthread.a
LOAD /Users/stevefar/nacl_sdk/pepper_45/toolchain/mac_arm_newlib/bin/../lib/gcc/arm-nacl/4.9.2/../../../../arm-nacl/lib/libstdc++.a
LOAD /Users/stevefar/nacl_sdk/pepper_45/toolchain/mac_arm_newlib/bin/../lib/gcc/arm-nacl/4.9.2/../../../../arm-nacl/lib/libm.a
START GROUP
LOAD /Users/stevefar/nacl_sdk/pepper_45/toolchain/mac_arm_newlib/bin/../lib/gcc/arm-nacl/4.9.2/libgcc.a
LOAD /Users/stevefar/nacl_sdk/pepper_45/toolchain/mac_arm_newlib/bin/../lib/gcc/arm-nacl/4.9.2/../../../../arm-nacl/lib/libpthread.a
LOAD /Users/stevefar/nacl_sdk/pepper_45/toolchain/mac_arm_newlib/bin/../lib/gcc/arm-nacl/4.9.2/../../../../arm-nacl/lib/libc.a
START GROUP
LOAD /Users/stevefar/nacl_sdk/pepper_45/toolchain/mac_arm_newlib/bin/../lib/gcc/arm-nacl/4.9.2/../../../../arm-nacl/lib/libnacl.a
LOAD /Users/stevefar/nacl_sdk/pepper_45/toolchain/mac_arm_newlib/bin/../lib/gcc/arm-nacl/4.9.2/../../../../arm-nacl/lib/libcrt_common.a
END GROUP
END GROUP
LOAD /Users/stevefar/nacl_sdk/pepper_45/toolchain/mac_arm_newlib/bin/../lib/gcc/arm-nacl/4.9.2/crtend.o
LOAD /Users/stevefar/nacl_sdk/pepper_45/toolchain/mac_arm_newlib/bin/../lib/gcc/arm-nacl/4.9.2/../../../../arm-nacl/lib/crtn.o
                0x0000000000020000                PROVIDE (__executable_start, 0x20000)
                0x0000000000020000                . = 0x20000

.init           0x0000000000020000       0x10
 *(SORT(.init))
 .init          0x0000000000020000        0x0 /Users/stevefar/nacl_sdk/pepper_45/toolchain/mac_arm_newlib/bin/../lib/gcc/arm-nacl/4.9.2/../../../../arm-nacl/lib/crti.o
                0x0000000000020000                _init
 .init          0x0000000000020000       0x10 /Users/stevefar/nacl_sdk/pepper_45/toolchain/mac_arm_newlib/bin/../lib/gcc/arm-nacl/4.9.2/../../../../arm-nacl/lib/crtn.o

.plt
 *(.plt)

.iplt           0x0000000000020010        0x0
 *(.iplt)
 .iplt          0x0000000000020010        0x0 /Users/stevefar/nacl_sdk/pepper_45/toolchain/mac_arm_newlib/bin/../lib/gcc/arm-nacl/4.9.2/crtbegin.o

.text           0x0000000000020040    0x254f0
 *(.text.unlikely .text.*_unlikely .text.unlikely.*)
 .text.unlikely
                0x0000000000020040       0x40 /Users/stevefar/nacl_sdk/pepper_45/toolchain/mac_arm_newlib/bin/../lib/gcc/arm-nacl/4.9.2/../../../../arm-nacl/lib/libppapi_stub.a(ppapi_plugin_start_8da67623.o)
 *(.text.exit .text.exit.*)
 *(.text.startup .text.startup.*)
 .text.startup  0x0000000000020080       0x10 /Users/stevefar/nacl_sdk/pepper_45/toolchain/mac_arm_newlib/bin/../lib/gcc/arm-nacl/4.9.2/../../../../arm-nacl/lib/libppapi_stub.a(plugin_main_irt_21ce9d26.o)
                0x0000000000020080                main
 *(.text.hot .text.hot.*)
 *(.text .stub .text.* .gnu.linkonce.t.*)
 .text          0x0000000000020090        0x0 /Users/stevefar/nacl_sdk/pepper_45/toolchain/mac_arm_newlib/bin/../lib/gcc/arm-nacl/4.9.2/../../../../arm-nacl/lib/crti.o
 .text          0x0000000000020090      0x1d0 /Users/stevefar/nacl_sdk/pepper_45/toolchain/mac_arm_newlib/bin/../lib/gcc/arm-nacl/4.9.2/crtbegin.o
 .text          0x0000000000020260      0x830 newlib/Release/debugging_arm.o
                0x00000000000202f0                layer5
                0x0000000000020330                layer4
                0x0000000000020370                layer3
                0x00000000000203d0                layer2
                0x0000000000020420                layer1
                0x00000000000204b0                PostMessage
                0x00000000000206a0                NexeMain
                0x00000000000206e0                DumpJson
                0x0000000000020910                PPP_InitializeModule
                0x00000000000209c0                PPP_GetInterface
                0x0000000000020a70                PPP_ShutdownModule
 .text          0x0000000000020a90      0x920 /Users/stevefar/nacl_sdk/pepper_45/lib/newlib_arm/Release/liberror_handling.a(error_handling_arm.o)
                0x0000000000020ae0                EHGetTopFrame
                0x0000000000020b30                EHUnwindFrame
                0x0000000000020bb0                EHDefaultJsonHandler
                0x0000000000020f60                EHRequestExceptionsRaw
                0x0000000000021120                EHRequestExceptionStackOnThread
                0x0000000000021320                EHRequestExceptionsJson
                0x0000000000021390                EHHanderInstalled
 .text          0x00000000000213b0      0x200 /Users/stevefar/nacl_sdk/pepper_45/lib/newlib_arm/Release/liberror_handling.a(string_stream_arm.o)
                0x00000000000213b0                ssinit
                0x00000000000213d0                ssfree
                0x0000000000021430                ssvprintf
                0x0000000000021560                ssprintf
 .text          0x00000000000215b0        0x0 /Users/stevefar/nacl_sdk/pepper_45/toolchain/mac_arm_newlib/bin/../lib/gcc/arm-nacl/4.9.2/../../../../arm-nacl/lib/libppapi_stub.a(plugin_main_irt_21ce9d26.o)
 .text          0x00000000000215b0       0x20 /Users/stevefar/nacl_sdk/pepper_45/toolchain/mac_arm_newlib/bin/../lib/gcc/arm-nacl/4.9.2/../../../../arm-nacl/lib/libppapi_stub.a(ppapi_plugin_main_399d0cf7.o)
                0x00000000000215b0                PpapiPluginMain
 .text          0x00000000000215d0      0x170 /Users/stevefar/nacl_sdk/pepper_45/toolchain/mac_arm_newlib/bin/../lib/gcc/arm-nacl/4.9.2/../../../../arm-nacl/lib/libppapi_stub.a(ppapi_plugin_start_8da67623.o)
                0x00000000000215d0                PpapiPluginStart
 .text          0x0000000000021740       0x50 /Users/stevefar/nacl_sdk/pepper_45/toolchain/mac_arm_newlib/bin/../lib/gcc/arm-nacl/4.9.2/../../../../arm-nacl/lib/libppapi_stub.a(thread_creator_ccf263e1.o)
                0x0000000000021760                __nacl_register_thread_creator
 .text          0x0000000000021790     0x1b90 /Users/stevefar/nacl_sdk/pepper_45/toolchain/mac_arm_newlib/bin/../lib/gcc/arm-nacl/4.9.2/../../../../arm-nacl/lib/libpthread.a(nc_thread_7e478b15.o)
                0x0000000000021aa0                __nc_initialize_globals
                0x0000000000021ba0                __nc_initialize_unjoinable_thread
                0x0000000000021bf0                __pthread_initialize
                0x0000000000021c70                pthread_create
                0x0000000000022010                pthread_cleanup_push
                0x00000000000220a0                pthread_cleanup_pop
                0x0000000000022160                pthread_join
                0x0000000000022310                pthread_detach
                0x00000000000223d0                pthread_kill
                0x00000000000223e0                pthread_self
                0x0000000000022430                pthread_equal
                0x0000000000022450                pthread_setschedprio
                0x00000000000224d0                pthread_attr_init
                0x0000000000022500                pthread_attr_destroy
                0x0000000000022520                pthread_attr_setdetachstate
                0x0000000000022540                pthread_attr_getdetachstate
                0x0000000000022560                pthread_attr_setscope
                0x00000000000225a0                pthread_attr_getscope
                0x00000000000225c0                pthread_attr_setstacksize
                0x0000000000022600                pthread_attr_getstacksize
                0x0000000000022630                __local_lock_init
                0x00000000000226a0                __local_lock_init_recursive
                0x0000000000022710                __local_lock_close
                0x0000000000022730                __local_lock_close_recursive
                0x0000000000022750                __local_lock_acquire
                0x0000000000022780                __local_lock_acquire_recursive
                0x00000000000227b0                __local_lock_try_acquire
                0x0000000000022800                __local_lock_try_acquire_recursive
                0x0000000000022850                __local_lock_release
                0x0000000000022880                __local_lock_release_recursive
                0x00000000000228b0                pthread_key_create
                0x00000000000229a0                pthread_key_delete
                0x0000000000022a50                pthread_setspecific
                0x0000000000022b70                pthread_getspecific
                0x0000000000022c10                __nc_tsd_exit
                0x0000000000022d90                pthread_exit
 .text          0x0000000000023320      0x2e0 /Users/stevefar/nacl_sdk/pepper_45/toolchain/mac_arm_newlib/bin/../lib/gcc/arm-nacl/4.9.2/../../../../arm-nacl/lib/libpthread.a(nc_condvar_305aa45a.o)
                0x0000000000023320                pthread_cond_init
                0x0000000000023340                pthread_cond_destroy
                0x0000000000023350                pthread_cond_signal
                0x00000000000233e0                pthread_cond_broadcast
                0x0000000000023470                pthread_cond_timedwait_abs
                0x0000000000023550                pthread_cond_wait
                0x0000000000023560                pthread_condattr_init
                0x0000000000023570                pthread_condattr_destroy
                0x0000000000023580                pthread_condattr_getpshared
                0x00000000000235a0                pthread_condattr_setpshared
                0x00000000000235c0                pthread_condattr_getclock
                0x00000000000235e0                pthread_condattr_setclock
 .text          0x0000000000023600      0x300 /Users/stevefar/nacl_sdk/pepper_45/toolchain/mac_arm_newlib/bin/../lib/gcc/arm-nacl/4.9.2/../../../../arm-nacl/lib/libpthread.a(dynamic_annotations_33ba59cc.o)
                0x0000000000023600                NACL_AnnotateRWLockCreate
                0x0000000000023610                NACL_AnnotateRWLockDestroy
                0x0000000000023620                NACL_AnnotateRWLockAcquired
                0x0000000000023630                NACL_AnnotateRWLockReleased
                0x0000000000023640                NACL_AnnotateBarrierInit
                0x0000000000023650                NACL_AnnotateBarrierWaitBefore
                0x0000000000023660                NACL_AnnotateBarrierWaitAfter
                0x0000000000023670                NACL_AnnotateBarrierDestroy
                0x0000000000023680                NACL_AnnotateCondVarWait
                0x0000000000023690                NACL_AnnotateCondVarSignal
                0x00000000000236a0                NACL_AnnotateCondVarSignalAll
                0x00000000000236b0                NACL_AnnotateHappensBefore
                0x00000000000236c0                NACL_AnnotateHappensAfter
                0x00000000000236d0                NACL_AnnotatePublishMemoryRange
                0x00000000000236e0                NACL_AnnotateUnpublishMemoryRange
                0x00000000000236f0                NACL_AnnotatePCQCreate
                0x0000000000023700                NACL_AnnotatePCQDestroy
                0x0000000000023710                NACL_AnnotatePCQPut
                0x0000000000023720                NACL_AnnotatePCQGet
                0x0000000000023730                NACL_AnnotateNewMemory
                0x0000000000023740                NACL_AnnotateExpectRace
                0x0000000000023750                NACL_AnnotateFlushExpectedRaces
                0x0000000000023760                NACL_AnnotateBenignRace
                0x0000000000023770                NACL_AnnotateBenignRaceSized
                0x0000000000023780                NACL_AnnotateMutexIsUsedAsCondVar
                0x0000000000023790                NACL_AnnotateMutexIsNotPHB
                0x00000000000237a0                NACL_AnnotateTraceMemory
                0x00000000000237b0                NACL_AnnotateThreadName
                0x00000000000237c0                NACL_AnnotateIgnoreReadsBegin
                0x00000000000237d0                NACL_AnnotateIgnoreReadsEnd
                0x00000000000237e0                NACL_AnnotateIgnoreWritesBegin
                0x00000000000237f0                NACL_AnnotateIgnoreWritesEnd
                0x0000000000023800                NACL_AnnotateIgnoreSyncBegin
                0x0000000000023810                NACL_AnnotateIgnoreSyncEnd
                0x0000000000023820                NACL_AnnotateEnableRaceDetection
                0x0000000000023830                NACL_AnnotateNoOp
                0x0000000000023840                NACL_AnnotateFlushState
                0x0000000000023850                RunningOnValgrind
 .text          0x0000000000023900      0x6b0 /Users/stevefar/nacl_sdk/pepper_45/toolchain/mac_arm_newlib/bin/../lib/gcc/arm-nacl/4.9.2/../../../../arm-nacl/lib/libpthread.a(nc_mutex_86341ae1.o)
                0x0000000000023bb0                pthread_mutex_init
                0x0000000000023c00                pthread_mutex_destroy
                0x0000000000023c60                pthread_mutex_trylock
                0x0000000000023c70                pthread_mutex_lock
                0x0000000000023c80                pthread_mutex_timedlock
                0x0000000000023c90                pthread_mutex_unlock
                0x0000000000023e20                pthread_once
                0x0000000000023f00                pthread_mutexattr_init
                0x0000000000023f20                pthread_mutexattr_destroy
                0x0000000000023f30                pthread_mutexattr_settype
                0x0000000000023f50                pthread_mutexattr_gettype
                0x0000000000023f70                pthread_mutexattr_setpshared
                0x0000000000023f90                pthread_mutexattr_getpshared
 .text          0x0000000000023fb0       0x60 /Users/stevefar/nacl_sdk/pepper_45/toolchain/mac_arm_newlib/bin/../lib/gcc/arm-nacl/4.9.2/../../../../arm-nacl/lib/libpthread.a(nc_init_irt_d3daafc0.o)
                0x0000000000023fb0                __nc_initialize_interfaces
 .text          0x0000000000024010     0x1dc0 /Users/stevefar/nacl_sdk/pepper_45/toolchain/mac_arm_newlib/bin/../lib/gcc/arm-nacl/4.9.2/libgcc.a(unwind-arm.o)
                0x00000000000248b0                _Unwind_GetCFA
                0x00000000000248c0                __gnu_Unwind_RaiseException
                0x0000000000024a20                __gnu_Unwind_ForcedUnwind
                0x0000000000024a60                __gnu_Unwind_Resume
                0x0000000000024b30                __gnu_Unwind_Resume_or_Rethrow
                0x0000000000024b70                _Unwind_Complete
                0x0000000000024b80                _Unwind_DeleteException
                0x0000000000024bb0                _Unwind_VRS_Get
                0x0000000000024c80                _Unwind_VRS_Set
                0x0000000000024d60                __gnu_Unwind_Backtrace
                0x0000000000025660                __aeabi_unwind_cpp_pr0
                0x0000000000025670                __aeabi_unwind_cpp_pr1
                0x0000000000025680                __aeabi_unwind_cpp_pr2
                0x0000000000025690                _Unwind_VRS_Pop
 .text          0x0000000000025dd0      0x220 /Users/stevefar/nacl_sdk/pepper_45/toolchain/mac_arm_newlib/bin/../lib/gcc/arm-nacl/4.9.2/libgcc.a(libunwind.o)
                0x0000000000025dd0                __restore_core_regs
                0x0000000000025dd0                restore_core_regs
                0x0000000000025e10                __gnu_Unwind_Restore_VFP
                0x0000000000025e20                __gnu_Unwind_Save_VFP
                0x0000000000025e30                __gnu_Unwind_Restore_VFP_D
                0x0000000000025e40                __gnu_Unwind_Save_VFP_D
                0x0000000000025e50                __gnu_Unwind_Restore_VFP_D_16_to_31
                0x0000000000025e60                __gnu_Unwind_Save_VFP_D_16_to_31
                0x0000000000025e70                __gnu_Unwind_Restore_WMMXD
                0x0000000000025e80                __gnu_Unwind_Save_WMMXD
                0x0000000000025e90                __gnu_Unwind_Restore_WMMXC
                0x0000000000025ea0                __gnu_Unwind_Save_WMMXC
                0x0000000000025eb0                _Unwind_RaiseException
                0x0000000000025eb0                ___Unwind_RaiseException
                0x0000000000025ef0                ___Unwind_Resume
                0x0000000000025ef0                _Unwind_Resume
                0x0000000000025f30                ___Unwind_Resume_or_Rethrow
                0x0000000000025f30                _Unwind_Resume_or_Rethrow
                0x0000000000025f70                _Unwind_ForcedUnwind
                0x0000000000025f70                ___Unwind_ForcedUnwind
                0x0000000000025fb0                _Unwind_Backtrace
                0x0000000000025fb0                ___Unwind_Backtrace
 .text          0x0000000000025ff0      0x860 /Users/stevefar/nacl_sdk/pepper_45/toolchain/mac_arm_newlib/bin/../lib/gcc/arm-nacl/4.9.2/libgcc.a(pr-support.o)
                0x0000000000026100                __gnu_unwind_execute
                0x00000000000266f0                __gnu_unwind_frame
                0x0000000000026760                _Unwind_GetRegionStart
                0x00000000000267b0                _Unwind_GetLanguageSpecificData
                0x0000000000026810                _Unwind_GetDataRelBase
                0x0000000000026830                _Unwind_GetTextRelBase
 .text          0x0000000000026850       0x40 /Users/stevefar/nacl_sdk/pepper_45/toolchain/mac_arm_newlib/bin/../lib/gcc/arm-nacl/4.9.2/../../../../arm-nacl/lib/libnacl.a(_exit_710c7d0d.o)
                0x0000000000026850                _exit
 .text          0x0000000000026890       0x40 /Users/stevefar/nacl_sdk/pepper_45/toolchain/mac_arm_newlib/bin/../lib/gcc/arm-nacl/4.9.2/../../../../arm-nacl/lib/libnacl.a(abort_9f6b5845.o)
                0x0000000000026890                abort
 .text          0x00000000000268d0        0x0 /Users/stevefar/nacl_sdk/pepper_45/toolchain/mac_arm_newlib/bin/../lib/gcc/arm-nacl/4.9.2/../../../../arm-nacl/lib/libnacl.a(environ_25cd24d8.o)
 .text          0x00000000000268d0     0x65e0 /Users/stevefar/nacl_sdk/pepper_45/toolchain/mac_arm_newlib/bin/../lib/gcc/arm-nacl/4.9.2/../../../../arm-nacl/lib/libnacl.a(malloc_222c4a1e.o)
                0x00000000000285e0                malloc
                0x000000000002afd0                free
                0x000000000002bc30                calloc
                0x000000000002bcf0                realloc
                0x000000000002bef0                realloc_in_place
                0x000000000002c060                memalign
                0x000000000002c080                posix_memalign
                0x000000000002c180                valloc
                0x000000000002c1e0                pvalloc
                0x000000000002c240                independent_calloc
                0x000000000002c290                independent_comalloc
                0x000000000002c2a0                bulk_free
                0x000000000002c4e0                malloc_trim
                0x000000000002c610                malloc_footprint
                0x000000000002c630                malloc_max_footprint
                0x000000000002c650                malloc_footprint_limit
                0x000000000002c670                malloc_set_footprint_limit
                0x000000000002c6c0                mallinfo
                0x000000000002c9b0                malloc_stats
                0x000000000002ccf0                mallopt
                0x000000000002ce20                malloc_usable_size
                0x000000000002ce70                _malloc_r
                0x000000000002ce80                _calloc_r
                0x000000000002ce90                _realloc_r
                0x000000000002cea0                _free_r
 .text          0x000000000002ceb0      0x2a0 /Users/stevefar/nacl_sdk/pepper_45/toolchain/mac_arm_newlib/bin/../lib/gcc/arm-nacl/4.9.2/../../../../arm-nacl/lib/libnacl.a(nacl_irt_6de1d53f.o)
                0x000000000002cfc0                __libnacl_irt_query
                0x000000000002d040                __libnacl_mandatory_irt_query
                0x000000000002d0a0                __libnacl_irt_init_fn
 .text          0x000000000002d150       0xc0 /Users/stevefar/nacl_sdk/pepper_45/toolchain/mac_arm_newlib/bin/../lib/gcc/arm-nacl/4.9.2/../../../../arm-nacl/lib/libnacl.a(pthread_initialize_minimal_4b6e776b.o)
                0x000000000002d150                __pthread_initialize_minimal
 .text          0x000000000002d210       0x10 /Users/stevefar/nacl_sdk/pepper_45/toolchain/mac_arm_newlib/bin/../lib/gcc/arm-nacl/4.9.2/../../../../arm-nacl/lib/libnacl.a(nacl_read_tp_5748ac47.o)
                0x000000000002d210                __nacl_read_tp
 .text          0x000000000002d220       0x30 /Users/stevefar/nacl_sdk/pepper_45/toolchain/mac_arm_newlib/bin/../lib/gcc/arm-nacl/4.9.2/../../../../arm-nacl/lib/libnacl.a(nacl_interface_query_ef8a99f1.o)
                0x000000000002d220                nacl_interface_query
 .text          0x000000000002d250       0xc0 /Users/stevefar/nacl_sdk/pepper_45/toolchain/mac_arm_newlib/bin/../lib/gcc/arm-nacl/4.9.2/../../../../arm-nacl/lib/libnacl.a(mmap_767fb080.o)
                0x000000000002d250                mmap
 .text          0x000000000002d310       0x80 /Users/stevefar/nacl_sdk/pepper_45/toolchain/mac_arm_newlib/bin/../lib/gcc/arm-nacl/4.9.2/../../../../arm-nacl/lib/libnacl.a(sched_yield_56c375be.o)
                0x000000000002d310                sched_yield
 .text          0x000000000002d390      0x120 /Users/stevefar/nacl_sdk/pepper_45/toolchain/mac_arm_newlib/bin/../lib/gcc/arm-nacl/4.9.2/../../../../arm-nacl/lib/libnacl.a(start_fa9ef7de.o)
                0x000000000002d390                _start
 .text          0x000000000002d4b0       0x80 /Users/stevefar/nacl_sdk/pepper_45/toolchain/mac_arm_newlib/bin/../lib/gcc/arm-nacl/4.9.2/../../../../arm-nacl/lib/libnacl.a(munmap_d4f09867.o)
                0x000000000002d4b0                munmap
 .text          0x000000000002d530      0x3f0 /Users/stevefar/nacl_sdk/pepper_45/toolchain/mac_arm_newlib/bin/../lib/gcc/arm-nacl/4.9.2/../../../../arm-nacl/lib/libnacl.a(tls_bba1975b.o)
                0x000000000002d6d0                __tls_get_addr
                0x000000000002d700                __nacl_tls_combined_size
                0x000000000002d790                __nacl_tls_initialize_memory
 .text          0x000000000002d920       0x90 /Users/stevefar/nacl_sdk/pepper_45/toolchain/mac_arm_newlib/bin/../lib/gcc/arm-nacl/4.9.2/../../../../arm-nacl/lib/libnacl.a(write_fb49787f.o)
                0x000000000002d920                write
 .text          0x000000000002d9b0       0x20 /Users/stevefar/nacl_sdk/pepper_45/toolchain/mac_arm_newlib/bin/../lib/gcc/arm-nacl/4.9.2/../../../../arm-nacl/lib/libnacl.a(nacl_tls_get_d2f842b5.o)
                0x000000000002d9b0                nacl_tls_get
 .text          0x000000000002d9d0      0x1e0 /Users/stevefar/nacl_sdk/pepper_45/toolchain/mac_arm_newlib/bin/../lib/gcc/arm-nacl/4.9.2/../../../../arm-nacl/lib/libnacl.a(nacl_irt_init_7b4f826e.o)
                0x000000000002d9e0                __libnacl_irt_init
 .text          0x000000000002dbb0       0x90 /Users/stevefar/nacl_sdk/pepper_45/toolchain/mac_arm_newlib/bin/../lib/gcc/arm-nacl/4.9.2/../../../../arm-nacl/lib/libnacl.a(sysconf_ad295ea2.o)
                0x000000000002dbb0                sysconf
 .text          0x000000000002dc40       0x20 /Users/stevefar/nacl_sdk/pepper_45/toolchain/mac_arm_newlib/bin/../lib/gcc/arm-nacl/4.9.2/../../../../arm-nacl/lib/libnacl.a(nacl_tls_init_eb0cd232.o)
                0x000000000002dc40                nacl_tls_init
 .text          0x000000000002dc60       0x20 /Users/stevefar/nacl_sdk/pepper_45/toolchain/mac_arm_newlib/bin/../lib/gcc/arm-nacl/4.9.2/../../../../arm-nacl/lib/libcrt_common.a(lib_a-atexit.o)
                0x000000000002dc60                atexit
 .text          0x000000000002dc80       0x40 /Users/stevefar/nacl_sdk/pepper_45/toolchain/mac_arm_newlib/bin/../lib/gcc/arm-nacl/4.9.2/../../../../arm-nacl/lib/libcrt_common.a(lib_a-errno.o)
                0x000000000002dc80                __errno
 .text          0x000000000002dcc0       0x60 /Users/stevefar/nacl_sdk/pepper_45/toolchain/mac_arm_newlib/bin/../lib/gcc/arm-nacl/4.9.2/../../../../arm-nacl/lib/libcrt_common.a(lib_a-exit.o)
                0x000000000002dcc0                exit
 .text          0x000000000002dd20      0x520 /Users/stevefar/nacl_sdk/pepper_45/toolchain/mac_arm_newlib/bin/../lib/gcc/arm-nacl/4.9.2/../../../../arm-nacl/lib/libcrt_common.a(lib_a-fflush.o)
                0x000000000002dd20                __sflush_r
                0x000000000002e0e0                _fflush_r
                0x000000000002e1e0                fflush
 .text          0x000000000002e240      0x790 /Users/stevefar/nacl_sdk/pepper_45/toolchain/mac_arm_newlib/bin/../lib/gcc/arm-nacl/4.9.2/../../../../arm-nacl/lib/libcrt_common.a(lib_a-findfp.o)
                0x000000000002e240                _cleanup_r
                0x000000000002e3e0                __sfmoreglue
                0x000000000002e470                _cleanup
                0x000000000002e490                __sinit
                0x000000000002e660                __sfp
                0x000000000002e880                __sfp_lock_acquire
                0x000000000002e8a0                __sfp_lock_release
                0x000000000002e8c0                __sinit_lock_acquire
                0x000000000002e8d0                __sinit_lock_release
                0x000000000002e8e0                __fp_lock_all
                0x000000000002e960                __fp_unlock_all
 .text          0x000000000002e9d0       0x80 /Users/stevefar/nacl_sdk/pepper_45/toolchain/mac_arm_newlib/bin/../lib/gcc/arm-nacl/4.9.2/../../../../arm-nacl/lib/libcrt_common.a(lib_a-fini.o)
                0x000000000002e9d0                __libc_fini_array
 .text          0x000000000002ea50       0xd0 /Users/stevefar/nacl_sdk/pepper_45/toolchain/mac_arm_newlib/bin/../lib/gcc/arm-nacl/4.9.2/../../../../arm-nacl/lib/libcrt_common.a(lib_a-fprintf.o)
                0x000000000002ea50                _fprintf_r
                0x000000000002eaa0                fprintf
 .text          0x000000000002eb20      0x310 /Users/stevefar/nacl_sdk/pepper_45/toolchain/mac_arm_newlib/bin/../lib/gcc/arm-nacl/4.9.2/../../../../arm-nacl/lib/libcrt_common.a(lib_a-fwalk.o)
                0x000000000002eb20                _fwalk
                0x000000000002ecc0                _fwalk_reent
 .text          0x000000000002ee30      0x270 /Users/stevefar/nacl_sdk/pepper_45/toolchain/mac_arm_newlib/bin/../lib/gcc/arm-nacl/4.9.2/../../../../arm-nacl/lib/libcrt_common.a(lib_a-fwrite.o)
                0x000000000002ee30                _fwrite_r
                0x000000000002f010                fwrite
 .text          0x000000000002f0a0       0xb0 /Users/stevefar/nacl_sdk/pepper_45/toolchain/mac_arm_newlib/bin/../lib/gcc/arm-nacl/4.9.2/../../../../arm-nacl/lib/libcrt_common.a(lib_a-getenv.o)
                0x000000000002f0a0                _findenv
                0x000000000002f0e0                getenv
 .text          0x000000000002f150      0x1c0 /Users/stevefar/nacl_sdk/pepper_45/toolchain/mac_arm_newlib/bin/../lib/gcc/arm-nacl/4.9.2/../../../../arm-nacl/lib/libcrt_common.a(lib_a-getenv_r.o)
                0x000000000002f150                _findenv_r
                0x000000000002f2d0                _getenv_r
 .text          0x000000000002f310       0x40 /Users/stevefar/nacl_sdk/pepper_45/toolchain/mac_arm_newlib/bin/../lib/gcc/arm-nacl/4.9.2/../../../../arm-nacl/lib/libcrt_common.a(lib_a-impure.o)
                0x000000000002f310                __newlib_thread_init
                0x000000000002f340                __newlib_thread_exit
 .text          0x000000000002f350       0xe0 /Users/stevefar/nacl_sdk/pepper_45/toolchain/mac_arm_newlib/bin/../lib/gcc/arm-nacl/4.9.2/../../../../arm-nacl/lib/libcrt_common.a(lib_a-init.o)
                0x000000000002f350                __libc_init_array
 *fill*         0x000000000002f430       0x10 
 .text          0x000000000002f440      0x940 /Users/stevefar/nacl_sdk/pepper_45/toolchain/mac_arm_newlib/bin/../lib/gcc/arm-nacl/4.9.2/../../../../arm-nacl/lib/libcrt_common.a(lib_a-memcpy.o)
                0x000000000002f440                memcpy
 .text          0x000000000002fd80      0x170 /Users/stevefar/nacl_sdk/pepper_45/toolchain/mac_arm_newlib/bin/../lib/gcc/arm-nacl/4.9.2/../../../../arm-nacl/lib/libcrt_common.a(lib_a-memset.o)
                0x000000000002fd80                memset
 .text          0x000000000002fef0       0x80 /Users/stevefar/nacl_sdk/pepper_45/toolchain/mac_arm_newlib/bin/../lib/gcc/arm-nacl/4.9.2/../../../../arm-nacl/lib/libcrt_common.a(lib_a-sleep.o)
                0x000000000002fef0                sleep
 .text          0x000000000002ff70      0x1e0 /Users/stevefar/nacl_sdk/pepper_45/toolchain/mac_arm_newlib/bin/../lib/gcc/arm-nacl/4.9.2/../../../../arm-nacl/lib/libcrt_common.a(lib_a-stdio.o)
                0x000000000002ff70                __sread
                0x0000000000030000                __seofread
                0x0000000000030010                __swrite
                0x00000000000300b0                __sseek
                0x0000000000030140                __sclose
 *fill*         0x0000000000030150       0x10 
 .text          0x0000000000030160      0x460 /Users/stevefar/nacl_sdk/pepper_45/toolchain/mac_arm_newlib/bin/../lib/gcc/arm-nacl/4.9.2/../../../../arm-nacl/lib/libcrt_common.a(lib_a-strcmp.o)
                0x0000000000030170                strcmp
 .text          0x00000000000305c0      0x140 /Users/stevefar/nacl_sdk/pepper_45/toolchain/mac_arm_newlib/bin/../lib/gcc/arm-nacl/4.9.2/../../../../arm-nacl/lib/libcrt_common.a(lib_a-strlen-armv7.o)
                0x00000000000305c0                strlen
 .text          0x0000000000030700      0x1b0 /Users/stevefar/nacl_sdk/pepper_45/toolchain/mac_arm_newlib/bin/../lib/gcc/arm-nacl/4.9.2/../../../../arm-nacl/lib/libcrt_common.a(lib_a-strncmp.o)
                0x0000000000030700                strncmp
 .text          0x00000000000308b0     0x3a80 /Users/stevefar/nacl_sdk/pepper_45/toolchain/mac_arm_newlib/bin/../lib/gcc/arm-nacl/4.9.2/../../../../arm-nacl/lib/libcrt_common.a(lib_a-vfprintf.o)
                0x00000000000308b0                _vfprintf_r
                0x0000000000034170                vfprintf
 .text          0x0000000000034330      0x190 /Users/stevefar/nacl_sdk/pepper_45/toolchain/mac_arm_newlib/bin/../lib/gcc/arm-nacl/4.9.2/../../../../arm-nacl/lib/libcrt_common.a(lib_a-vsnprintf.o)
                0x0000000000034330                _vsnprintf_r
                0x0000000000034430                vsnprintf
 .text          0x00000000000344c0       0xe0 /Users/stevefar/nacl_sdk/pepper_45/toolchain/mac_arm_newlib/bin/../lib/gcc/arm-nacl/4.9.2/../../../../arm-nacl/lib/libcrt_common.a(lib_a-vsprintf.o)
                0x00000000000344c0                _vsprintf_r
                0x0000000000034540                vsprintf
 .text          0x00000000000345a0      0x240 /Users/stevefar/nacl_sdk/pepper_45/toolchain/mac_arm_newlib/bin/../lib/gcc/arm-nacl/4.9.2/../../../../arm-nacl/lib/libcrt_common.a(lib_a-wcrtomb.o)
                0x00000000000345a0                _wcrtomb_r
                0x00000000000346b0                wcrtomb
 .text          0x00000000000347e0       0xd0 /Users/stevefar/nacl_sdk/pepper_45/toolchain/mac_arm_newlib/bin/../lib/gcc/arm-nacl/4.9.2/../../../../arm-nacl/lib/libcrt_common.a(lib_a-wcsrtombs.o)
                0x00000000000347e0                _wcsrtombs_r
                0x0000000000034830                wcsrtombs
 .text          0x00000000000348b0      0x5b0 /Users/stevefar/nacl_sdk/pepper_45/toolchain/mac_arm_newlib/bin/../lib/gcc/arm-nacl/4.9.2/../../../../arm-nacl/lib/libcrt_common.a(lib_a-wctomb_r.o)
                0x00000000000348b0                __ascii_wctomb
                0x00000000000348f0                _wctomb_r
                0x0000000000034990                __utf8_wctomb
                0x0000000000034b00                __sjis_wctomb
                0x0000000000034bd0                __eucjp_wctomb
                0x0000000000034d00                __jis_wctomb
 .text          0x0000000000034e60      0x280 /Users/stevefar/nacl_sdk/pepper_45/toolchain/mac_arm_newlib/bin/../lib/gcc/arm-nacl/4.9.2/../../../../arm-nacl/lib/libcrt_common.a(lib_a-wsetup.o)
                0x0000000000034e60                __swsetup_r
 .text          0x00000000000350e0      0x1f0 /Users/stevefar/nacl_sdk/pepper_45/toolchain/mac_arm_newlib/bin/../lib/gcc/arm-nacl/4.9.2/../../../../arm-nacl/lib/libcrt_common.a(lib_a-__atexit.o)
                0x00000000000350e0                __register_exitproc
 .text          0x00000000000352d0      0x290 /Users/stevefar/nacl_sdk/pepper_45/toolchain/mac_arm_newlib/bin/../lib/gcc/arm-nacl/4.9.2/../../../../arm-nacl/lib/libcrt_common.a(lib_a-__call_atexit.o)
                0x00000000000352d0                __call_exitprocs
 .text          0x0000000000035560     0x1c60 /Users/stevefar/nacl_sdk/pepper_45/toolchain/mac_arm_newlib/bin/../lib/gcc/arm-nacl/4.9.2/../../../../arm-nacl/lib/libcrt_common.a(lib_a-dtoa.o)
                0x0000000000035810                _dtoa_r
 .text          0x00000000000371c0       0x20 /Users/stevefar/nacl_sdk/pepper_45/toolchain/mac_arm_newlib/bin/../lib/gcc/arm-nacl/4.9.2/../../../../arm-nacl/lib/libcrt_common.a(lib_a-envlock.o)
                0x00000000000371c0                __env_lock
                0x00000000000371d0                __env_unlock
 .text          0x00000000000371e0      0x2a0 /Users/stevefar/nacl_sdk/pepper_45/toolchain/mac_arm_newlib/bin/../lib/gcc/arm-nacl/4.9.2/../../../../arm-nacl/lib/libcrt_common.a(lib_a-fclose.o)
                0x00000000000371e0                _fclose_r
                0x0000000000037440                fclose
 .text          0x0000000000037480      0x810 /Users/stevefar/nacl_sdk/pepper_45/toolchain/mac_arm_newlib/bin/../lib/gcc/arm-nacl/4.9.2/../../../../arm-nacl/lib/libcrt_common.a(lib_a-fvwrite.o)
                0x0000000000037480                __sfvwrite_r
 .text          0x0000000000037c90     0x14d0 /Users/stevefar/nacl_sdk/pepper_45/toolchain/mac_arm_newlib/bin/../lib/gcc/arm-nacl/4.9.2/../../../../arm-nacl/lib/libcrt_common.a(lib_a-locale.o)
                0x0000000000038b60                _setlocale_r
                0x0000000000039060                __locale_charset
                0x0000000000039080                __locale_mb_cur_max
                0x00000000000390a0                __locale_msgcharset
                0x00000000000390c0                __locale_cjk_lang
                0x00000000000390e0                _localeconv_r
                0x0000000000039100                setlocale
                0x0000000000039140                localeconv
 .text          0x0000000000039160      0x250 /Users/stevefar/nacl_sdk/pepper_45/toolchain/mac_arm_newlib/bin/../lib/gcc/arm-nacl/4.9.2/../../../../arm-nacl/lib/libcrt_common.a(lib_a-makebuf.o)
                0x0000000000039160                __smakebuf_r
 .text          0x00000000000393b0      0xb60 /Users/stevefar/nacl_sdk/pepper_45/toolchain/mac_arm_newlib/bin/../lib/gcc/arm-nacl/4.9.2/../../../../arm-nacl/lib/libcrt_common.a(lib_a-mbtowc_r.o)
                0x00000000000393b0                __ascii_mbtowc
                0x0000000000039420                _mbtowc_r
                0x00000000000394d0                __utf8_mbtowc
                0x0000000000039940                __sjis_mbtowc
                0x0000000000039ab0                __eucjp_mbtowc
                0x0000000000039ca0                __jis_mbtowc
 .text          0x0000000000039f10      0x110 /Users/stevefar/nacl_sdk/pepper_45/toolchain/mac_arm_newlib/bin/../lib/gcc/arm-nacl/4.9.2/../../../../arm-nacl/lib/libcrt_common.a(lib_a-memchr.o)
                0x0000000000039f10                memchr
 .text          0x000000000003a020      0x1c0 /Users/stevefar/nacl_sdk/pepper_45/toolchain/mac_arm_newlib/bin/../lib/gcc/arm-nacl/4.9.2/../../../../arm-nacl/lib/libcrt_common.a(lib_a-memmove.o)
                0x000000000003a020                memmove
 .text          0x000000000003a1e0     0x1540 /Users/stevefar/nacl_sdk/pepper_45/toolchain/mac_arm_newlib/bin/../lib/gcc/arm-nacl/4.9.2/../../../../arm-nacl/lib/libcrt_common.a(lib_a-mprec.o)
                0x000000000003a1e0                _Balloc
                0x000000000003a300                _Bfree
                0x000000000003a350                __multadd
                0x000000000003a4c0                __s2b
                0x000000000003a610                __hi0bits
                0x000000000003a680                __lo0bits
                0x000000000003a740                __i2b
                0x000000000003a790                __multiply
                0x000000000003aa80                __pow5mult
                0x000000000003ac70                __lshift
                0x000000000003ae20                __mcmp
                0x000000000003aec0                __mdiff
                0x000000000003b0d0                __ulp
                0x000000000003b160                __b2d
                0x000000000003b2b0                __d2b
                0x000000000003b490                __ratio
                0x000000000003b560                _mprec_log10
                0x000000000003b5b0                __copybits
                0x000000000003b660                __any_on
 .text          0x000000000003b720       0x90 /Users/stevefar/nacl_sdk/pepper_45/toolchain/mac_arm_newlib/bin/../lib/gcc/arm-nacl/4.9.2/../../../../arm-nacl/lib/libcrt_common.a(lib_a-s_fpclassify.o)
                0x000000000003b720                __fpclassifyd
 .text          0x000000000003b7b0       0xd0 /Users/stevefar/nacl_sdk/pepper_45/toolchain/mac_arm_newlib/bin/../lib/gcc/arm-nacl/4.9.2/../../../../arm-nacl/lib/libcrt_common.a(lib_a-s_frexp.o)
                0x000000000003b7b0                frexp
 .text          0x000000000003b880       0x90 /Users/stevefar/nacl_sdk/pepper_45/toolchain/mac_arm_newlib/bin/../lib/gcc/arm-nacl/4.9.2/../../../../arm-nacl/lib/libcrt_common.a(lib_a-strcasecmp.o)
                0x000000000003b880                strcasecmp
 .text          0x000000000003b910       0xd0 /Users/stevefar/nacl_sdk/pepper_45/toolchain/mac_arm_newlib/bin/../lib/gcc/arm-nacl/4.9.2/../../../../arm-nacl/lib/libcrt_common.a(lib_a-strcat.o)
                0x000000000003b910                strcat
 .text          0x000000000003b9e0      0x230 /Users/stevefar/nacl_sdk/pepper_45/toolchain/mac_arm_newlib/bin/../lib/gcc/arm-nacl/4.9.2/../../../../arm-nacl/lib/libcrt_common.a(lib_a-strchr.o)
                0x000000000003b9e0                strchr
 .text          0x000000000003bc10      0x160 /Users/stevefar/nacl_sdk/pepper_45/toolchain/mac_arm_newlib/bin/../lib/gcc/arm-nacl/4.9.2/../../../../arm-nacl/lib/libcrt_common.a(lib_a-strcpy.o)
                0x000000000003bc10                strcpy
 .text          0x000000000003bd70       0x70 /Users/stevefar/nacl_sdk/pepper_45/toolchain/mac_arm_newlib/bin/../lib/gcc/arm-nacl/4.9.2/../../../../arm-nacl/lib/libcrt_common.a(lib_a-strlcpy.o)
                0x000000000003bd70                strlcpy
 .text          0x000000000003bde0       0xe0 /Users/stevefar/nacl_sdk/pepper_45/toolchain/mac_arm_newlib/bin/../lib/gcc/arm-nacl/4.9.2/../../../../arm-nacl/lib/libcrt_common.a(lib_a-strncasecmp.o)
                0x000000000003bde0                strncasecmp
 .text          0x000000000003bec0      0x140 /Users/stevefar/nacl_sdk/pepper_45/toolchain/mac_arm_newlib/bin/../lib/gcc/arm-nacl/4.9.2/../../../../arm-nacl/lib/libcrt_common.a(lib_a-strncpy.o)
                0x000000000003bec0                strncpy
 .text          0x000000000003c000      0x350 /Users/stevefar/nacl_sdk/pepper_45/toolchain/mac_arm_newlib/bin/../lib/gcc/arm-nacl/4.9.2/../../../../arm-nacl/lib/libcrt_common.a(lib_a-strtol.o)
                0x000000000003c000                _strtol_r
                0x000000000003c2f0                strtol
 .text          0x000000000003c350     0x3730 /Users/stevefar/nacl_sdk/pepper_45/toolchain/mac_arm_newlib/bin/../lib/gcc/arm-nacl/4.9.2/../../../../arm-nacl/lib/libcrt_common.a(lib_a-svfprintf.o)
                0x000000000003c350                _svfprintf_r
 .text          0x000000000003fa80     0x23b0 /Users/stevefar/nacl_sdk/pepper_45/toolchain/mac_arm_newlib/bin/../lib/gcc/arm-nacl/4.9.2/../../../../arm-nacl/lib/libcrt_common.a(lib_a-vfiprintf.o)
                0x000000000003fbd0                __sprint_r
                0x000000000003fc10                _vfiprintf_r
                0x0000000000041c70                vfiprintf
 .text          0x0000000000041e30      0x330 /Users/stevefar/nacl_sdk/pepper_45/toolchain/mac_arm_newlib/bin/../lib/gcc/arm-nacl/4.9.2/../../../../arm-nacl/lib/libcrt_common.a(lib_a-wcsnrtombs.o)
                0x0000000000041e30                _wcsnrtombs_r
                0x00000000000420c0                wcsnrtombs
 .text          0x0000000000042160       0x20 /Users/stevefar/nacl_sdk/pepper_45/toolchain/mac_arm_newlib/bin/../lib/gcc/arm-nacl/4.9.2/../../../../arm-nacl/lib/libcrt_common.a(lib_a-ctype_.o)
                0x0000000000042160                __set_ctype
 .text          0x0000000000042180      0x340 /Users/stevefar/nacl_sdk/pepper_45/toolchain/mac_arm_newlib/bin/../lib/gcc/arm-nacl/4.9.2/../../../../arm-nacl/lib/libcrt_common.a(lib_a-fputwc.o)
                0x0000000000042180                _fputwc_r
                0x0000000000042420                fputwc
 .text          0x00000000000424c0     0x1f40 /Users/stevefar/nacl_sdk/pepper_45/toolchain/mac_arm_newlib/bin/../lib/gcc/arm-nacl/4.9.2/../../../../arm-nacl/lib/libcrt_common.a(lib_a-svfiprintf.o)
                0x00000000000424c0                __ssprint_r
                0x00000000000427c0                _svfiprintf_r
 .text          0x0000000000044400      0x250 /Users/stevefar/nacl_sdk/pepper_45/toolchain/mac_arm_newlib/bin/../lib/gcc/arm-nacl/4.9.2/../../../../arm-nacl/lib/libcrt_common.a(lib_a-wbuf.o)
                0x0000000000044400                __swbuf_r
                0x0000000000044610                __swbuf
 .text          0x0000000000044650       0x80 /Users/stevefar/nacl_sdk/pepper_45/toolchain/mac_arm_newlib/bin/../lib/gcc/arm-nacl/4.9.2/../../../../arm-nacl/lib/libnacl.a(close_e9b92fbd.o)
                0x0000000000044650                close
 .text          0x00000000000446d0       0xd0 /Users/stevefar/nacl_sdk/pepper_45/toolchain/mac_arm_newlib/bin/../lib/gcc/arm-nacl/4.9.2/../../../../arm-nacl/lib/libnacl.a(isatty_02f56e94.o)
                0x00000000000446d0                isatty
 .text          0x00000000000447a0       0xc0 /Users/stevefar/nacl_sdk/pepper_45/toolchain/mac_arm_newlib/bin/../lib/gcc/arm-nacl/4.9.2/../../../../arm-nacl/lib/libnacl.a(nacl_irt_fdio_b571b5e7.o)
                0x00000000000447a0                __libnacl_irt_dev_fdio_init
 .text          0x0000000000044860       0x80 /Users/stevefar/nacl_sdk/pepper_45/toolchain/mac_arm_newlib/bin/../lib/gcc/arm-nacl/4.9.2/../../../../arm-nacl/lib/libnacl.a(fstat_0540ff63.o)
                0x0000000000044860                fstat
 .text          0x00000000000448e0       0xa0 /Users/stevefar/nacl_sdk/pepper_45/toolchain/mac_arm_newlib/bin/../lib/gcc/arm-nacl/4.9.2/../../../../arm-nacl/lib/libnacl.a(lseek_64d2d05c.o)
                0x00000000000448e0                lseek
 .text          0x0000000000044980       0x90 /Users/stevefar/nacl_sdk/pepper_45/toolchain/mac_arm_newlib/bin/../lib/gcc/arm-nacl/4.9.2/../../../../arm-nacl/lib/libnacl.a(read_df872e10.o)
                0x0000000000044980                read
 .text          0x0000000000044a10       0x80 /Users/stevefar/nacl_sdk/pepper_45/toolchain/mac_arm_newlib/bin/../lib/gcc/arm-nacl/4.9.2/../../../../arm-nacl/lib/libnacl.a(nanosleep_e59fdef1.o)
                0x0000000000044a10                nanosleep
 .text          0x0000000000044a90      0x2d0 /Users/stevefar/nacl_sdk/pepper_45/toolchain/mac_arm_newlib/bin/../lib/gcc/arm-nacl/4.9.2/libgcc.a(_udivsi3.o)
                0x0000000000044a90                __udivsi3
                0x0000000000044a90                __aeabi_uidiv
                0x0000000000044d20                __aeabi_uidivmod
 .text          0x0000000000044d60      0x300 /Users/stevefar/nacl_sdk/pepper_45/toolchain/mac_arm_newlib/bin/../lib/gcc/arm-nacl/4.9.2/libgcc.a(_divsi3.o)
                0x0000000000044d60                __aeabi_idiv
                0x0000000000044d60                __divsi3
                0x0000000000045020                __aeabi_idivmod
 .text          0x0000000000045060       0x60 /Users/stevefar/nacl_sdk/pepper_45/toolchain/mac_arm_newlib/bin/../lib/gcc/arm-nacl/4.9.2/libgcc.a(_aeabi_uldivmod.o)
                0x0000000000045060                __aeabi_uldivmod
 .text          0x00000000000450c0       0x10 /Users/stevefar/nacl_sdk/pepper_45/toolchain/mac_arm_newlib/bin/../lib/gcc/arm-nacl/4.9.2/libgcc.a(_dvmd_nacl.o)
                0x00000000000450c0                __aeabi_ldiv0
                0x00000000000450c0                __aeabi_idiv0
 .text          0x00000000000450d0      0x100 /Users/stevefar/nacl_sdk/pepper_45/toolchain/mac_arm_newlib/bin/../lib/gcc/arm-nacl/4.9.2/libgcc.a(bpabi.o)
                0x00000000000450d0                __gnu_ldivmod_helper
                0x0000000000045150                __gnu_uldivmod_helper
 .text          0x00000000000451d0      0x210 /Users/stevefar/nacl_sdk/pepper_45/toolchain/mac_arm_newlib/bin/../lib/gcc/arm-nacl/4.9.2/libgcc.a(_divdi3.o)
                0x00000000000451d0                __divdi3
 .text          0x00000000000453e0      0x150 /Users/stevefar/nacl_sdk/pepper_45/toolchain/mac_arm_newlib/bin/../lib/gcc/arm-nacl/4.9.2/libgcc.a(_udivdi3.o)
                0x00000000000453e0                __udivdi3
 .text          0x0000000000045530        0x0 /Users/stevefar/nacl_sdk/pepper_45/toolchain/mac_arm_newlib/bin/../lib/gcc/arm-nacl/4.9.2/crtend.o
 .text          0x0000000000045530        0x0 /Users/stevefar/nacl_sdk/pepper_45/toolchain/mac_arm_newlib/bin/../lib/gcc/arm-nacl/4.9.2/../../../../arm-nacl/lib/crtn.o
 *(.gnu.warning)
 *(.glue_7t)
 .glue_7t       0x0000000000045530        0x0 linker stubs
 *(.glue_7)
 .glue_7        0x0000000000045530        0x0 linker stubs
 *(.vfp11_veneer)
 .vfp11_veneer  0x0000000000045530        0x0 linker stubs
 *(.v4_bx)
 .v4_bx         0x0000000000045530        0x0 linker stubs

.fini           0x0000000000045530       0x10
 *(SORT(.fini))
 .fini          0x0000000000045530        0x0 /Users/stevefar/nacl_sdk/pepper_45/toolchain/mac_arm_newlib/bin/../lib/gcc/arm-nacl/4.9.2/../../../../arm-nacl/lib/crti.o
                0x0000000000045530                _fini
 .fini          0x0000000000045530       0x10 /Users/stevefar/nacl_sdk/pepper_45/toolchain/mac_arm_newlib/bin/../lib/gcc/arm-nacl/4.9.2/../../../../arm-nacl/lib/crtn.o
                0x0000000000045540                PROVIDE (__etext, .)
                0x0000000000045540                PROVIDE (_etext, .)
                0x0000000000045540                PROVIDE (etext, .)
                0x0000000010020134                . = (0x10020000 + SIZEOF_HEADERS)

.interp
 *(.interp)

.note.NaCl.ABI.arm
                0x0000000010020134       0x18
 .note.NaCl.ABI.arm
                0x0000000010020134       0x18 /Users/stevefar/nacl_sdk/pepper_45/toolchain/mac_arm_newlib/bin/../lib/gcc/arm-nacl/4.9.2/../../../../arm-nacl/lib/crti.o

.note.gnu.build-id
                0x000000001002014c       0x24
 *(.note.gnu.build-id)
 .note.gnu.build-id
                0x000000001002014c       0x24 linker stubs

.hash
 *(.hash)

.gnu.hash
 *(.gnu.hash)

.dynsym
 *(.dynsym)

.dynstr
 *(.dynstr)

.gnu.version
 *(.gnu.version)

.gnu.version_d
 *(.gnu.version_d)

.gnu.version_r
 *(.gnu.version_r)

.rel.dyn        0x0000000010020170        0x0
 *(.rel.init)
 *(.rel.text .rel.text.* .rel.gnu.linkonce.t.*)
 *(.rel.fini)
 *(.rel.rodata .rel.rodata.* .rel.gnu.linkonce.r.*)
 *(.rel.data.rel.ro .rel.data.rel.ro.* .rel.gnu.linkonce.d.rel.ro.*)
 *(.rel.data .rel.data.* .rel.gnu.linkonce.d.*)
 *(.rel.tdata .rel.tdata.* .rel.gnu.linkonce.td.*)
 *(.rel.tbss .rel.tbss.* .rel.gnu.linkonce.tb.*)
 *(.rel.ctors)
 *(.rel.dtors)
 *(.rel.got)
 .rel.got       0x0000000010020170        0x0 /Users/stevefar/nacl_sdk/pepper_45/toolchain/mac_arm_newlib/bin/../lib/gcc/arm-nacl/4.9.2/crtbegin.o
 *(.rel.bss .rel.bss.* .rel.gnu.linkonce.b.*)
                0x0000000010020170                PROVIDE (__rel_iplt_start, .)
 *(.rel.iplt)
 .rel.iplt      0x0000000010020170        0x0 /Users/stevefar/nacl_sdk/pepper_45/toolchain/mac_arm_newlib/bin/../lib/gcc/arm-nacl/4.9.2/crtbegin.o
                0x0000000010020170                PROVIDE (__rel_iplt_end, .)

.rela.dyn       0x0000000010020170        0x0
 *(.rela.init)
 *(.rela.text .rela.text.* .rela.gnu.linkonce.t.*)
 *(.rela.fini)
 *(.rela.rodata .rela.rodata.* .rela.gnu.linkonce.r.*)
 *(.rela.data .rela.data.* .rela.gnu.linkonce.d.*)
 *(.rela.tdata .rela.tdata.* .rela.gnu.linkonce.td.*)
 *(.rela.tbss .rela.tbss.* .rela.gnu.linkonce.tb.*)
 *(.rela.ctors)
 *(.rela.dtors)
 *(.rela.got)
 *(.rela.bss .rela.bss.* .rela.gnu.linkonce.b.*)
                0x0000000010020170                PROVIDE (__rela_iplt_start, .)
 *(.rela.iplt)
                0x0000000010020170                PROVIDE (__rela_iplt_end, .)

.rel.plt
 *(.rel.plt)

.rela.plt
 *(.rela.plt)

.rodata         0x0000000010020170      0xbbc
 *(.rodata .rodata.* .gnu.linkonce.r.*)
 .rodata.str1.4
                0x0000000010020170       0xee newlib/Release/debugging_arm.o
                                         0xf0 (size before relaxing)
 *fill*         0x000000001002025e        0x2 
 .rodata.str1.4
                0x0000000010020260      0x1dc /Users/stevefar/nacl_sdk/pepper_45/lib/newlib_arm/Release/liberror_handling.a(error_handling_arm.o)
 .rodata.str1.4
                0x000000001002043c       0xb1 /Users/stevefar/nacl_sdk/pepper_45/toolchain/mac_arm_newlib/bin/../lib/gcc/arm-nacl/4.9.2/../../../../arm-nacl/lib/libppapi_stub.a(ppapi_plugin_start_8da67623.o)
                                         0xb4 (size before relaxing)
 *fill*         0x00000000100204ed        0x3 
 .rodata        0x00000000100204f0        0x4 /Users/stevefar/nacl_sdk/pepper_45/toolchain/mac_arm_newlib/bin/../lib/gcc/arm-nacl/4.9.2/../../../../arm-nacl/lib/libpthread.a(nc_thread_7e478b15.o)
                0x00000000100204f0                __nc_kMaxCachedMemoryBlocks
 .rodata.str1.4
                0x00000000100204f4        0xc /Users/stevefar/nacl_sdk/pepper_45/toolchain/mac_arm_newlib/bin/../lib/gcc/arm-nacl/4.9.2/../../../../arm-nacl/lib/libpthread.a(nc_thread_7e478b15.o)
 .rodata.str1.4
                0x0000000010020500       0x14 /Users/stevefar/nacl_sdk/pepper_45/toolchain/mac_arm_newlib/bin/../lib/gcc/arm-nacl/4.9.2/../../../../arm-nacl/lib/libpthread.a(dynamic_annotations_33ba59cc.o)
                                         0x18 (size before relaxing)
 .rodata.str1.4
                0x0000000010020514       0x27 /Users/stevefar/nacl_sdk/pepper_45/toolchain/mac_arm_newlib/bin/../lib/gcc/arm-nacl/4.9.2/../../../../arm-nacl/lib/libpthread.a(nc_init_irt_d3daafc0.o)
                                         0x28 (size before relaxing)
 *fill*         0x000000001002053b        0x1 
 .rodata        0x000000001002053c       0x14 /Users/stevefar/nacl_sdk/pepper_45/toolchain/mac_arm_newlib/bin/../lib/gcc/arm-nacl/4.9.2/../../../../arm-nacl/lib/libnacl.a(abort_9f6b5845.o)
 .rodata.str1.4
                0x0000000010020550       0x52 /Users/stevefar/nacl_sdk/pepper_45/toolchain/mac_arm_newlib/bin/../lib/gcc/arm-nacl/4.9.2/../../../../arm-nacl/lib/libnacl.a(malloc_222c4a1e.o)
                                         0x54 (size before relaxing)
 *fill*         0x00000000100205a2        0x2 
 .rodata.str1.4
                0x00000000100205a4       0x58 /Users/stevefar/nacl_sdk/pepper_45/toolchain/mac_arm_newlib/bin/../lib/gcc/arm-nacl/4.9.2/../../../../arm-nacl/lib/libnacl.a(nacl_irt_6de1d53f.o)
 .rodata.str1.4
                0x00000000100205fc       0x8d /Users/stevefar/nacl_sdk/pepper_45/toolchain/mac_arm_newlib/bin/../lib/gcc/arm-nacl/4.9.2/../../../../arm-nacl/lib/libnacl.a(nacl_irt_init_7b4f826e.o)
                                         0x90 (size before relaxing)
 *fill*         0x0000000010020689        0x3 
 .rodata        0x000000001002068c        0x4 /Users/stevefar/nacl_sdk/pepper_45/toolchain/mac_arm_newlib/bin/../lib/gcc/arm-nacl/4.9.2/../../../../arm-nacl/lib/libcrt_common.a(lib_a-impure.o)
                0x000000001002068c                _global_impure_ptr
 .rodata.str1.4
                0x0000000010020690        0x2 /Users/stevefar/nacl_sdk/pepper_45/toolchain/mac_arm_newlib/bin/../lib/gcc/arm-nacl/4.9.2/../../../../arm-nacl/lib/libcrt_common.a(lib_a-impure.o)
                                          0x4 (size before relaxing)
 *fill*         0x0000000010020692        0x2 
 .rodata        0x0000000010020694       0x20 /Users/stevefar/nacl_sdk/pepper_45/toolchain/mac_arm_newlib/bin/../lib/gcc/arm-nacl/4.9.2/../../../../arm-nacl/lib/libcrt_common.a(lib_a-vfprintf.o)
 .rodata.str1.4
                0x00000000100206b4       0x3f /Users/stevefar/nacl_sdk/pepper_45/toolchain/mac_arm_newlib/bin/../lib/gcc/arm-nacl/4.9.2/../../../../arm-nacl/lib/libcrt_common.a(lib_a-vfprintf.o)
                                         0x44 (size before relaxing)
 *fill*         0x00000000100206f3        0x1 
 .rodata.str1.4
                0x00000000100206f4       0x10 /Users/stevefar/nacl_sdk/pepper_45/toolchain/mac_arm_newlib/bin/../lib/gcc/arm-nacl/4.9.2/../../../../arm-nacl/lib/libcrt_common.a(lib_a-dtoa.o)
                                         0x14 (size before relaxing)
 .rodata        0x0000000010020704       0x1c /Users/stevefar/nacl_sdk/pepper_45/toolchain/mac_arm_newlib/bin/../lib/gcc/arm-nacl/4.9.2/../../../../arm-nacl/lib/libcrt_common.a(lib_a-locale.o)
 .rodata.str1.4
                0x0000000010020720      0x124 /Users/stevefar/nacl_sdk/pepper_45/toolchain/mac_arm_newlib/bin/../lib/gcc/arm-nacl/4.9.2/../../../../arm-nacl/lib/libcrt_common.a(lib_a-locale.o)
                                        0x130 (size before relaxing)
 .rodata        0x0000000010020844      0x240 /Users/stevefar/nacl_sdk/pepper_45/toolchain/mac_arm_newlib/bin/../lib/gcc/arm-nacl/4.9.2/../../../../arm-nacl/lib/libcrt_common.a(lib_a-mbtowc_r.o)
 *fill*         0x0000000010020a84        0x4 
 .rodata        0x0000000010020a88      0x128 /Users/stevefar/nacl_sdk/pepper_45/toolchain/mac_arm_newlib/bin/../lib/gcc/arm-nacl/4.9.2/../../../../arm-nacl/lib/libcrt_common.a(lib_a-mprec.o)
                0x0000000010020a98                __mprec_tens
                0x0000000010020b60                __mprec_tinytens
                0x0000000010020b88                __mprec_bigtens
 .rodata        0x0000000010020bb0       0x20 /Users/stevefar/nacl_sdk/pepper_45/toolchain/mac_arm_newlib/bin/../lib/gcc/arm-nacl/4.9.2/../../../../arm-nacl/lib/libcrt_common.a(lib_a-svfprintf.o)
 .rodata.str1.4
                0x0000000010020bd0       0x44 /Users/stevefar/nacl_sdk/pepper_45/toolchain/mac_arm_newlib/bin/../lib/gcc/arm-nacl/4.9.2/../../../../arm-nacl/lib/libcrt_common.a(lib_a-svfprintf.o)
 .rodata        0x0000000010020bd0       0x20 /Users/stevefar/nacl_sdk/pepper_45/toolchain/mac_arm_newlib/bin/../lib/gcc/arm-nacl/4.9.2/../../../../arm-nacl/lib/libcrt_common.a(lib_a-vfiprintf.o)
 .rodata.str1.4
                0x0000000010020bf0       0x30 /Users/stevefar/nacl_sdk/pepper_45/toolchain/mac_arm_newlib/bin/../lib/gcc/arm-nacl/4.9.2/../../../../arm-nacl/lib/libcrt_common.a(lib_a-vfiprintf.o)
 .rodata        0x0000000010020bf0      0x104 /Users/stevefar/nacl_sdk/pepper_45/toolchain/mac_arm_newlib/bin/../lib/gcc/arm-nacl/4.9.2/../../../../arm-nacl/lib/libcrt_common.a(lib_a-ctype_.o)
                0x0000000010020bf0                _ctype_
 .rodata        0x0000000010020cf4       0x20 /Users/stevefar/nacl_sdk/pepper_45/toolchain/mac_arm_newlib/bin/../lib/gcc/arm-nacl/4.9.2/../../../../arm-nacl/lib/libcrt_common.a(lib_a-svfiprintf.o)
 .rodata.str1.4
                0x0000000010020d14       0x30 /Users/stevefar/nacl_sdk/pepper_45/toolchain/mac_arm_newlib/bin/../lib/gcc/arm-nacl/4.9.2/../../../../arm-nacl/lib/libcrt_common.a(lib_a-svfiprintf.o)
 .rodata.str1.4
                0x0000000010020d14       0x18 /Users/stevefar/nacl_sdk/pepper_45/toolchain/mac_arm_newlib/bin/../lib/gcc/arm-nacl/4.9.2/../../../../arm-nacl/lib/libnacl.a(nacl_irt_fdio_b571b5e7.o)
                                         0x44 (size before relaxing)

.rodata1
 *(.rodata1)

.ARM.extab      0x0000000010020d2c       0x30
 *(.ARM.extab* .gnu.linkonce.armextab.*)
 .ARM.extab.text.startup
                0x0000000010020d2c        0x0 /Users/stevefar/nacl_sdk/pepper_45/toolchain/mac_arm_newlib/bin/../lib/gcc/arm-nacl/4.9.2/../../../../arm-nacl/lib/libppapi_stub.a(plugin_main_irt_21ce9d26.o)
 .ARM.extab     0x0000000010020d2c        0x0 /Users/stevefar/nacl_sdk/pepper_45/toolchain/mac_arm_newlib/bin/../lib/gcc/arm-nacl/4.9.2/../../../../arm-nacl/lib/libppapi_stub.a(ppapi_plugin_main_399d0cf7.o)
 .ARM.extab.text.unlikely
                0x0000000010020d2c        0x0 /Users/stevefar/nacl_sdk/pepper_45/toolchain/mac_arm_newlib/bin/../lib/gcc/arm-nacl/4.9.2/../../../../arm-nacl/lib/libppapi_stub.a(ppapi_plugin_start_8da67623.o)
 .ARM.extab     0x0000000010020d2c        0x0 /Users/stevefar/nacl_sdk/pepper_45/toolchain/mac_arm_newlib/bin/../lib/gcc/arm-nacl/4.9.2/../../../../arm-nacl/lib/libppapi_stub.a(ppapi_plugin_start_8da67623.o)
 .ARM.extab     0x0000000010020d2c        0x0 /Users/stevefar/nacl_sdk/pepper_45/toolchain/mac_arm_newlib/bin/../lib/gcc/arm-nacl/4.9.2/../../../../arm-nacl/lib/libppapi_stub.a(thread_creator_ccf263e1.o)
 .ARM.extab     0x0000000010020d2c        0x0 /Users/stevefar/nacl_sdk/pepper_45/toolchain/mac_arm_newlib/bin/../lib/gcc/arm-nacl/4.9.2/../../../../arm-nacl/lib/libpthread.a(nc_thread_7e478b15.o)
 .ARM.extab     0x0000000010020d2c        0x0 /Users/stevefar/nacl_sdk/pepper_45/toolchain/mac_arm_newlib/bin/../lib/gcc/arm-nacl/4.9.2/../../../../arm-nacl/lib/libpthread.a(nc_condvar_305aa45a.o)
 .ARM.extab     0x0000000010020d2c        0x0 /Users/stevefar/nacl_sdk/pepper_45/toolchain/mac_arm_newlib/bin/../lib/gcc/arm-nacl/4.9.2/../../../../arm-nacl/lib/libpthread.a(dynamic_annotations_33ba59cc.o)
 .ARM.extab     0x0000000010020d2c        0x0 /Users/stevefar/nacl_sdk/pepper_45/toolchain/mac_arm_newlib/bin/../lib/gcc/arm-nacl/4.9.2/../../../../arm-nacl/lib/libpthread.a(nc_mutex_86341ae1.o)
 .ARM.extab     0x0000000010020d2c        0x0 /Users/stevefar/nacl_sdk/pepper_45/toolchain/mac_arm_newlib/bin/../lib/gcc/arm-nacl/4.9.2/../../../../arm-nacl/lib/libpthread.a(nc_init_irt_d3daafc0.o)
 .ARM.extab     0x0000000010020d2c       0x30 /Users/stevefar/nacl_sdk/pepper_45/toolchain/mac_arm_newlib/bin/../lib/gcc/arm-nacl/4.9.2/libgcc.a(unwind-arm.o)
 .ARM.extab     0x0000000010020d5c        0x0 /Users/stevefar/nacl_sdk/pepper_45/toolchain/mac_arm_newlib/bin/../lib/gcc/arm-nacl/4.9.2/libgcc.a(pr-support.o)
 .ARM.extab     0x0000000010020d5c        0x0 /Users/stevefar/nacl_sdk/pepper_45/toolchain/mac_arm_newlib/bin/../lib/gcc/arm-nacl/4.9.2/../../../../arm-nacl/lib/libnacl.a(_exit_710c7d0d.o)
 .ARM.extab     0x0000000010020d5c        0x0 /Users/stevefar/nacl_sdk/pepper_45/toolchain/mac_arm_newlib/bin/../lib/gcc/arm-nacl/4.9.2/../../../../arm-nacl/lib/libnacl.a(abort_9f6b5845.o)
 .ARM.extab     0x0000000010020d5c        0x0 /Users/stevefar/nacl_sdk/pepper_45/toolchain/mac_arm_newlib/bin/../lib/gcc/arm-nacl/4.9.2/../../../../arm-nacl/lib/libnacl.a(malloc_222c4a1e.o)
 .ARM.extab     0x0000000010020d5c        0x0 /Users/stevefar/nacl_sdk/pepper_45/toolchain/mac_arm_newlib/bin/../lib/gcc/arm-nacl/4.9.2/../../../../arm-nacl/lib/libnacl.a(nacl_irt_6de1d53f.o)
 .ARM.extab     0x0000000010020d5c        0x0 /Users/stevefar/nacl_sdk/pepper_45/toolchain/mac_arm_newlib/bin/../lib/gcc/arm-nacl/4.9.2/../../../../arm-nacl/lib/libnacl.a(pthread_initialize_minimal_4b6e776b.o)
 .ARM.extab     0x0000000010020d5c        0x0 /Users/stevefar/nacl_sdk/pepper_45/toolchain/mac_arm_newlib/bin/../lib/gcc/arm-nacl/4.9.2/../../../../arm-nacl/lib/libnacl.a(nacl_read_tp_5748ac47.o)
 .ARM.extab     0x0000000010020d5c        0x0 /Users/stevefar/nacl_sdk/pepper_45/toolchain/mac_arm_newlib/bin/../lib/gcc/arm-nacl/4.9.2/../../../../arm-nacl/lib/libnacl.a(nacl_interface_query_ef8a99f1.o)
 .ARM.extab     0x0000000010020d5c        0x0 /Users/stevefar/nacl_sdk/pepper_45/toolchain/mac_arm_newlib/bin/../lib/gcc/arm-nacl/4.9.2/../../../../arm-nacl/lib/libnacl.a(mmap_767fb080.o)
 .ARM.extab     0x0000000010020d5c        0x0 /Users/stevefar/nacl_sdk/pepper_45/toolchain/mac_arm_newlib/bin/../lib/gcc/arm-nacl/4.9.2/../../../../arm-nacl/lib/libnacl.a(sched_yield_56c375be.o)
 .ARM.extab     0x0000000010020d5c        0x0 /Users/stevefar/nacl_sdk/pepper_45/toolchain/mac_arm_newlib/bin/../lib/gcc/arm-nacl/4.9.2/../../../../arm-nacl/lib/libnacl.a(start_fa9ef7de.o)
 .ARM.extab     0x0000000010020d5c        0x0 /Users/stevefar/nacl_sdk/pepper_45/toolchain/mac_arm_newlib/bin/../lib/gcc/arm-nacl/4.9.2/../../../../arm-nacl/lib/libnacl.a(munmap_d4f09867.o)
 .ARM.extab     0x0000000010020d5c        0x0 /Users/stevefar/nacl_sdk/pepper_45/toolchain/mac_arm_newlib/bin/../lib/gcc/arm-nacl/4.9.2/../../../../arm-nacl/lib/libnacl.a(tls_bba1975b.o)
 .ARM.extab     0x0000000010020d5c        0x0 /Users/stevefar/nacl_sdk/pepper_45/toolchain/mac_arm_newlib/bin/../lib/gcc/arm-nacl/4.9.2/../../../../arm-nacl/lib/libnacl.a(write_fb49787f.o)
 .ARM.extab     0x0000000010020d5c        0x0 /Users/stevefar/nacl_sdk/pepper_45/toolchain/mac_arm_newlib/bin/../lib/gcc/arm-nacl/4.9.2/../../../../arm-nacl/lib/libnacl.a(nacl_tls_get_d2f842b5.o)
 .ARM.extab     0x0000000010020d5c        0x0 /Users/stevefar/nacl_sdk/pepper_45/toolchain/mac_arm_newlib/bin/../lib/gcc/arm-nacl/4.9.2/../../../../arm-nacl/lib/libnacl.a(nacl_irt_init_7b4f826e.o)
 .ARM.extab     0x0000000010020d5c        0x0 /Users/stevefar/nacl_sdk/pepper_45/toolchain/mac_arm_newlib/bin/../lib/gcc/arm-nacl/4.9.2/../../../../arm-nacl/lib/libnacl.a(sysconf_ad295ea2.o)
 .ARM.extab     0x0000000010020d5c        0x0 /Users/stevefar/nacl_sdk/pepper_45/toolchain/mac_arm_newlib/bin/../lib/gcc/arm-nacl/4.9.2/../../../../arm-nacl/lib/libnacl.a(nacl_tls_init_eb0cd232.o)
 .ARM.extab     0x0000000010020d5c        0x0 /Users/stevefar/nacl_sdk/pepper_45/toolchain/mac_arm_newlib/bin/../lib/gcc/arm-nacl/4.9.2/../../../../arm-nacl/lib/libnacl.a(close_e9b92fbd.o)
 .ARM.extab     0x0000000010020d5c        0x0 /Users/stevefar/nacl_sdk/pepper_45/toolchain/mac_arm_newlib/bin/../lib/gcc/arm-nacl/4.9.2/../../../../arm-nacl/lib/libnacl.a(isatty_02f56e94.o)
 .ARM.extab     0x0000000010020d5c        0x0 /Users/stevefar/nacl_sdk/pepper_45/toolchain/mac_arm_newlib/bin/../lib/gcc/arm-nacl/4.9.2/../../../../arm-nacl/lib/libnacl.a(nacl_irt_fdio_b571b5e7.o)
 .ARM.extab     0x0000000010020d5c        0x0 /Users/stevefar/nacl_sdk/pepper_45/toolchain/mac_arm_newlib/bin/../lib/gcc/arm-nacl/4.9.2/../../../../arm-nacl/lib/libnacl.a(fstat_0540ff63.o)
 .ARM.extab     0x0000000010020d5c        0x0 /Users/stevefar/nacl_sdk/pepper_45/toolchain/mac_arm_newlib/bin/../lib/gcc/arm-nacl/4.9.2/../../../../arm-nacl/lib/libnacl.a(lseek_64d2d05c.o)
 .ARM.extab     0x0000000010020d5c        0x0 /Users/stevefar/nacl_sdk/pepper_45/toolchain/mac_arm_newlib/bin/../lib/gcc/arm-nacl/4.9.2/../../../../arm-nacl/lib/libnacl.a(read_df872e10.o)
 .ARM.extab     0x0000000010020d5c        0x0 /Users/stevefar/nacl_sdk/pepper_45/toolchain/mac_arm_newlib/bin/../lib/gcc/arm-nacl/4.9.2/../../../../arm-nacl/lib/libnacl.a(nanosleep_e59fdef1.o)
 .ARM.extab     0x0000000010020d5c        0x0 /Users/stevefar/nacl_sdk/pepper_45/toolchain/mac_arm_newlib/bin/../lib/gcc/arm-nacl/4.9.2/libgcc.a(_divdi3.o)
 .ARM.extab     0x0000000010020d5c        0x0 /Users/stevefar/nacl_sdk/pepper_45/toolchain/mac_arm_newlib/bin/../lib/gcc/arm-nacl/4.9.2/libgcc.a(_udivdi3.o)
                0x0000000010020d5c                PROVIDE (__exidx_start, .)

.ARM.exidx      0x0000000010020d5c      0x338
 *(.ARM.exidx* .gnu.linkonce.armexidx.*)
 .ARM.exidx.text.startup
                0x0000000010020d64       0x10 /Users/stevefar/nacl_sdk/pepper_45/toolchain/mac_arm_newlib/bin/../lib/gcc/arm-nacl/4.9.2/../../../../arm-nacl/lib/libppapi_stub.a(plugin_main_irt_21ce9d26.o)
                                          0x8 (size before relaxing)
 .ARM.exidx     0x0000000010020d74        0x8 /Users/stevefar/nacl_sdk/pepper_45/toolchain/mac_arm_newlib/bin/../lib/gcc/arm-nacl/4.9.2/../../../../arm-nacl/lib/libppapi_stub.a(ppapi_plugin_main_399d0cf7.o)
 .ARM.exidx.text.unlikely
                0x0000000010020d5c        0x8 /Users/stevefar/nacl_sdk/pepper_45/toolchain/mac_arm_newlib/bin/../lib/gcc/arm-nacl/4.9.2/../../../../arm-nacl/lib/libppapi_stub.a(ppapi_plugin_start_8da67623.o)
 .ARM.exidx     0x0000000010020d7c        0x8 /Users/stevefar/nacl_sdk/pepper_45/toolchain/mac_arm_newlib/bin/../lib/gcc/arm-nacl/4.9.2/../../../../arm-nacl/lib/libppapi_stub.a(ppapi_plugin_start_8da67623.o)
 .ARM.exidx     0x0000000010020d84        0x8 /Users/stevefar/nacl_sdk/pepper_45/toolchain/mac_arm_newlib/bin/../lib/gcc/arm-nacl/4.9.2/../../../../arm-nacl/lib/libppapi_stub.a(thread_creator_ccf263e1.o)
                                         0x18 (size before relaxing)
 .ARM.exidx     0x0000000010020d8c       0x90 /Users/stevefar/nacl_sdk/pepper_45/toolchain/mac_arm_newlib/bin/../lib/gcc/arm-nacl/4.9.2/../../../../arm-nacl/lib/libpthread.a(nc_thread_7e478b15.o)
                                        0x138 (size before relaxing)
 .ARM.exidx     0x0000000010020e1c       0x20 /Users/stevefar/nacl_sdk/pepper_45/toolchain/mac_arm_newlib/bin/../lib/gcc/arm-nacl/4.9.2/../../../../arm-nacl/lib/libpthread.a(nc_condvar_305aa45a.o)
                                         0x60 (size before relaxing)
 .ARM.exidx     0x0000000010020e3c        0x8 /Users/stevefar/nacl_sdk/pepper_45/toolchain/mac_arm_newlib/bin/../lib/gcc/arm-nacl/4.9.2/../../../../arm-nacl/lib/libpthread.a(dynamic_annotations_33ba59cc.o)
                                        0x130 (size before relaxing)
 .ARM.exidx     0x0000000010020e44       0x28 /Users/stevefar/nacl_sdk/pepper_45/toolchain/mac_arm_newlib/bin/../lib/gcc/arm-nacl/4.9.2/../../../../arm-nacl/lib/libpthread.a(nc_mutex_86341ae1.o)
                                         0x78 (size before relaxing)
 .ARM.exidx     0x0000000010020e6c        0x8 /Users/stevefar/nacl_sdk/pepper_45/toolchain/mac_arm_newlib/bin/../lib/gcc/arm-nacl/4.9.2/../../../../arm-nacl/lib/libpthread.a(nc_init_irt_d3daafc0.o)
 .ARM.exidx     0x0000000010020e74       0x80 /Users/stevefar/nacl_sdk/pepper_45/toolchain/mac_arm_newlib/bin/../lib/gcc/arm-nacl/4.9.2/libgcc.a(unwind-arm.o)
                                         0xd8 (size before relaxing)
 .ARM.exidx     0x0000000010020ef4       0x30 /Users/stevefar/nacl_sdk/pepper_45/toolchain/mac_arm_newlib/bin/../lib/gcc/arm-nacl/4.9.2/libgcc.a(pr-support.o)
                                         0x48 (size before relaxing)
 .ARM.exidx     0x0000000010020f24        0x8 /Users/stevefar/nacl_sdk/pepper_45/toolchain/mac_arm_newlib/bin/../lib/gcc/arm-nacl/4.9.2/../../../../arm-nacl/lib/libnacl.a(_exit_710c7d0d.o)
 .ARM.exidx     0x0000000010020f2c        0x0 /Users/stevefar/nacl_sdk/pepper_45/toolchain/mac_arm_newlib/bin/../lib/gcc/arm-nacl/4.9.2/../../../../arm-nacl/lib/libnacl.a(abort_9f6b5845.o)
                                          0x8 (size before relaxing)
 .ARM.exidx     0x0000000010020f2c       0xa8 /Users/stevefar/nacl_sdk/pepper_45/toolchain/mac_arm_newlib/bin/../lib/gcc/arm-nacl/4.9.2/../../../../arm-nacl/lib/libnacl.a(malloc_222c4a1e.o)
                                        0x108 (size before relaxing)
 .ARM.exidx     0x0000000010020fd4       0x10 /Users/stevefar/nacl_sdk/pepper_45/toolchain/mac_arm_newlib/bin/../lib/gcc/arm-nacl/4.9.2/../../../../arm-nacl/lib/libnacl.a(nacl_irt_6de1d53f.o)
                                         0x60 (size before relaxing)
 .ARM.exidx     0x0000000010020fe4        0x8 /Users/stevefar/nacl_sdk/pepper_45/toolchain/mac_arm_newlib/bin/../lib/gcc/arm-nacl/4.9.2/../../../../arm-nacl/lib/libnacl.a(pthread_initialize_minimal_4b6e776b.o)
 .ARM.exidx     0x0000000010020fec        0x8 /Users/stevefar/nacl_sdk/pepper_45/toolchain/mac_arm_newlib/bin/../lib/gcc/arm-nacl/4.9.2/../../../../arm-nacl/lib/libnacl.a(nacl_read_tp_5748ac47.o)
 .ARM.exidx     0x0000000010020ff4        0x0 /Users/stevefar/nacl_sdk/pepper_45/toolchain/mac_arm_newlib/bin/../lib/gcc/arm-nacl/4.9.2/../../../../arm-nacl/lib/libnacl.a(nacl_interface_query_ef8a99f1.o)
                                          0x8 (size before relaxing)
 .ARM.exidx     0x0000000010020ff4        0x8 /Users/stevefar/nacl_sdk/pepper_45/toolchain/mac_arm_newlib/bin/../lib/gcc/arm-nacl/4.9.2/../../../../arm-nacl/lib/libnacl.a(mmap_767fb080.o)
 .ARM.exidx     0x0000000010020ffc        0x8 /Users/stevefar/nacl_sdk/pepper_45/toolchain/mac_arm_newlib/bin/../lib/gcc/arm-nacl/4.9.2/../../../../arm-nacl/lib/libnacl.a(sched_yield_56c375be.o)
 .ARM.exidx     0x0000000010021004        0x8 /Users/stevefar/nacl_sdk/pepper_45/toolchain/mac_arm_newlib/bin/../lib/gcc/arm-nacl/4.9.2/../../../../arm-nacl/lib/libnacl.a(start_fa9ef7de.o)
 .ARM.exidx     0x000000001002100c        0x8 /Users/stevefar/nacl_sdk/pepper_45/toolchain/mac_arm_newlib/bin/../lib/gcc/arm-nacl/4.9.2/../../../../arm-nacl/lib/libnacl.a(munmap_d4f09867.o)
 .ARM.exidx     0x0000000010021014       0x20 /Users/stevefar/nacl_sdk/pepper_45/toolchain/mac_arm_newlib/bin/../lib/gcc/arm-nacl/4.9.2/../../../../arm-nacl/lib/libnacl.a(tls_bba1975b.o)
 .ARM.exidx     0x0000000010021034        0x8 /Users/stevefar/nacl_sdk/pepper_45/toolchain/mac_arm_newlib/bin/../lib/gcc/arm-nacl/4.9.2/../../../../arm-nacl/lib/libnacl.a(write_fb49787f.o)
 .ARM.exidx     0x000000001002103c        0x8 /Users/stevefar/nacl_sdk/pepper_45/toolchain/mac_arm_newlib/bin/../lib/gcc/arm-nacl/4.9.2/../../../../arm-nacl/lib/libnacl.a(nacl_tls_get_d2f842b5.o)
 .ARM.exidx     0x0000000010021044        0x8 /Users/stevefar/nacl_sdk/pepper_45/toolchain/mac_arm_newlib/bin/../lib/gcc/arm-nacl/4.9.2/../../../../arm-nacl/lib/libnacl.a(nacl_irt_init_7b4f826e.o)
                                         0x10 (size before relaxing)
 .ARM.exidx     0x000000001002104c        0x0 /Users/stevefar/nacl_sdk/pepper_45/toolchain/mac_arm_newlib/bin/../lib/gcc/arm-nacl/4.9.2/../../../../arm-nacl/lib/libnacl.a(sysconf_ad295ea2.o)
                                          0x8 (size before relaxing)
 .ARM.exidx     0x000000001002104c       0x10 /Users/stevefar/nacl_sdk/pepper_45/toolchain/mac_arm_newlib/bin/../lib/gcc/arm-nacl/4.9.2/../../../../arm-nacl/lib/libnacl.a(nacl_tls_init_eb0cd232.o)
                                          0x8 (size before relaxing)
 .ARM.exidx     0x000000001002105c        0x8 /Users/stevefar/nacl_sdk/pepper_45/toolchain/mac_arm_newlib/bin/../lib/gcc/arm-nacl/4.9.2/../../../../arm-nacl/lib/libnacl.a(close_e9b92fbd.o)
 .ARM.exidx     0x0000000010021064        0x8 /Users/stevefar/nacl_sdk/pepper_45/toolchain/mac_arm_newlib/bin/../lib/gcc/arm-nacl/4.9.2/../../../../arm-nacl/lib/libnacl.a(isatty_02f56e94.o)
 .ARM.exidx     0x000000001002106c        0x8 /Users/stevefar/nacl_sdk/pepper_45/toolchain/mac_arm_newlib/bin/../lib/gcc/arm-nacl/4.9.2/../../../../arm-nacl/lib/libnacl.a(nacl_irt_fdio_b571b5e7.o)
 .ARM.exidx     0x0000000010021074        0x0 /Users/stevefar/nacl_sdk/pepper_45/toolchain/mac_arm_newlib/bin/../lib/gcc/arm-nacl/4.9.2/../../../../arm-nacl/lib/libnacl.a(fstat_0540ff63.o)
                                          0x8 (size before relaxing)
 .ARM.exidx     0x0000000010021074        0x8 /Users/stevefar/nacl_sdk/pepper_45/toolchain/mac_arm_newlib/bin/../lib/gcc/arm-nacl/4.9.2/../../../../arm-nacl/lib/libnacl.a(lseek_64d2d05c.o)
 .ARM.exidx     0x000000001002107c        0x8 /Users/stevefar/nacl_sdk/pepper_45/toolchain/mac_arm_newlib/bin/../lib/gcc/arm-nacl/4.9.2/../../../../arm-nacl/lib/libnacl.a(read_df872e10.o)
 .ARM.exidx     0x0000000010021084       0x10 /Users/stevefar/nacl_sdk/pepper_45/toolchain/mac_arm_newlib/bin/../lib/gcc/arm-nacl/4.9.2/../../../../arm-nacl/lib/libnacl.a(nanosleep_e59fdef1.o)
                                          0x8 (size before relaxing)
 .ARM.exidx     0x0000000010021094        0x0 /Users/stevefar/nacl_sdk/pepper_45/toolchain/mac_arm_newlib/bin/../lib/gcc/arm-nacl/4.9.2/libgcc.a(_divdi3.o)
                                          0x8 (size before relaxing)
 .ARM.exidx     0x0000000010021094        0x0 /Users/stevefar/nacl_sdk/pepper_45/toolchain/mac_arm_newlib/bin/../lib/gcc/arm-nacl/4.9.2/libgcc.a(_udivdi3.o)
                                          0x8 (size before relaxing)
                0x0000000010021094                PROVIDE (__exidx_end, .)

.eh_frame_hdr   0x0000000010021094       0x14
 *(.eh_frame_hdr)
 .eh_frame_hdr  0x0000000010021094       0x14 /Users/stevefar/nacl_sdk/pepper_45/toolchain/mac_arm_newlib/bin/../lib/gcc/arm-nacl/4.9.2/../../../../arm-nacl/lib/libcrt_common.a(lib_a-strcmp.o)

.eh_frame       0x00000000100210a8       0x74
 *(.eh_frame)
 .eh_frame      0x00000000100210a8        0x0 /Users/stevefar/nacl_sdk/pepper_45/toolchain/mac_arm_newlib/bin/../lib/gcc/arm-nacl/4.9.2/crtbegin.o
 .eh_frame      0x00000000100210a8       0x70 /Users/stevefar/nacl_sdk/pepper_45/toolchain/mac_arm_newlib/bin/../lib/gcc/arm-nacl/4.9.2/../../../../arm-nacl/lib/libcrt_common.a(lib_a-strcmp.o)
 .eh_frame      0x0000000010021118        0x4 /Users/stevefar/nacl_sdk/pepper_45/toolchain/mac_arm_newlib/bin/../lib/gcc/arm-nacl/4.9.2/crtend.o

.gcc_except_table
 *(.gcc_except_table .gcc_except_table.*)

.exception_ranges
 *(.exception_ranges .exception_ranges*)
                0x000000001002111c                . = (ALIGN (0x10000) - ((0x10000 - .) & 0xffff))
                0x000000001003111c                . = DATA_SEGMENT_ALIGN (0x10000, 0x10000)

.eh_frame
 *(.eh_frame)

.gcc_except_table
 *(.gcc_except_table .gcc_except_table.*)

.exception_ranges
 *(.exception_ranges .exception_ranges*)

.tdata          0x0000000010031120      0x478
 *(.tdata .tdata.* .gnu.linkonce.td.*)
 .tdata         0x0000000010031120      0x478 /Users/stevefar/nacl_sdk/pepper_45/toolchain/mac_arm_newlib/bin/../lib/gcc/arm-nacl/4.9.2/../../../../arm-nacl/lib/libcrt_common.a(lib_a-impure.o)
                0x0000000010031120                _impure_ptr

.tbss           0x0000000010031598        0x8
 *(.tbss .tbss.* .gnu.linkonce.tb.*)
 .tbss          0x0000000010031598        0x8 /Users/stevefar/nacl_sdk/pepper_45/toolchain/mac_arm_newlib/bin/../lib/gcc/arm-nacl/4.9.2/../../../../arm-nacl/lib/libpthread.a(nc_thread_7e478b15.o)
 *(.tcommon)

.preinit_array  0x0000000010031598        0x0
                0x0000000010031598                PROVIDE (__preinit_array_start, .)
 *(.preinit_array)
                0x0000000010031598                PROVIDE (__preinit_array_end, .)

.init_array     0x0000000010031598        0x4
                0x0000000010031598                PROVIDE (__init_array_start, .)
 *(SORT(.init_array.*) SORT(.ctors.*))
 *(.init_array EXCLUDE_FILE(*crtend?.o *crtend.o *crtbegin?.o *crtbegin.o) .ctors)
 .init_array    0x0000000010031598        0x4 /Users/stevefar/nacl_sdk/pepper_45/toolchain/mac_arm_newlib/bin/../lib/gcc/arm-nacl/4.9.2/crtbegin.o
                0x000000001003159c                PROVIDE (__init_array_end, .)

.fini_array     0x000000001003159c        0x4
                0x000000001003159c                PROVIDE (__fini_array_start, .)
 *(SORT(.fini_array.*) SORT(.dtors.*))
 *(.fini_array EXCLUDE_FILE(*crtend?.o *crtend.o *crtbegin?.o *crtbegin.o) .dtors)
 .fini_array    0x000000001003159c        0x4 /Users/stevefar/nacl_sdk/pepper_45/toolchain/mac_arm_newlib/bin/../lib/gcc/arm-nacl/4.9.2/crtbegin.o
                0x00000000100315a0                PROVIDE (__fini_array_end, .)

.ctors
 *crtbegin.o(.ctors)
 *crtbegin?.o(.ctors)
 *(EXCLUDE_FILE(*crtend?.o *crtend.o) .ctors)
 *(SORT(.ctors.*))
 *(.ctors)

.dtors
 *crtbegin.o(.dtors)
 *crtbegin?.o(.dtors)
 *(EXCLUDE_FILE(*crtend?.o *crtend.o) .dtors)
 *(SORT(.dtors.*))
 *(.dtors)

.jcr            0x00000000100315a0        0x4
 *(.jcr)
 .jcr           0x00000000100315a0        0x0 /Users/stevefar/nacl_sdk/pepper_45/toolchain/mac_arm_newlib/bin/../lib/gcc/arm-nacl/4.9.2/crtbegin.o
 .jcr           0x00000000100315a0        0x4 /Users/stevefar/nacl_sdk/pepper_45/toolchain/mac_arm_newlib/bin/../lib/gcc/arm-nacl/4.9.2/crtend.o

.data.rel.ro    0x00000000100315a4       0x14
 *(.data.rel.ro.local* .gnu.linkonce.d.rel.ro.local.*)
 .data.rel.ro.local
                0x00000000100315a4        0x8 /Users/stevefar/nacl_sdk/pepper_45/toolchain/mac_arm_newlib/bin/../lib/gcc/arm-nacl/4.9.2/../../../../arm-nacl/lib/libppapi_stub.a(thread_creator_ccf263e1.o)
 *(.data.rel.ro .data.rel.ro.* .gnu.linkonce.d.rel.ro.*)
 .data.rel.ro   0x00000000100315ac        0xc /Users/stevefar/nacl_sdk/pepper_45/toolchain/mac_arm_newlib/bin/../lib/gcc/arm-nacl/4.9.2/../../../../arm-nacl/lib/libppapi_stub.a(ppapi_plugin_main_399d0cf7.o)

.dynamic
 *(.dynamic)
                0x00000000100315b8                . = DATA_SEGMENT_RELRO_END (., 0x0)

.got            0x00000000100315b8       0x24
 *(.got.plt)
 .got.plt       0x00000000100315b8        0xc /Users/stevefar/nacl_sdk/pepper_45/toolchain/mac_arm_newlib/bin/../lib/gcc/arm-nacl/4.9.2/crtbegin.o
                0x00000000100315b8                _GLOBAL_OFFSET_TABLE_
 *(.igot.plt)
 .igot.plt      0x00000000100315c4        0x0 /Users/stevefar/nacl_sdk/pepper_45/toolchain/mac_arm_newlib/bin/../lib/gcc/arm-nacl/4.9.2/crtbegin.o
 *(.got)
 .got           0x00000000100315c4       0x18 /Users/stevefar/nacl_sdk/pepper_45/toolchain/mac_arm_newlib/bin/../lib/gcc/arm-nacl/4.9.2/crtbegin.o
 *(.igot)

.data           0x00000000100315e0      0x690
                0x00000000100315e0                PROVIDE (__data_start, .)
 *(.data .data.* .gnu.linkonce.d.*)
 .data          0x00000000100315e0        0x0 /Users/stevefar/nacl_sdk/pepper_45/toolchain/mac_arm_newlib/bin/../lib/gcc/arm-nacl/4.9.2/../../../../arm-nacl/lib/crti.o
 .data          0x00000000100315e0        0x4 /Users/stevefar/nacl_sdk/pepper_45/toolchain/mac_arm_newlib/bin/../lib/gcc/arm-nacl/4.9.2/crtbegin.o
                0x00000000100315e0                __dso_handle
 .data          0x00000000100315e4       0x18 newlib/Release/debugging_arm.o
 .data          0x00000000100315fc        0x0 /Users/stevefar/nacl_sdk/pepper_45/lib/newlib_arm/Release/liberror_handling.a(error_handling_arm.o)
 .data          0x00000000100315fc        0x0 /Users/stevefar/nacl_sdk/pepper_45/lib/newlib_arm/Release/liberror_handling.a(string_stream_arm.o)
 .data          0x00000000100315fc        0x0 /Users/stevefar/nacl_sdk/pepper_45/toolchain/mac_arm_newlib/bin/../lib/gcc/arm-nacl/4.9.2/../../../../arm-nacl/lib/libppapi_stub.a(plugin_main_irt_21ce9d26.o)
 .data          0x00000000100315fc        0x0 /Users/stevefar/nacl_sdk/pepper_45/toolchain/mac_arm_newlib/bin/../lib/gcc/arm-nacl/4.9.2/../../../../arm-nacl/lib/libppapi_stub.a(ppapi_plugin_main_399d0cf7.o)
 .data          0x00000000100315fc        0x0 /Users/stevefar/nacl_sdk/pepper_45/toolchain/mac_arm_newlib/bin/../lib/gcc/arm-nacl/4.9.2/../../../../arm-nacl/lib/libppapi_stub.a(ppapi_plugin_start_8da67623.o)
 .data          0x00000000100315fc        0x0 /Users/stevefar/nacl_sdk/pepper_45/toolchain/mac_arm_newlib/bin/../lib/gcc/arm-nacl/4.9.2/../../../../arm-nacl/lib/libppapi_stub.a(thread_creator_ccf263e1.o)
 .data          0x00000000100315fc        0x4 /Users/stevefar/nacl_sdk/pepper_45/toolchain/mac_arm_newlib/bin/../lib/gcc/arm-nacl/4.9.2/../../../../arm-nacl/lib/libpthread.a(nc_thread_7e478b15.o)
                0x00000000100315fc                __nc_running_threads_counter
 .data          0x0000000010031600        0x0 /Users/stevefar/nacl_sdk/pepper_45/toolchain/mac_arm_newlib/bin/../lib/gcc/arm-nacl/4.9.2/../../../../arm-nacl/lib/libpthread.a(nc_condvar_305aa45a.o)
 .data          0x0000000010031600        0x4 /Users/stevefar/nacl_sdk/pepper_45/toolchain/mac_arm_newlib/bin/../lib/gcc/arm-nacl/4.9.2/../../../../arm-nacl/lib/libpthread.a(dynamic_annotations_33ba59cc.o)
 .data          0x0000000010031604        0x0 /Users/stevefar/nacl_sdk/pepper_45/toolchain/mac_arm_newlib/bin/../lib/gcc/arm-nacl/4.9.2/../../../../arm-nacl/lib/libpthread.a(nc_mutex_86341ae1.o)
 .data          0x0000000010031604        0x0 /Users/stevefar/nacl_sdk/pepper_45/toolchain/mac_arm_newlib/bin/../lib/gcc/arm-nacl/4.9.2/../../../../arm-nacl/lib/libpthread.a(nc_init_irt_d3daafc0.o)
 .data          0x0000000010031604        0x0 /Users/stevefar/nacl_sdk/pepper_45/toolchain/mac_arm_newlib/bin/../lib/gcc/arm-nacl/4.9.2/libgcc.a(unwind-arm.o)
 .data          0x0000000010031604        0x0 /Users/stevefar/nacl_sdk/pepper_45/toolchain/mac_arm_newlib/bin/../lib/gcc/arm-nacl/4.9.2/libgcc.a(libunwind.o)
 .data          0x0000000010031604        0x0 /Users/stevefar/nacl_sdk/pepper_45/toolchain/mac_arm_newlib/bin/../lib/gcc/arm-nacl/4.9.2/libgcc.a(pr-support.o)
 .data          0x0000000010031604        0x0 /Users/stevefar/nacl_sdk/pepper_45/toolchain/mac_arm_newlib/bin/../lib/gcc/arm-nacl/4.9.2/../../../../arm-nacl/lib/libnacl.a(_exit_710c7d0d.o)
 .data          0x0000000010031604        0x0 /Users/stevefar/nacl_sdk/pepper_45/toolchain/mac_arm_newlib/bin/../lib/gcc/arm-nacl/4.9.2/../../../../arm-nacl/lib/libnacl.a(abort_9f6b5845.o)
 .data          0x0000000010031604        0x4 /Users/stevefar/nacl_sdk/pepper_45/toolchain/mac_arm_newlib/bin/../lib/gcc/arm-nacl/4.9.2/../../../../arm-nacl/lib/libnacl.a(environ_25cd24d8.o)
                0x0000000010031604                environ
 .data          0x0000000010031608        0x0 /Users/stevefar/nacl_sdk/pepper_45/toolchain/mac_arm_newlib/bin/../lib/gcc/arm-nacl/4.9.2/../../../../arm-nacl/lib/libnacl.a(malloc_222c4a1e.o)
 .data          0x0000000010031608       0x20 /Users/stevefar/nacl_sdk/pepper_45/toolchain/mac_arm_newlib/bin/../lib/gcc/arm-nacl/4.9.2/../../../../arm-nacl/lib/libnacl.a(nacl_irt_6de1d53f.o)
                0x0000000010031608                __libnacl_irt_fdio
 .data          0x0000000010031628        0x0 /Users/stevefar/nacl_sdk/pepper_45/toolchain/mac_arm_newlib/bin/../lib/gcc/arm-nacl/4.9.2/../../../../arm-nacl/lib/libnacl.a(pthread_initialize_minimal_4b6e776b.o)
 .data          0x0000000010031628        0x0 /Users/stevefar/nacl_sdk/pepper_45/toolchain/mac_arm_newlib/bin/../lib/gcc/arm-nacl/4.9.2/../../../../arm-nacl/lib/libnacl.a(nacl_read_tp_5748ac47.o)
 .data          0x0000000010031628        0x0 /Users/stevefar/nacl_sdk/pepper_45/toolchain/mac_arm_newlib/bin/../lib/gcc/arm-nacl/4.9.2/../../../../arm-nacl/lib/libnacl.a(nacl_interface_query_ef8a99f1.o)
 .data          0x0000000010031628        0x0 /Users/stevefar/nacl_sdk/pepper_45/toolchain/mac_arm_newlib/bin/../lib/gcc/arm-nacl/4.9.2/../../../../arm-nacl/lib/libnacl.a(mmap_767fb080.o)
 .data          0x0000000010031628        0x0 /Users/stevefar/nacl_sdk/pepper_45/toolchain/mac_arm_newlib/bin/../lib/gcc/arm-nacl/4.9.2/../../../../arm-nacl/lib/libnacl.a(sched_yield_56c375be.o)
 .data          0x0000000010031628        0x0 /Users/stevefar/nacl_sdk/pepper_45/toolchain/mac_arm_newlib/bin/../lib/gcc/arm-nacl/4.9.2/../../../../arm-nacl/lib/libnacl.a(start_fa9ef7de.o)
 .data          0x0000000010031628        0x0 /Users/stevefar/nacl_sdk/pepper_45/toolchain/mac_arm_newlib/bin/../lib/gcc/arm-nacl/4.9.2/../../../../arm-nacl/lib/libnacl.a(munmap_d4f09867.o)
 .data          0x0000000010031628        0x0 /Users/stevefar/nacl_sdk/pepper_45/toolchain/mac_arm_newlib/bin/../lib/gcc/arm-nacl/4.9.2/../../../../arm-nacl/lib/libnacl.a(tls_bba1975b.o)
 .data          0x0000000010031628        0x0 /Users/stevefar/nacl_sdk/pepper_45/toolchain/mac_arm_newlib/bin/../lib/gcc/arm-nacl/4.9.2/../../../../arm-nacl/lib/libnacl.a(write_fb49787f.o)
 .data          0x0000000010031628        0x0 /Users/stevefar/nacl_sdk/pepper_45/toolchain/mac_arm_newlib/bin/../lib/gcc/arm-nacl/4.9.2/../../../../arm-nacl/lib/libnacl.a(nacl_tls_get_d2f842b5.o)
 .data          0x0000000010031628        0x0 /Users/stevefar/nacl_sdk/pepper_45/toolchain/mac_arm_newlib/bin/../lib/gcc/arm-nacl/4.9.2/../../../../arm-nacl/lib/libnacl.a(nacl_irt_init_7b4f826e.o)
 .data          0x0000000010031628        0x0 /Users/stevefar/nacl_sdk/pepper_45/toolchain/mac_arm_newlib/bin/../lib/gcc/arm-nacl/4.9.2/../../../../arm-nacl/lib/libnacl.a(sysconf_ad295ea2.o)
 .data          0x0000000010031628        0x0 /Users/stevefar/nacl_sdk/pepper_45/toolchain/mac_arm_newlib/bin/../lib/gcc/arm-nacl/4.9.2/../../../../arm-nacl/lib/libnacl.a(nacl_tls_init_eb0cd232.o)
 .data          0x0000000010031628        0x0 /Users/stevefar/nacl_sdk/pepper_45/toolchain/mac_arm_newlib/bin/../lib/gcc/arm-nacl/4.9.2/../../../../arm-nacl/lib/libcrt_common.a(lib_a-atexit.o)
 .data          0x0000000010031628        0x0 /Users/stevefar/nacl_sdk/pepper_45/toolchain/mac_arm_newlib/bin/../lib/gcc/arm-nacl/4.9.2/../../../../arm-nacl/lib/libcrt_common.a(lib_a-errno.o)
 .data          0x0000000010031628        0x0 /Users/stevefar/nacl_sdk/pepper_45/toolchain/mac_arm_newlib/bin/../lib/gcc/arm-nacl/4.9.2/../../../../arm-nacl/lib/libcrt_common.a(lib_a-exit.o)
 .data          0x0000000010031628        0x0 /Users/stevefar/nacl_sdk/pepper_45/toolchain/mac_arm_newlib/bin/../lib/gcc/arm-nacl/4.9.2/../../../../arm-nacl/lib/libcrt_common.a(lib_a-fflush.o)
 .data          0x0000000010031628       0x28 /Users/stevefar/nacl_sdk/pepper_45/toolchain/mac_arm_newlib/bin/../lib/gcc/arm-nacl/4.9.2/../../../../arm-nacl/lib/libcrt_common.a(lib_a-findfp.o)
 .data          0x0000000010031650        0x0 /Users/stevefar/nacl_sdk/pepper_45/toolchain/mac_arm_newlib/bin/../lib/gcc/arm-nacl/4.9.2/../../../../arm-nacl/lib/libcrt_common.a(lib_a-fini.o)
 .data          0x0000000010031650        0x0 /Users/stevefar/nacl_sdk/pepper_45/toolchain/mac_arm_newlib/bin/../lib/gcc/arm-nacl/4.9.2/../../../../arm-nacl/lib/libcrt_common.a(lib_a-fprintf.o)
 .data          0x0000000010031650        0x0 /Users/stevefar/nacl_sdk/pepper_45/toolchain/mac_arm_newlib/bin/../lib/gcc/arm-nacl/4.9.2/../../../../arm-nacl/lib/libcrt_common.a(lib_a-fwalk.o)
 .data          0x0000000010031650        0x0 /Users/stevefar/nacl_sdk/pepper_45/toolchain/mac_arm_newlib/bin/../lib/gcc/arm-nacl/4.9.2/../../../../arm-nacl/lib/libcrt_common.a(lib_a-fwrite.o)
 .data          0x0000000010031650        0x0 /Users/stevefar/nacl_sdk/pepper_45/toolchain/mac_arm_newlib/bin/../lib/gcc/arm-nacl/4.9.2/../../../../arm-nacl/lib/libcrt_common.a(lib_a-getenv.o)
 .data          0x0000000010031650        0x0 /Users/stevefar/nacl_sdk/pepper_45/toolchain/mac_arm_newlib/bin/../lib/gcc/arm-nacl/4.9.2/../../../../arm-nacl/lib/libcrt_common.a(lib_a-getenv_r.o)
 .data          0x0000000010031650      0x470 /Users/stevefar/nacl_sdk/pepper_45/toolchain/mac_arm_newlib/bin/../lib/gcc/arm-nacl/4.9.2/../../../../arm-nacl/lib/libcrt_common.a(lib_a-impure.o)
 .data          0x0000000010031ac0        0x0 /Users/stevefar/nacl_sdk/pepper_45/toolchain/mac_arm_newlib/bin/../lib/gcc/arm-nacl/4.9.2/../../../../arm-nacl/lib/libcrt_common.a(lib_a-init.o)
 .data          0x0000000010031ac0        0x0 /Users/stevefar/nacl_sdk/pepper_45/toolchain/mac_arm_newlib/bin/../lib/gcc/arm-nacl/4.9.2/../../../../arm-nacl/lib/libcrt_common.a(lib_a-memcpy.o)
 .data          0x0000000010031ac0        0x0 /Users/stevefar/nacl_sdk/pepper_45/toolchain/mac_arm_newlib/bin/../lib/gcc/arm-nacl/4.9.2/../../../../arm-nacl/lib/libcrt_common.a(lib_a-memset.o)
 .data          0x0000000010031ac0        0x0 /Users/stevefar/nacl_sdk/pepper_45/toolchain/mac_arm_newlib/bin/../lib/gcc/arm-nacl/4.9.2/../../../../arm-nacl/lib/libcrt_common.a(lib_a-sleep.o)
 .data          0x0000000010031ac0        0x0 /Users/stevefar/nacl_sdk/pepper_45/toolchain/mac_arm_newlib/bin/../lib/gcc/arm-nacl/4.9.2/../../../../arm-nacl/lib/libcrt_common.a(lib_a-stdio.o)
 .data          0x0000000010031ac0        0x0 /Users/stevefar/nacl_sdk/pepper_45/toolchain/mac_arm_newlib/bin/../lib/gcc/arm-nacl/4.9.2/../../../../arm-nacl/lib/libcrt_common.a(lib_a-strcmp.o)
 .data          0x0000000010031ac0        0x0 /Users/stevefar/nacl_sdk/pepper_45/toolchain/mac_arm_newlib/bin/../lib/gcc/arm-nacl/4.9.2/../../../../arm-nacl/lib/libcrt_common.a(lib_a-strlen-armv7.o)
 .data          0x0000000010031ac0        0x0 /Users/stevefar/nacl_sdk/pepper_45/toolchain/mac_arm_newlib/bin/../lib/gcc/arm-nacl/4.9.2/../../../../arm-nacl/lib/libcrt_common.a(lib_a-strncmp.o)
 .data          0x0000000010031ac0        0x0 /Users/stevefar/nacl_sdk/pepper_45/toolchain/mac_arm_newlib/bin/../lib/gcc/arm-nacl/4.9.2/../../../../arm-nacl/lib/libcrt_common.a(lib_a-vfprintf.o)
 .data          0x0000000010031ac0        0x0 /Users/stevefar/nacl_sdk/pepper_45/toolchain/mac_arm_newlib/bin/../lib/gcc/arm-nacl/4.9.2/../../../../arm-nacl/lib/libcrt_common.a(lib_a-vsnprintf.o)
 .data          0x0000000010031ac0        0x0 /Users/stevefar/nacl_sdk/pepper_45/toolchain/mac_arm_newlib/bin/../lib/gcc/arm-nacl/4.9.2/../../../../arm-nacl/lib/libcrt_common.a(lib_a-vsprintf.o)
 .data          0x0000000010031ac0        0x0 /Users/stevefar/nacl_sdk/pepper_45/toolchain/mac_arm_newlib/bin/../lib/gcc/arm-nacl/4.9.2/../../../../arm-nacl/lib/libcrt_common.a(lib_a-wcrtomb.o)
 .data          0x0000000010031ac0        0x0 /Users/stevefar/nacl_sdk/pepper_45/toolchain/mac_arm_newlib/bin/../lib/gcc/arm-nacl/4.9.2/../../../../arm-nacl/lib/libcrt_common.a(lib_a-wcsrtombs.o)
 .data          0x0000000010031ac0        0x4 /Users/stevefar/nacl_sdk/pepper_45/toolchain/mac_arm_newlib/bin/../lib/gcc/arm-nacl/4.9.2/../../../../arm-nacl/lib/libcrt_common.a(lib_a-wctomb_r.o)
                0x0000000010031ac0                __wctomb
 .data          0x0000000010031ac4        0x0 /Users/stevefar/nacl_sdk/pepper_45/toolchain/mac_arm_newlib/bin/../lib/gcc/arm-nacl/4.9.2/../../../../arm-nacl/lib/libcrt_common.a(lib_a-wsetup.o)
 .data          0x0000000010031ac4        0x0 /Users/stevefar/nacl_sdk/pepper_45/toolchain/mac_arm_newlib/bin/../lib/gcc/arm-nacl/4.9.2/../../../../arm-nacl/lib/libcrt_common.a(lib_a-__atexit.o)
 .data          0x0000000010031ac4       0x14 /Users/stevefar/nacl_sdk/pepper_45/toolchain/mac_arm_newlib/bin/../lib/gcc/arm-nacl/4.9.2/../../../../arm-nacl/lib/libcrt_common.a(lib_a-__call_atexit.o)
                0x0000000010031ac4                __atexit_lock
 .data          0x0000000010031ad8        0x0 /Users/stevefar/nacl_sdk/pepper_45/toolchain/mac_arm_newlib/bin/../lib/gcc/arm-nacl/4.9.2/../../../../arm-nacl/lib/libcrt_common.a(lib_a-dtoa.o)
 .data          0x0000000010031ad8       0x14 /Users/stevefar/nacl_sdk/pepper_45/toolchain/mac_arm_newlib/bin/../lib/gcc/arm-nacl/4.9.2/../../../../arm-nacl/lib/libcrt_common.a(lib_a-envlock.o)
 .data          0x0000000010031aec        0x0 /Users/stevefar/nacl_sdk/pepper_45/toolchain/mac_arm_newlib/bin/../lib/gcc/arm-nacl/4.9.2/../../../../arm-nacl/lib/libcrt_common.a(lib_a-fclose.o)
 .data          0x0000000010031aec        0x0 /Users/stevefar/nacl_sdk/pepper_45/toolchain/mac_arm_newlib/bin/../lib/gcc/arm-nacl/4.9.2/../../../../arm-nacl/lib/libcrt_common.a(lib_a-fvwrite.o)
 .data          0x0000000010031aec      0x17c /Users/stevefar/nacl_sdk/pepper_45/toolchain/mac_arm_newlib/bin/../lib/gcc/arm-nacl/4.9.2/../../../../arm-nacl/lib/libcrt_common.a(lib_a-locale.o)
                0x0000000010031aec                __default_locale
                0x0000000010031c0c                __mb_cur_max
 .data          0x0000000010031c68        0x0 /Users/stevefar/nacl_sdk/pepper_45/toolchain/mac_arm_newlib/bin/../lib/gcc/arm-nacl/4.9.2/../../../../arm-nacl/lib/libcrt_common.a(lib_a-makebuf.o)
 .data          0x0000000010031c68        0x4 /Users/stevefar/nacl_sdk/pepper_45/toolchain/mac_arm_newlib/bin/../lib/gcc/arm-nacl/4.9.2/../../../../arm-nacl/lib/libcrt_common.a(lib_a-mbtowc_r.o)
                0x0000000010031c68                __mbtowc
 .data          0x0000000010031c6c        0x0 /Users/stevefar/nacl_sdk/pepper_45/toolchain/mac_arm_newlib/bin/../lib/gcc/arm-nacl/4.9.2/../../../../arm-nacl/lib/libcrt_common.a(lib_a-memchr.o)
 .data          0x0000000010031c6c        0x0 /Users/stevefar/nacl_sdk/pepper_45/toolchain/mac_arm_newlib/bin/../lib/gcc/arm-nacl/4.9.2/../../../../arm-nacl/lib/libcrt_common.a(lib_a-memmove.o)
 .data          0x0000000010031c6c        0x0 /Users/stevefar/nacl_sdk/pepper_45/toolchain/mac_arm_newlib/bin/../lib/gcc/arm-nacl/4.9.2/../../../../arm-nacl/lib/libcrt_common.a(lib_a-mprec.o)
 .data          0x0000000010031c6c        0x0 /Users/stevefar/nacl_sdk/pepper_45/toolchain/mac_arm_newlib/bin/../lib/gcc/arm-nacl/4.9.2/../../../../arm-nacl/lib/libcrt_common.a(lib_a-s_fpclassify.o)
 .data          0x0000000010031c6c        0x0 /Users/stevefar/nacl_sdk/pepper_45/toolchain/mac_arm_newlib/bin/../lib/gcc/arm-nacl/4.9.2/../../../../arm-nacl/lib/libcrt_common.a(lib_a-s_frexp.o)
 .data          0x0000000010031c6c        0x0 /Users/stevefar/nacl_sdk/pepper_45/toolchain/mac_arm_newlib/bin/../lib/gcc/arm-nacl/4.9.2/../../../../arm-nacl/lib/libcrt_common.a(lib_a-strcasecmp.o)
 .data          0x0000000010031c6c        0x0 /Users/stevefar/nacl_sdk/pepper_45/toolchain/mac_arm_newlib/bin/../lib/gcc/arm-nacl/4.9.2/../../../../arm-nacl/lib/libcrt_common.a(lib_a-strcat.o)
 .data          0x0000000010031c6c        0x0 /Users/stevefar/nacl_sdk/pepper_45/toolchain/mac_arm_newlib/bin/../lib/gcc/arm-nacl/4.9.2/../../../../arm-nacl/lib/libcrt_common.a(lib_a-strchr.o)
 .data          0x0000000010031c6c        0x0 /Users/stevefar/nacl_sdk/pepper_45/toolchain/mac_arm_newlib/bin/../lib/gcc/arm-nacl/4.9.2/../../../../arm-nacl/lib/libcrt_common.a(lib_a-strcpy.o)
 .data          0x0000000010031c6c        0x0 /Users/stevefar/nacl_sdk/pepper_45/toolchain/mac_arm_newlib/bin/../lib/gcc/arm-nacl/4.9.2/../../../../arm-nacl/lib/libcrt_common.a(lib_a-strlcpy.o)
 .data          0x0000000010031c6c        0x0 /Users/stevefar/nacl_sdk/pepper_45/toolchain/mac_arm_newlib/bin/../lib/gcc/arm-nacl/4.9.2/../../../../arm-nacl/lib/libcrt_common.a(lib_a-strncasecmp.o)
 .data          0x0000000010031c6c        0x0 /Users/stevefar/nacl_sdk/pepper_45/toolchain/mac_arm_newlib/bin/../lib/gcc/arm-nacl/4.9.2/../../../../arm-nacl/lib/libcrt_common.a(lib_a-strncpy.o)
 .data          0x0000000010031c6c        0x0 /Users/stevefar/nacl_sdk/pepper_45/toolchain/mac_arm_newlib/bin/../lib/gcc/arm-nacl/4.9.2/../../../../arm-nacl/lib/libcrt_common.a(lib_a-strtol.o)
 .data          0x0000000010031c6c        0x0 /Users/stevefar/nacl_sdk/pepper_45/toolchain/mac_arm_newlib/bin/../lib/gcc/arm-nacl/4.9.2/../../../../arm-nacl/lib/libcrt_common.a(lib_a-svfprintf.o)
 .data          0x0000000010031c6c        0x0 /Users/stevefar/nacl_sdk/pepper_45/toolchain/mac_arm_newlib/bin/../lib/gcc/arm-nacl/4.9.2/../../../../arm-nacl/lib/libcrt_common.a(lib_a-vfiprintf.o)
 .data          0x0000000010031c6c        0x0 /Users/stevefar/nacl_sdk/pepper_45/toolchain/mac_arm_newlib/bin/../lib/gcc/arm-nacl/4.9.2/../../../../arm-nacl/lib/libcrt_common.a(lib_a-wcsnrtombs.o)
 .data          0x0000000010031c6c        0x4 /Users/stevefar/nacl_sdk/pepper_45/toolchain/mac_arm_newlib/bin/../lib/gcc/arm-nacl/4.9.2/../../../../arm-nacl/lib/libcrt_common.a(lib_a-ctype_.o)
                0x0000000010031c6c                __ctype_ptr__
 .data          0x0000000010031c70        0x0 /Users/stevefar/nacl_sdk/pepper_45/toolchain/mac_arm_newlib/bin/../lib/gcc/arm-nacl/4.9.2/../../../../arm-nacl/lib/libcrt_common.a(lib_a-fputwc.o)
 .data          0x0000000010031c70        0x0 /Users/stevefar/nacl_sdk/pepper_45/toolchain/mac_arm_newlib/bin/../lib/gcc/arm-nacl/4.9.2/../../../../arm-nacl/lib/libcrt_common.a(lib_a-svfiprintf.o)
 .data          0x0000000010031c70        0x0 /Users/stevefar/nacl_sdk/pepper_45/toolchain/mac_arm_newlib/bin/../lib/gcc/arm-nacl/4.9.2/../../../../arm-nacl/lib/libcrt_common.a(lib_a-wbuf.o)
 .data          0x0000000010031c70        0x0 /Users/stevefar/nacl_sdk/pepper_45/toolchain/mac_arm_newlib/bin/../lib/gcc/arm-nacl/4.9.2/../../../../arm-nacl/lib/libnacl.a(close_e9b92fbd.o)
 .data          0x0000000010031c70        0x0 /Users/stevefar/nacl_sdk/pepper_45/toolchain/mac_arm_newlib/bin/../lib/gcc/arm-nacl/4.9.2/../../../../arm-nacl/lib/libnacl.a(isatty_02f56e94.o)
 .data          0x0000000010031c70        0x0 /Users/stevefar/nacl_sdk/pepper_45/toolchain/mac_arm_newlib/bin/../lib/gcc/arm-nacl/4.9.2/../../../../arm-nacl/lib/libnacl.a(nacl_irt_fdio_b571b5e7.o)
 .data          0x0000000010031c70        0x0 /Users/stevefar/nacl_sdk/pepper_45/toolchain/mac_arm_newlib/bin/../lib/gcc/arm-nacl/4.9.2/../../../../arm-nacl/lib/libnacl.a(fstat_0540ff63.o)
 .data          0x0000000010031c70        0x0 /Users/stevefar/nacl_sdk/pepper_45/toolchain/mac_arm_newlib/bin/../lib/gcc/arm-nacl/4.9.2/../../../../arm-nacl/lib/libnacl.a(lseek_64d2d05c.o)
 .data          0x0000000010031c70        0x0 /Users/stevefar/nacl_sdk/pepper_45/toolchain/mac_arm_newlib/bin/../lib/gcc/arm-nacl/4.9.2/../../../../arm-nacl/lib/libnacl.a(read_df872e10.o)
 .data          0x0000000010031c70        0x0 /Users/stevefar/nacl_sdk/pepper_45/toolchain/mac_arm_newlib/bin/../lib/gcc/arm-nacl/4.9.2/../../../../arm-nacl/lib/libnacl.a(nanosleep_e59fdef1.o)
 .data          0x0000000010031c70        0x0 /Users/stevefar/nacl_sdk/pepper_45/toolchain/mac_arm_newlib/bin/../lib/gcc/arm-nacl/4.9.2/libgcc.a(_udivsi3.o)
 .data          0x0000000010031c70        0x0 /Users/stevefar/nacl_sdk/pepper_45/toolchain/mac_arm_newlib/bin/../lib/gcc/arm-nacl/4.9.2/libgcc.a(_divsi3.o)
 .data          0x0000000010031c70        0x0 /Users/stevefar/nacl_sdk/pepper_45/toolchain/mac_arm_newlib/bin/../lib/gcc/arm-nacl/4.9.2/libgcc.a(_aeabi_uldivmod.o)
 .data          0x0000000010031c70        0x0 /Users/stevefar/nacl_sdk/pepper_45/toolchain/mac_arm_newlib/bin/../lib/gcc/arm-nacl/4.9.2/libgcc.a(_dvmd_nacl.o)
 .data          0x0000000010031c70        0x0 /Users/stevefar/nacl_sdk/pepper_45/toolchain/mac_arm_newlib/bin/../lib/gcc/arm-nacl/4.9.2/libgcc.a(bpabi.o)
 .data          0x0000000010031c70        0x0 /Users/stevefar/nacl_sdk/pepper_45/toolchain/mac_arm_newlib/bin/../lib/gcc/arm-nacl/4.9.2/libgcc.a(_divdi3.o)
 .data          0x0000000010031c70        0x0 /Users/stevefar/nacl_sdk/pepper_45/toolchain/mac_arm_newlib/bin/../lib/gcc/arm-nacl/4.9.2/libgcc.a(_udivdi3.o)
 .data          0x0000000010031c70        0x0 /Users/stevefar/nacl_sdk/pepper_45/toolchain/mac_arm_newlib/bin/../lib/gcc/arm-nacl/4.9.2/crtend.o
 .data          0x0000000010031c70        0x0 /Users/stevefar/nacl_sdk/pepper_45/toolchain/mac_arm_newlib/bin/../lib/gcc/arm-nacl/4.9.2/../../../../arm-nacl/lib/crtn.o

.tm_clone_table
                0x0000000010031c70        0x0
 .tm_clone_table
                0x0000000010031c70        0x0 /Users/stevefar/nacl_sdk/pepper_45/toolchain/mac_arm_newlib/bin/../lib/gcc/arm-nacl/4.9.2/crtbegin.o
 .tm_clone_table
                0x0000000010031c70        0x0 /Users/stevefar/nacl_sdk/pepper_45/toolchain/mac_arm_newlib/bin/../lib/gcc/arm-nacl/4.9.2/crtend.o

.data1
 *(.data1)
                0x0000000010031c70                _edata = .
                0x0000000010031c70                PROVIDE (edata, .)
                0x0000000010031c70                . = .
                0x0000000010031c70                __bss_start = .
                0x0000000010031c70                __bss_start__ = .

.bss            0x0000000010031c70     0x1620
 *(.dynbss)
 *(.bss .bss.* .gnu.linkonce.b.*)
 .bss           0x0000000010031c70        0x0 /Users/stevefar/nacl_sdk/pepper_45/toolchain/mac_arm_newlib/bin/../lib/gcc/arm-nacl/4.9.2/../../../../arm-nacl/lib/crti.o
 .bss           0x0000000010031c70       0x1c /Users/stevefar/nacl_sdk/pepper_45/toolchain/mac_arm_newlib/bin/../lib/gcc/arm-nacl/4.9.2/crtbegin.o
 .bss           0x0000000010031c8c       0x10 newlib/Release/debugging_arm.o
                0x0000000010031c8c                g_CrashTime
                0x0000000010031c90                ppb_messaging_interface
                0x0000000010031c94                ppb_var_interface
                0x0000000010031c98                ppb_core_interface
 .bss           0x0000000010031c9c       0x18 /Users/stevefar/nacl_sdk/pepper_45/lib/newlib_arm/Release/liberror_handling.a(error_handling_arm.o)
 .bss           0x0000000010031cb4        0x0 /Users/stevefar/nacl_sdk/pepper_45/lib/newlib_arm/Release/liberror_handling.a(string_stream_arm.o)
 .bss           0x0000000010031cb4        0x0 /Users/stevefar/nacl_sdk/pepper_45/toolchain/mac_arm_newlib/bin/../lib/gcc/arm-nacl/4.9.2/../../../../arm-nacl/lib/libppapi_stub.a(plugin_main_irt_21ce9d26.o)
 .bss           0x0000000010031cb4        0x0 /Users/stevefar/nacl_sdk/pepper_45/toolchain/mac_arm_newlib/bin/../lib/gcc/arm-nacl/4.9.2/../../../../arm-nacl/lib/libppapi_stub.a(ppapi_plugin_main_399d0cf7.o)
 .bss           0x0000000010031cb4        0x0 /Users/stevefar/nacl_sdk/pepper_45/toolchain/mac_arm_newlib/bin/../lib/gcc/arm-nacl/4.9.2/../../../../arm-nacl/lib/libppapi_stub.a(ppapi_plugin_start_8da67623.o)
 .bss           0x0000000010031cb4        0x0 /Users/stevefar/nacl_sdk/pepper_45/toolchain/mac_arm_newlib/bin/../lib/gcc/arm-nacl/4.9.2/../../../../arm-nacl/lib/libppapi_stub.a(thread_creator_ccf263e1.o)
 .bss           0x0000000010031cb4     0x1008 /Users/stevefar/nacl_sdk/pepper_45/toolchain/mac_arm_newlib/bin/../lib/gcc/arm-nacl/4.9.2/../../../../arm-nacl/lib/libpthread.a(nc_thread_7e478b15.o)
 .bss           0x0000000010032cbc        0x0 /Users/stevefar/nacl_sdk/pepper_45/toolchain/mac_arm_newlib/bin/../lib/gcc/arm-nacl/4.9.2/../../../../arm-nacl/lib/libpthread.a(nc_condvar_305aa45a.o)
 .bss           0x0000000010032cbc        0x0 /Users/stevefar/nacl_sdk/pepper_45/toolchain/mac_arm_newlib/bin/../lib/gcc/arm-nacl/4.9.2/../../../../arm-nacl/lib/libpthread.a(dynamic_annotations_33ba59cc.o)
 .bss           0x0000000010032cbc        0x0 /Users/stevefar/nacl_sdk/pepper_45/toolchain/mac_arm_newlib/bin/../lib/gcc/arm-nacl/4.9.2/../../../../arm-nacl/lib/libpthread.a(nc_mutex_86341ae1.o)
 .bss           0x0000000010032cbc        0x0 /Users/stevefar/nacl_sdk/pepper_45/toolchain/mac_arm_newlib/bin/../lib/gcc/arm-nacl/4.9.2/../../../../arm-nacl/lib/libpthread.a(nc_init_irt_d3daafc0.o)
 .bss           0x0000000010032cbc        0x0 /Users/stevefar/nacl_sdk/pepper_45/toolchain/mac_arm_newlib/bin/../lib/gcc/arm-nacl/4.9.2/libgcc.a(unwind-arm.o)
 .bss           0x0000000010032cbc        0x0 /Users/stevefar/nacl_sdk/pepper_45/toolchain/mac_arm_newlib/bin/../lib/gcc/arm-nacl/4.9.2/libgcc.a(libunwind.o)
 .bss           0x0000000010032cbc        0x0 /Users/stevefar/nacl_sdk/pepper_45/toolchain/mac_arm_newlib/bin/../lib/gcc/arm-nacl/4.9.2/libgcc.a(pr-support.o)
 .bss           0x0000000010032cbc        0x0 /Users/stevefar/nacl_sdk/pepper_45/toolchain/mac_arm_newlib/bin/../lib/gcc/arm-nacl/4.9.2/../../../../arm-nacl/lib/libnacl.a(_exit_710c7d0d.o)
 .bss           0x0000000010032cbc        0x0 /Users/stevefar/nacl_sdk/pepper_45/toolchain/mac_arm_newlib/bin/../lib/gcc/arm-nacl/4.9.2/../../../../arm-nacl/lib/libnacl.a(abort_9f6b5845.o)
 .bss           0x0000000010032cbc        0x4 /Users/stevefar/nacl_sdk/pepper_45/toolchain/mac_arm_newlib/bin/../lib/gcc/arm-nacl/4.9.2/../../../../arm-nacl/lib/libnacl.a(environ_25cd24d8.o)
 .bss           0x0000000010032cc0      0x1f8 /Users/stevefar/nacl_sdk/pepper_45/toolchain/mac_arm_newlib/bin/../lib/gcc/arm-nacl/4.9.2/../../../../arm-nacl/lib/libnacl.a(malloc_222c4a1e.o)
 .bss           0x0000000010032eb8        0x0 /Users/stevefar/nacl_sdk/pepper_45/toolchain/mac_arm_newlib/bin/../lib/gcc/arm-nacl/4.9.2/../../../../arm-nacl/lib/libnacl.a(nacl_irt_6de1d53f.o)
 .bss           0x0000000010032eb8        0x0 /Users/stevefar/nacl_sdk/pepper_45/toolchain/mac_arm_newlib/bin/../lib/gcc/arm-nacl/4.9.2/../../../../arm-nacl/lib/libnacl.a(pthread_initialize_minimal_4b6e776b.o)
 .bss           0x0000000010032eb8        0x0 /Users/stevefar/nacl_sdk/pepper_45/toolchain/mac_arm_newlib/bin/../lib/gcc/arm-nacl/4.9.2/../../../../arm-nacl/lib/libnacl.a(nacl_read_tp_5748ac47.o)
 .bss           0x0000000010032eb8        0x0 /Users/stevefar/nacl_sdk/pepper_45/toolchain/mac_arm_newlib/bin/../lib/gcc/arm-nacl/4.9.2/../../../../arm-nacl/lib/libnacl.a(nacl_interface_query_ef8a99f1.o)
 .bss           0x0000000010032eb8        0x0 /Users/stevefar/nacl_sdk/pepper_45/toolchain/mac_arm_newlib/bin/../lib/gcc/arm-nacl/4.9.2/../../../../arm-nacl/lib/libnacl.a(mmap_767fb080.o)
 .bss           0x0000000010032eb8        0x0 /Users/stevefar/nacl_sdk/pepper_45/toolchain/mac_arm_newlib/bin/../lib/gcc/arm-nacl/4.9.2/../../../../arm-nacl/lib/libnacl.a(sched_yield_56c375be.o)
 .bss           0x0000000010032eb8        0x0 /Users/stevefar/nacl_sdk/pepper_45/toolchain/mac_arm_newlib/bin/../lib/gcc/arm-nacl/4.9.2/../../../../arm-nacl/lib/libnacl.a(start_fa9ef7de.o)
 .bss           0x0000000010032eb8        0x0 /Users/stevefar/nacl_sdk/pepper_45/toolchain/mac_arm_newlib/bin/../lib/gcc/arm-nacl/4.9.2/../../../../arm-nacl/lib/libnacl.a(munmap_d4f09867.o)
 .bss           0x0000000010032eb8       0x14 /Users/stevefar/nacl_sdk/pepper_45/toolchain/mac_arm_newlib/bin/../lib/gcc/arm-nacl/4.9.2/../../../../arm-nacl/lib/libnacl.a(tls_bba1975b.o)
 .bss           0x0000000010032ecc        0x0 /Users/stevefar/nacl_sdk/pepper_45/toolchain/mac_arm_newlib/bin/../lib/gcc/arm-nacl/4.9.2/../../../../arm-nacl/lib/libnacl.a(write_fb49787f.o)
 .bss           0x0000000010032ecc        0x0 /Users/stevefar/nacl_sdk/pepper_45/toolchain/mac_arm_newlib/bin/../lib/gcc/arm-nacl/4.9.2/../../../../arm-nacl/lib/libnacl.a(nacl_tls_get_d2f842b5.o)
 .bss           0x0000000010032ecc        0x0 /Users/stevefar/nacl_sdk/pepper_45/toolchain/mac_arm_newlib/bin/../lib/gcc/arm-nacl/4.9.2/../../../../arm-nacl/lib/libnacl.a(nacl_irt_init_7b4f826e.o)
 .bss           0x0000000010032ecc        0x0 /Users/stevefar/nacl_sdk/pepper_45/toolchain/mac_arm_newlib/bin/../lib/gcc/arm-nacl/4.9.2/../../../../arm-nacl/lib/libnacl.a(sysconf_ad295ea2.o)
 .bss           0x0000000010032ecc        0x0 /Users/stevefar/nacl_sdk/pepper_45/toolchain/mac_arm_newlib/bin/../lib/gcc/arm-nacl/4.9.2/../../../../arm-nacl/lib/libnacl.a(nacl_tls_init_eb0cd232.o)
 .bss           0x0000000010032ecc        0x0 /Users/stevefar/nacl_sdk/pepper_45/toolchain/mac_arm_newlib/bin/../lib/gcc/arm-nacl/4.9.2/../../../../arm-nacl/lib/libcrt_common.a(lib_a-atexit.o)
 .bss           0x0000000010032ecc        0x0 /Users/stevefar/nacl_sdk/pepper_45/toolchain/mac_arm_newlib/bin/../lib/gcc/arm-nacl/4.9.2/../../../../arm-nacl/lib/libcrt_common.a(lib_a-errno.o)
 .bss           0x0000000010032ecc        0x0 /Users/stevefar/nacl_sdk/pepper_45/toolchain/mac_arm_newlib/bin/../lib/gcc/arm-nacl/4.9.2/../../../../arm-nacl/lib/libcrt_common.a(lib_a-exit.o)
 .bss           0x0000000010032ecc        0x0 /Users/stevefar/nacl_sdk/pepper_45/toolchain/mac_arm_newlib/bin/../lib/gcc/arm-nacl/4.9.2/../../../../arm-nacl/lib/libcrt_common.a(lib_a-fflush.o)
 .bss           0x0000000010032ecc        0x0 /Users/stevefar/nacl_sdk/pepper_45/toolchain/mac_arm_newlib/bin/../lib/gcc/arm-nacl/4.9.2/../../../../arm-nacl/lib/libcrt_common.a(lib_a-findfp.o)
 .bss           0x0000000010032ecc        0x0 /Users/stevefar/nacl_sdk/pepper_45/toolchain/mac_arm_newlib/bin/../lib/gcc/arm-nacl/4.9.2/../../../../arm-nacl/lib/libcrt_common.a(lib_a-fini.o)
 .bss           0x0000000010032ecc        0x0 /Users/stevefar/nacl_sdk/pepper_45/toolchain/mac_arm_newlib/bin/../lib/gcc/arm-nacl/4.9.2/../../../../arm-nacl/lib/libcrt_common.a(lib_a-fprintf.o)
 .bss           0x0000000010032ecc        0x0 /Users/stevefar/nacl_sdk/pepper_45/toolchain/mac_arm_newlib/bin/../lib/gcc/arm-nacl/4.9.2/../../../../arm-nacl/lib/libcrt_common.a(lib_a-fwalk.o)
 .bss           0x0000000010032ecc        0x0 /Users/stevefar/nacl_sdk/pepper_45/toolchain/mac_arm_newlib/bin/../lib/gcc/arm-nacl/4.9.2/../../../../arm-nacl/lib/libcrt_common.a(lib_a-fwrite.o)
 .bss           0x0000000010032ecc        0x0 /Users/stevefar/nacl_sdk/pepper_45/toolchain/mac_arm_newlib/bin/../lib/gcc/arm-nacl/4.9.2/../../../../arm-nacl/lib/libcrt_common.a(lib_a-getenv.o)
 .bss           0x0000000010032ecc        0x0 /Users/stevefar/nacl_sdk/pepper_45/toolchain/mac_arm_newlib/bin/../lib/gcc/arm-nacl/4.9.2/../../../../arm-nacl/lib/libcrt_common.a(lib_a-getenv_r.o)
 .bss           0x0000000010032ecc        0x0 /Users/stevefar/nacl_sdk/pepper_45/toolchain/mac_arm_newlib/bin/../lib/gcc/arm-nacl/4.9.2/../../../../arm-nacl/lib/libcrt_common.a(lib_a-impure.o)
 .bss           0x0000000010032ecc        0x0 /Users/stevefar/nacl_sdk/pepper_45/toolchain/mac_arm_newlib/bin/../lib/gcc/arm-nacl/4.9.2/../../../../arm-nacl/lib/libcrt_common.a(lib_a-init.o)
 .bss           0x0000000010032ecc        0x0 /Users/stevefar/nacl_sdk/pepper_45/toolchain/mac_arm_newlib/bin/../lib/gcc/arm-nacl/4.9.2/../../../../arm-nacl/lib/libcrt_common.a(lib_a-memcpy.o)
 .bss           0x0000000010032ecc        0x0 /Users/stevefar/nacl_sdk/pepper_45/toolchain/mac_arm_newlib/bin/../lib/gcc/arm-nacl/4.9.2/../../../../arm-nacl/lib/libcrt_common.a(lib_a-memset.o)
 .bss           0x0000000010032ecc        0x0 /Users/stevefar/nacl_sdk/pepper_45/toolchain/mac_arm_newlib/bin/../lib/gcc/arm-nacl/4.9.2/../../../../arm-nacl/lib/libcrt_common.a(lib_a-sleep.o)
 .bss           0x0000000010032ecc        0x0 /Users/stevefar/nacl_sdk/pepper_45/toolchain/mac_arm_newlib/bin/../lib/gcc/arm-nacl/4.9.2/../../../../arm-nacl/lib/libcrt_common.a(lib_a-stdio.o)
 .bss           0x0000000010032ecc        0x0 /Users/stevefar/nacl_sdk/pepper_45/toolchain/mac_arm_newlib/bin/../lib/gcc/arm-nacl/4.9.2/../../../../arm-nacl/lib/libcrt_common.a(lib_a-strcmp.o)
 .bss           0x0000000010032ecc        0x0 /Users/stevefar/nacl_sdk/pepper_45/toolchain/mac_arm_newlib/bin/../lib/gcc/arm-nacl/4.9.2/../../../../arm-nacl/lib/libcrt_common.a(lib_a-strlen-armv7.o)
 .bss           0x0000000010032ecc        0x0 /Users/stevefar/nacl_sdk/pepper_45/toolchain/mac_arm_newlib/bin/../lib/gcc/arm-nacl/4.9.2/../../../../arm-nacl/lib/libcrt_common.a(lib_a-strncmp.o)
 .bss           0x0000000010032ecc        0x0 /Users/stevefar/nacl_sdk/pepper_45/toolchain/mac_arm_newlib/bin/../lib/gcc/arm-nacl/4.9.2/../../../../arm-nacl/lib/libcrt_common.a(lib_a-vfprintf.o)
 .bss           0x0000000010032ecc        0x0 /Users/stevefar/nacl_sdk/pepper_45/toolchain/mac_arm_newlib/bin/../lib/gcc/arm-nacl/4.9.2/../../../../arm-nacl/lib/libcrt_common.a(lib_a-vsnprintf.o)
 .bss           0x0000000010032ecc        0x0 /Users/stevefar/nacl_sdk/pepper_45/toolchain/mac_arm_newlib/bin/../lib/gcc/arm-nacl/4.9.2/../../../../arm-nacl/lib/libcrt_common.a(lib_a-vsprintf.o)
 .bss           0x0000000010032ecc        0x0 /Users/stevefar/nacl_sdk/pepper_45/toolchain/mac_arm_newlib/bin/../lib/gcc/arm-nacl/4.9.2/../../../../arm-nacl/lib/libcrt_common.a(lib_a-wcrtomb.o)
 .bss           0x0000000010032ecc        0x0 /Users/stevefar/nacl_sdk/pepper_45/toolchain/mac_arm_newlib/bin/../lib/gcc/arm-nacl/4.9.2/../../../../arm-nacl/lib/libcrt_common.a(lib_a-wcsrtombs.o)
 .bss           0x0000000010032ecc        0x0 /Users/stevefar/nacl_sdk/pepper_45/toolchain/mac_arm_newlib/bin/../lib/gcc/arm-nacl/4.9.2/../../../../arm-nacl/lib/libcrt_common.a(lib_a-wctomb_r.o)
 .bss           0x0000000010032ecc        0x0 /Users/stevefar/nacl_sdk/pepper_45/toolchain/mac_arm_newlib/bin/../lib/gcc/arm-nacl/4.9.2/../../../../arm-nacl/lib/libcrt_common.a(lib_a-wsetup.o)
 .bss           0x0000000010032ecc        0x0 /Users/stevefar/nacl_sdk/pepper_45/toolchain/mac_arm_newlib/bin/../lib/gcc/arm-nacl/4.9.2/../../../../arm-nacl/lib/libcrt_common.a(lib_a-__atexit.o)
 .bss           0x0000000010032ecc        0x0 /Users/stevefar/nacl_sdk/pepper_45/toolchain/mac_arm_newlib/bin/../lib/gcc/arm-nacl/4.9.2/../../../../arm-nacl/lib/libcrt_common.a(lib_a-__call_atexit.o)
 .bss           0x0000000010032ecc        0x0 /Users/stevefar/nacl_sdk/pepper_45/toolchain/mac_arm_newlib/bin/../lib/gcc/arm-nacl/4.9.2/../../../../arm-nacl/lib/libcrt_common.a(lib_a-dtoa.o)
 .bss           0x0000000010032ecc        0x0 /Users/stevefar/nacl_sdk/pepper_45/toolchain/mac_arm_newlib/bin/../lib/gcc/arm-nacl/4.9.2/../../../../arm-nacl/lib/libcrt_common.a(lib_a-envlock.o)
 .bss           0x0000000010032ecc        0x0 /Users/stevefar/nacl_sdk/pepper_45/toolchain/mac_arm_newlib/bin/../lib/gcc/arm-nacl/4.9.2/../../../../arm-nacl/lib/libcrt_common.a(lib_a-fclose.o)
 .bss           0x0000000010032ecc        0x0 /Users/stevefar/nacl_sdk/pepper_45/toolchain/mac_arm_newlib/bin/../lib/gcc/arm-nacl/4.9.2/../../../../arm-nacl/lib/libcrt_common.a(lib_a-fvwrite.o)
 .bss           0x0000000010032ecc      0x2b8 /Users/stevefar/nacl_sdk/pepper_45/toolchain/mac_arm_newlib/bin/../lib/gcc/arm-nacl/4.9.2/../../../../arm-nacl/lib/libcrt_common.a(lib_a-locale.o)
                0x0000000010033178                _PathLocale
                0x000000001003317c                __mlocale_changed
                0x0000000010033180                __nlocale_changed
 .bss           0x0000000010033184        0x0 /Users/stevefar/nacl_sdk/pepper_45/toolchain/mac_arm_newlib/bin/../lib/gcc/arm-nacl/4.9.2/../../../../arm-nacl/lib/libcrt_common.a(lib_a-makebuf.o)
 .bss           0x0000000010033184        0x0 /Users/stevefar/nacl_sdk/pepper_45/toolchain/mac_arm_newlib/bin/../lib/gcc/arm-nacl/4.9.2/../../../../arm-nacl/lib/libcrt_common.a(lib_a-mbtowc_r.o)
 .bss           0x0000000010033184        0x0 /Users/stevefar/nacl_sdk/pepper_45/toolchain/mac_arm_newlib/bin/../lib/gcc/arm-nacl/4.9.2/../../../../arm-nacl/lib/libcrt_common.a(lib_a-memchr.o)
 .bss           0x0000000010033184        0x0 /Users/stevefar/nacl_sdk/pepper_45/toolchain/mac_arm_newlib/bin/../lib/gcc/arm-nacl/4.9.2/../../../../arm-nacl/lib/libcrt_common.a(lib_a-memmove.o)
 .bss           0x0000000010033184        0x0 /Users/stevefar/nacl_sdk/pepper_45/toolchain/mac_arm_newlib/bin/../lib/gcc/arm-nacl/4.9.2/../../../../arm-nacl/lib/libcrt_common.a(lib_a-mprec.o)
 .bss           0x0000000010033184        0x0 /Users/stevefar/nacl_sdk/pepper_45/toolchain/mac_arm_newlib/bin/../lib/gcc/arm-nacl/4.9.2/../../../../arm-nacl/lib/libcrt_common.a(lib_a-s_fpclassify.o)
 .bss           0x0000000010033184        0x0 /Users/stevefar/nacl_sdk/pepper_45/toolchain/mac_arm_newlib/bin/../lib/gcc/arm-nacl/4.9.2/../../../../arm-nacl/lib/libcrt_common.a(lib_a-s_frexp.o)
 .bss           0x0000000010033184        0x0 /Users/stevefar/nacl_sdk/pepper_45/toolchain/mac_arm_newlib/bin/../lib/gcc/arm-nacl/4.9.2/../../../../arm-nacl/lib/libcrt_common.a(lib_a-strcasecmp.o)
 .bss           0x0000000010033184        0x0 /Users/stevefar/nacl_sdk/pepper_45/toolchain/mac_arm_newlib/bin/../lib/gcc/arm-nacl/4.9.2/../../../../arm-nacl/lib/libcrt_common.a(lib_a-strcat.o)
 .bss           0x0000000010033184        0x0 /Users/stevefar/nacl_sdk/pepper_45/toolchain/mac_arm_newlib/bin/../lib/gcc/arm-nacl/4.9.2/../../../../arm-nacl/lib/libcrt_common.a(lib_a-strchr.o)
 .bss           0x0000000010033184        0x0 /Users/stevefar/nacl_sdk/pepper_45/toolchain/mac_arm_newlib/bin/../lib/gcc/arm-nacl/4.9.2/../../../../arm-nacl/lib/libcrt_common.a(lib_a-strcpy.o)
 .bss           0x0000000010033184        0x0 /Users/stevefar/nacl_sdk/pepper_45/toolchain/mac_arm_newlib/bin/../lib/gcc/arm-nacl/4.9.2/../../../../arm-nacl/lib/libcrt_common.a(lib_a-strlcpy.o)
 .bss           0x0000000010033184        0x0 /Users/stevefar/nacl_sdk/pepper_45/toolchain/mac_arm_newlib/bin/../lib/gcc/arm-nacl/4.9.2/../../../../arm-nacl/lib/libcrt_common.a(lib_a-strncasecmp.o)
 .bss           0x0000000010033184        0x0 /Users/stevefar/nacl_sdk/pepper_45/toolchain/mac_arm_newlib/bin/../lib/gcc/arm-nacl/4.9.2/../../../../arm-nacl/lib/libcrt_common.a(lib_a-strncpy.o)
 .bss           0x0000000010033184        0x0 /Users/stevefar/nacl_sdk/pepper_45/toolchain/mac_arm_newlib/bin/../lib/gcc/arm-nacl/4.9.2/../../../../arm-nacl/lib/libcrt_common.a(lib_a-strtol.o)
 .bss           0x0000000010033184        0x0 /Users/stevefar/nacl_sdk/pepper_45/toolchain/mac_arm_newlib/bin/../lib/gcc/arm-nacl/4.9.2/../../../../arm-nacl/lib/libcrt_common.a(lib_a-svfprintf.o)
 .bss           0x0000000010033184        0x0 /Users/stevefar/nacl_sdk/pepper_45/toolchain/mac_arm_newlib/bin/../lib/gcc/arm-nacl/4.9.2/../../../../arm-nacl/lib/libcrt_common.a(lib_a-vfiprintf.o)
 .bss           0x0000000010033184        0x0 /Users/stevefar/nacl_sdk/pepper_45/toolchain/mac_arm_newlib/bin/../lib/gcc/arm-nacl/4.9.2/../../../../arm-nacl/lib/libcrt_common.a(lib_a-wcsnrtombs.o)
 .bss           0x0000000010033184        0x0 /Users/stevefar/nacl_sdk/pepper_45/toolchain/mac_arm_newlib/bin/../lib/gcc/arm-nacl/4.9.2/../../../../arm-nacl/lib/libcrt_common.a(lib_a-ctype_.o)
 .bss           0x0000000010033184        0x0 /Users/stevefar/nacl_sdk/pepper_45/toolchain/mac_arm_newlib/bin/../lib/gcc/arm-nacl/4.9.2/../../../../arm-nacl/lib/libcrt_common.a(lib_a-fputwc.o)
 .bss           0x0000000010033184        0x0 /Users/stevefar/nacl_sdk/pepper_45/toolchain/mac_arm_newlib/bin/../lib/gcc/arm-nacl/4.9.2/../../../../arm-nacl/lib/libcrt_common.a(lib_a-svfiprintf.o)
 .bss           0x0000000010033184        0x0 /Users/stevefar/nacl_sdk/pepper_45/toolchain/mac_arm_newlib/bin/../lib/gcc/arm-nacl/4.9.2/../../../../arm-nacl/lib/libcrt_common.a(lib_a-wbuf.o)
 .bss           0x0000000010033184        0x0 /Users/stevefar/nacl_sdk/pepper_45/toolchain/mac_arm_newlib/bin/../lib/gcc/arm-nacl/4.9.2/../../../../arm-nacl/lib/libnacl.a(close_e9b92fbd.o)
 .bss           0x0000000010033184        0x0 /Users/stevefar/nacl_sdk/pepper_45/toolchain/mac_arm_newlib/bin/../lib/gcc/arm-nacl/4.9.2/../../../../arm-nacl/lib/libnacl.a(isatty_02f56e94.o)
 .bss           0x0000000010033184        0x0 /Users/stevefar/nacl_sdk/pepper_45/toolchain/mac_arm_newlib/bin/../lib/gcc/arm-nacl/4.9.2/../../../../arm-nacl/lib/libnacl.a(nacl_irt_fdio_b571b5e7.o)
 .bss           0x0000000010033184        0x0 /Users/stevefar/nacl_sdk/pepper_45/toolchain/mac_arm_newlib/bin/../lib/gcc/arm-nacl/4.9.2/../../../../arm-nacl/lib/libnacl.a(fstat_0540ff63.o)
 .bss           0x0000000010033184        0x0 /Users/stevefar/nacl_sdk/pepper_45/toolchain/mac_arm_newlib/bin/../lib/gcc/arm-nacl/4.9.2/../../../../arm-nacl/lib/libnacl.a(lseek_64d2d05c.o)
 .bss           0x0000000010033184        0x0 /Users/stevefar/nacl_sdk/pepper_45/toolchain/mac_arm_newlib/bin/../lib/gcc/arm-nacl/4.9.2/../../../../arm-nacl/lib/libnacl.a(read_df872e10.o)
 .bss           0x0000000010033184        0x0 /Users/stevefar/nacl_sdk/pepper_45/toolchain/mac_arm_newlib/bin/../lib/gcc/arm-nacl/4.9.2/../../../../arm-nacl/lib/libnacl.a(nanosleep_e59fdef1.o)
 .bss           0x0000000010033184        0x0 /Users/stevefar/nacl_sdk/pepper_45/toolchain/mac_arm_newlib/bin/../lib/gcc/arm-nacl/4.9.2/libgcc.a(_udivsi3.o)
 .bss           0x0000000010033184        0x0 /Users/stevefar/nacl_sdk/pepper_45/toolchain/mac_arm_newlib/bin/../lib/gcc/arm-nacl/4.9.2/libgcc.a(_divsi3.o)
 .bss           0x0000000010033184        0x0 /Users/stevefar/nacl_sdk/pepper_45/toolchain/mac_arm_newlib/bin/../lib/gcc/arm-nacl/4.9.2/libgcc.a(_aeabi_uldivmod.o)
 .bss           0x0000000010033184        0x0 /Users/stevefar/nacl_sdk/pepper_45/toolchain/mac_arm_newlib/bin/../lib/gcc/arm-nacl/4.9.2/libgcc.a(_dvmd_nacl.o)
 .bss           0x0000000010033184        0x0 /Users/stevefar/nacl_sdk/pepper_45/toolchain/mac_arm_newlib/bin/../lib/gcc/arm-nacl/4.9.2/libgcc.a(bpabi.o)
 .bss           0x0000000010033184        0x0 /Users/stevefar/nacl_sdk/pepper_45/toolchain/mac_arm_newlib/bin/../lib/gcc/arm-nacl/4.9.2/libgcc.a(_divdi3.o)
 .bss           0x0000000010033184        0x0 /Users/stevefar/nacl_sdk/pepper_45/toolchain/mac_arm_newlib/bin/../lib/gcc/arm-nacl/4.9.2/libgcc.a(_udivdi3.o)
 .bss           0x0000000010033184        0x0 /Users/stevefar/nacl_sdk/pepper_45/toolchain/mac_arm_newlib/bin/../lib/gcc/arm-nacl/4.9.2/crtend.o
 .bss           0x0000000010033184        0x0 /Users/stevefar/nacl_sdk/pepper_45/toolchain/mac_arm_newlib/bin/../lib/gcc/arm-nacl/4.9.2/../../../../arm-nacl/lib/crtn.o
 *(COMMON)
 COMMON         0x0000000010033184        0xc newlib/Release/debugging_arm.o
                0x0000000010033184                g_PPAPIThread
                0x0000000010033188                g_Instance
                0x000000001003318c                g_NexeThread
 COMMON         0x0000000010033190       0x40 /Users/stevefar/nacl_sdk/pepper_45/toolchain/mac_arm_newlib/bin/../lib/gcc/arm-nacl/4.9.2/../../../../arm-nacl/lib/libpthread.a(nc_thread_7e478b15.o)
                0x0000000010033190                __nc_thread_initialized
                0x0000000010033194                __nc_thread_management_lock
                0x00000000100331a8                __nc_memory_block_counter
                0x00000000100331b0                __nc_initial_thread_id
                0x00000000100331b4                __nc_thread_memory_blocks
                0x00000000100331c4                __libnacl_irt_thread
 COMMON         0x00000000100331d0        0x8 /Users/stevefar/nacl_sdk/pepper_45/toolchain/mac_arm_newlib/bin/../lib/gcc/arm-nacl/4.9.2/../../../../arm-nacl/lib/libpthread.a(nc_init_irt_d3daafc0.o)
                0x00000000100331d0                __libnacl_irt_futex
 COMMON         0x00000000100331d8       0xb4 /Users/stevefar/nacl_sdk/pepper_45/toolchain/mac_arm_newlib/bin/../lib/gcc/arm-nacl/4.9.2/../../../../arm-nacl/lib/libnacl.a(nacl_irt_6de1d53f.o)
                0x00000000100331d8                __nacl_irt_query
                0x00000000100331dc                __libnacl_irt_dev_filename
                0x000000001003321c                __libnacl_irt_clock
                0x0000000010033224                __libnacl_irt_memory
                0x0000000010033230                __libnacl_irt_dev_fdio
                0x0000000010033268                __libnacl_irt_basic
                0x0000000010033280                __libnacl_irt_tls
                0x0000000010033288                __libnacl_irt_dev_getpid
 COMMON         0x000000001003328c        0x4 /Users/stevefar/nacl_sdk/pepper_45/toolchain/mac_arm_newlib/bin/../lib/gcc/arm-nacl/4.9.2/../../../../arm-nacl/lib/libnacl.a(start_fa9ef7de.o)
                0x000000001003328c                __nacl_initial_thread_stack_end
                0x0000000010033290                . = ALIGN ((. != 0x0)?0x4:0x1)
                0x0000000010033290                _bss_end__ = .
                0x0000000010033290                __bss_end__ = .
                0x0000000010033290                . = ALIGN (0x4)
                0x0000000010033290                . = SEGMENT_START ("ldata-segment", .)
                0x0000000010033290                . = ALIGN (0x4)
                0x0000000010033290                __end__ = .
                0x0000000010033290                _end = .
                0x0000000010033290                PROVIDE (end, .)
                0x0000000010033290                . = DATA_SEGMENT_END (.)

.stab
 *(.stab)

.stabstr
 *(.stabstr)

.stab.excl
 *(.stab.excl)

.stab.exclstr
 *(.stab.exclstr)

.stab.index
 *(.stab.index)

.stab.indexstr
 *(.stab.indexstr)

.comment        0x0000000000000000       0x94
 *(.comment)
 .comment       0x0000000000000000       0x4a /Users/stevefar/nacl_sdk/pepper_45/toolchain/mac_arm_newlib/bin/../lib/gcc/arm-nacl/4.9.2/crtbegin.o
                                         0x4b (size before relaxing)
 .comment       0x000000000000004a       0x4a newlib/Release/debugging_arm.o
                                         0x4b (size before relaxing)
 .comment       0x0000000000000094       0x4b /Users/stevefar/nacl_sdk/pepper_45/lib/newlib_arm/Release/liberror_handling.a(error_handling_arm.o)
 .comment       0x0000000000000094       0x4b /Users/stevefar/nacl_sdk/pepper_45/lib/newlib_arm/Release/liberror_handling.a(string_stream_arm.o)
 .comment       0x0000000000000094       0x4b /Users/stevefar/nacl_sdk/pepper_45/toolchain/mac_arm_newlib/bin/../lib/gcc/arm-nacl/4.9.2/../../../../arm-nacl/lib/libppapi_stub.a(plugin_main_irt_21ce9d26.o)
 .comment       0x0000000000000094       0x4b /Users/stevefar/nacl_sdk/pepper_45/toolchain/mac_arm_newlib/bin/../lib/gcc/arm-nacl/4.9.2/../../../../arm-nacl/lib/libppapi_stub.a(ppapi_plugin_main_399d0cf7.o)
 .comment       0x0000000000000094       0x4b /Users/stevefar/nacl_sdk/pepper_45/toolchain/mac_arm_newlib/bin/../lib/gcc/arm-nacl/4.9.2/../../../../arm-nacl/lib/libppapi_stub.a(ppapi_plugin_start_8da67623.o)
 .comment       0x0000000000000094       0x4b /Users/stevefar/nacl_sdk/pepper_45/toolchain/mac_arm_newlib/bin/../lib/gcc/arm-nacl/4.9.2/../../../../arm-nacl/lib/libppapi_stub.a(thread_creator_ccf263e1.o)
 .comment       0x0000000000000094       0x4b /Users/stevefar/nacl_sdk/pepper_45/toolchain/mac_arm_newlib/bin/../lib/gcc/arm-nacl/4.9.2/../../../../arm-nacl/lib/libpthread.a(nc_thread_7e478b15.o)
 .comment       0x0000000000000094       0x4b /Users/stevefar/nacl_sdk/pepper_45/toolchain/mac_arm_newlib/bin/../lib/gcc/arm-nacl/4.9.2/../../../../arm-nacl/lib/libpthread.a(nc_condvar_305aa45a.o)
 .comment       0x0000000000000094       0x4b /Users/stevefar/nacl_sdk/pepper_45/toolchain/mac_arm_newlib/bin/../lib/gcc/arm-nacl/4.9.2/../../../../arm-nacl/lib/libpthread.a(dynamic_annotations_33ba59cc.o)
 .comment       0x0000000000000094       0x4b /Users/stevefar/nacl_sdk/pepper_45/toolchain/mac_arm_newlib/bin/../lib/gcc/arm-nacl/4.9.2/../../../../arm-nacl/lib/libpthread.a(nc_mutex_86341ae1.o)
 .comment       0x0000000000000094       0x4b /Users/stevefar/nacl_sdk/pepper_45/toolchain/mac_arm_newlib/bin/../lib/gcc/arm-nacl/4.9.2/../../../../arm-nacl/lib/libpthread.a(nc_init_irt_d3daafc0.o)
 .comment       0x0000000000000094       0x4b /Users/stevefar/nacl_sdk/pepper_45/toolchain/mac_arm_newlib/bin/../lib/gcc/arm-nacl/4.9.2/libgcc.a(unwind-arm.o)
 .comment       0x0000000000000094       0x4b /Users/stevefar/nacl_sdk/pepper_45/toolchain/mac_arm_newlib/bin/../lib/gcc/arm-nacl/4.9.2/libgcc.a(pr-support.o)
 .comment       0x0000000000000094       0x4b /Users/stevefar/nacl_sdk/pepper_45/toolchain/mac_arm_newlib/bin/../lib/gcc/arm-nacl/4.9.2/../../../../arm-nacl/lib/libnacl.a(_exit_710c7d0d.o)
 .comment       0x0000000000000094       0x4b /Users/stevefar/nacl_sdk/pepper_45/toolchain/mac_arm_newlib/bin/../lib/gcc/arm-nacl/4.9.2/../../../../arm-nacl/lib/libnacl.a(abort_9f6b5845.o)
 .comment       0x0000000000000094       0x4b /Users/stevefar/nacl_sdk/pepper_45/toolchain/mac_arm_newlib/bin/../lib/gcc/arm-nacl/4.9.2/../../../../arm-nacl/lib/libnacl.a(environ_25cd24d8.o)
 .comment       0x0000000000000094       0x4b /Users/stevefar/nacl_sdk/pepper_45/toolchain/mac_arm_newlib/bin/../lib/gcc/arm-nacl/4.9.2/../../../../arm-nacl/lib/libnacl.a(malloc_222c4a1e.o)
 .comment       0x0000000000000094       0x4b /Users/stevefar/nacl_sdk/pepper_45/toolchain/mac_arm_newlib/bin/../lib/gcc/arm-nacl/4.9.2/../../../../arm-nacl/lib/libnacl.a(nacl_irt_6de1d53f.o)
 .comment       0x0000000000000094       0x4b /Users/stevefar/nacl_sdk/pepper_45/toolchain/mac_arm_newlib/bin/../lib/gcc/arm-nacl/4.9.2/../../../../arm-nacl/lib/libnacl.a(pthread_initialize_minimal_4b6e776b.o)
 .comment       0x0000000000000094       0x4b /Users/stevefar/nacl_sdk/pepper_45/toolchain/mac_arm_newlib/bin/../lib/gcc/arm-nacl/4.9.2/../../../../arm-nacl/lib/libnacl.a(nacl_read_tp_5748ac47.o)
 .comment       0x0000000000000094       0x4b /Users/stevefar/nacl_sdk/pepper_45/toolchain/mac_arm_newlib/bin/../lib/gcc/arm-nacl/4.9.2/../../../../arm-nacl/lib/libnacl.a(nacl_interface_query_ef8a99f1.o)
 .comment       0x0000000000000094       0x4b /Users/stevefar/nacl_sdk/pepper_45/toolchain/mac_arm_newlib/bin/../lib/gcc/arm-nacl/4.9.2/../../../../arm-nacl/lib/libnacl.a(mmap_767fb080.o)
 .comment       0x0000000000000094       0x4b /Users/stevefar/nacl_sdk/pepper_45/toolchain/mac_arm_newlib/bin/../lib/gcc/arm-nacl/4.9.2/../../../../arm-nacl/lib/libnacl.a(sched_yield_56c375be.o)
 .comment       0x0000000000000094       0x4b /Users/stevefar/nacl_sdk/pepper_45/toolchain/mac_arm_newlib/bin/../lib/gcc/arm-nacl/4.9.2/../../../../arm-nacl/lib/libnacl.a(start_fa9ef7de.o)
 .comment       0x0000000000000094       0x4b /Users/stevefar/nacl_sdk/pepper_45/toolchain/mac_arm_newlib/bin/../lib/gcc/arm-nacl/4.9.2/../../../../arm-nacl/lib/libnacl.a(munmap_d4f09867.o)
 .comment       0x0000000000000094       0x4b /Users/stevefar/nacl_sdk/pepper_45/toolchain/mac_arm_newlib/bin/../lib/gcc/arm-nacl/4.9.2/../../../../arm-nacl/lib/libnacl.a(tls_bba1975b.o)
 .comment       0x0000000000000094       0x4b /Users/stevefar/nacl_sdk/pepper_45/toolchain/mac_arm_newlib/bin/../lib/gcc/arm-nacl/4.9.2/../../../../arm-nacl/lib/libnacl.a(write_fb49787f.o)
 .comment       0x0000000000000094       0x4b /Users/stevefar/nacl_sdk/pepper_45/toolchain/mac_arm_newlib/bin/../lib/gcc/arm-nacl/4.9.2/../../../../arm-nacl/lib/libnacl.a(nacl_tls_get_d2f842b5.o)
 .comment       0x0000000000000094       0x4b /Users/stevefar/nacl_sdk/pepper_45/toolchain/mac_arm_newlib/bin/../lib/gcc/arm-nacl/4.9.2/../../../../arm-nacl/lib/libnacl.a(nacl_irt_init_7b4f826e.o)
 .comment       0x0000000000000094       0x4b /Users/stevefar/nacl_sdk/pepper_45/toolchain/mac_arm_newlib/bin/../lib/gcc/arm-nacl/4.9.2/../../../../arm-nacl/lib/libnacl.a(sysconf_ad295ea2.o)
 .comment       0x0000000000000094       0x4b /Users/stevefar/nacl_sdk/pepper_45/toolchain/mac_arm_newlib/bin/../lib/gcc/arm-nacl/4.9.2/../../../../arm-nacl/lib/libnacl.a(nacl_tls_init_eb0cd232.o)
 .comment       0x0000000000000094       0x4b /Users/stevefar/nacl_sdk/pepper_45/toolchain/mac_arm_newlib/bin/../lib/gcc/arm-nacl/4.9.2/../../../../arm-nacl/lib/libnacl.a(close_e9b92fbd.o)
 .comment       0x0000000000000094       0x4b /Users/stevefar/nacl_sdk/pepper_45/toolchain/mac_arm_newlib/bin/../lib/gcc/arm-nacl/4.9.2/../../../../arm-nacl/lib/libnacl.a(isatty_02f56e94.o)
 .comment       0x0000000000000094       0x4b /Users/stevefar/nacl_sdk/pepper_45/toolchain/mac_arm_newlib/bin/../lib/gcc/arm-nacl/4.9.2/../../../../arm-nacl/lib/libnacl.a(nacl_irt_fdio_b571b5e7.o)
 .comment       0x0000000000000094       0x4b /Users/stevefar/nacl_sdk/pepper_45/toolchain/mac_arm_newlib/bin/../lib/gcc/arm-nacl/4.9.2/../../../../arm-nacl/lib/libnacl.a(fstat_0540ff63.o)
 .comment       0x0000000000000094       0x4b /Users/stevefar/nacl_sdk/pepper_45/toolchain/mac_arm_newlib/bin/../lib/gcc/arm-nacl/4.9.2/../../../../arm-nacl/lib/libnacl.a(lseek_64d2d05c.o)
 .comment       0x0000000000000094       0x4b /Users/stevefar/nacl_sdk/pepper_45/toolchain/mac_arm_newlib/bin/../lib/gcc/arm-nacl/4.9.2/../../../../arm-nacl/lib/libnacl.a(read_df872e10.o)
 .comment       0x0000000000000094       0x4b /Users/stevefar/nacl_sdk/pepper_45/toolchain/mac_arm_newlib/bin/../lib/gcc/arm-nacl/4.9.2/../../../../arm-nacl/lib/libnacl.a(nanosleep_e59fdef1.o)
 .comment       0x0000000000000094       0x4b /Users/stevefar/nacl_sdk/pepper_45/toolchain/mac_arm_newlib/bin/../lib/gcc/arm-nacl/4.9.2/libgcc.a(bpabi.o)
 .comment       0x0000000000000094       0x4b /Users/stevefar/nacl_sdk/pepper_45/toolchain/mac_arm_newlib/bin/../lib/gcc/arm-nacl/4.9.2/libgcc.a(_divdi3.o)
 .comment       0x0000000000000094       0x4b /Users/stevefar/nacl_sdk/pepper_45/toolchain/mac_arm_newlib/bin/../lib/gcc/arm-nacl/4.9.2/libgcc.a(_udivdi3.o)
 .comment       0x0000000000000094       0x4b /Users/stevefar/nacl_sdk/pepper_45/toolchain/mac_arm_newlib/bin/../lib/gcc/arm-nacl/4.9.2/crtend.o

.ARM.attributes
                0x0000000000000000       0x33
 .ARM.attributes
                0x0000000000000000       0x14 /Users/stevefar/nacl_sdk/pepper_45/toolchain/mac_arm_newlib/bin/../lib/gcc/arm-nacl/4.9.2/../../../../arm-nacl/lib/crti.o
 .ARM.attributes
                0x0000000000000014       0x37 /Users/stevefar/nacl_sdk/pepper_45/toolchain/mac_arm_newlib/bin/../lib/gcc/arm-nacl/4.9.2/crtbegin.o
 .ARM.attributes
                0x000000000000004b       0x37 newlib/Release/debugging_arm.o
 .ARM.attributes
                0x0000000000000082       0x37 /Users/stevefar/nacl_sdk/pepper_45/lib/newlib_arm/Release/liberror_handling.a(error_handling_arm.o)
 .ARM.attributes
                0x00000000000000b9       0x37 /Users/stevefar/nacl_sdk/pepper_45/lib/newlib_arm/Release/liberror_handling.a(string_stream_arm.o)
 .ARM.attributes
                0x00000000000000f0       0x37 /Users/stevefar/nacl_sdk/pepper_45/toolchain/mac_arm_newlib/bin/../lib/gcc/arm-nacl/4.9.2/../../../../arm-nacl/lib/libppapi_stub.a(plugin_main_irt_21ce9d26.o)
 .ARM.attributes
                0x0000000000000127       0x37 /Users/stevefar/nacl_sdk/pepper_45/toolchain/mac_arm_newlib/bin/../lib/gcc/arm-nacl/4.9.2/../../../../arm-nacl/lib/libppapi_stub.a(ppapi_plugin_main_399d0cf7.o)
 .ARM.attributes
                0x000000000000015e       0x37 /Users/stevefar/nacl_sdk/pepper_45/toolchain/mac_arm_newlib/bin/../lib/gcc/arm-nacl/4.9.2/../../../../arm-nacl/lib/libppapi_stub.a(ppapi_plugin_start_8da67623.o)
 .ARM.attributes
                0x0000000000000195       0x37 /Users/stevefar/nacl_sdk/pepper_45/toolchain/mac_arm_newlib/bin/../lib/gcc/arm-nacl/4.9.2/../../../../arm-nacl/lib/libppapi_stub.a(thread_creator_ccf263e1.o)
 .ARM.attributes
                0x00000000000001cc       0x37 /Users/stevefar/nacl_sdk/pepper_45/toolchain/mac_arm_newlib/bin/../lib/gcc/arm-nacl/4.9.2/../../../../arm-nacl/lib/libpthread.a(nc_thread_7e478b15.o)
 .ARM.attributes
                0x0000000000000203       0x37 /Users/stevefar/nacl_sdk/pepper_45/toolchain/mac_arm_newlib/bin/../lib/gcc/arm-nacl/4.9.2/../../../../arm-nacl/lib/libpthread.a(nc_condvar_305aa45a.o)
 .ARM.attributes
                0x000000000000023a       0x37 /Users/stevefar/nacl_sdk/pepper_45/toolchain/mac_arm_newlib/bin/../lib/gcc/arm-nacl/4.9.2/../../../../arm-nacl/lib/libpthread.a(dynamic_annotations_33ba59cc.o)
 .ARM.attributes
                0x0000000000000271       0x37 /Users/stevefar/nacl_sdk/pepper_45/toolchain/mac_arm_newlib/bin/../lib/gcc/arm-nacl/4.9.2/../../../../arm-nacl/lib/libpthread.a(nc_mutex_86341ae1.o)
 .ARM.attributes
                0x00000000000002a8       0x37 /Users/stevefar/nacl_sdk/pepper_45/toolchain/mac_arm_newlib/bin/../lib/gcc/arm-nacl/4.9.2/../../../../arm-nacl/lib/libpthread.a(nc_init_irt_d3daafc0.o)
 .ARM.attributes
                0x00000000000002df       0x37 /Users/stevefar/nacl_sdk/pepper_45/toolchain/mac_arm_newlib/bin/../lib/gcc/arm-nacl/4.9.2/libgcc.a(unwind-arm.o)
 .ARM.attributes
                0x0000000000000316       0x1a /Users/stevefar/nacl_sdk/pepper_45/toolchain/mac_arm_newlib/bin/../lib/gcc/arm-nacl/4.9.2/libgcc.a(libunwind.o)
 .ARM.attributes
                0x0000000000000330       0x37 /Users/stevefar/nacl_sdk/pepper_45/toolchain/mac_arm_newlib/bin/../lib/gcc/arm-nacl/4.9.2/libgcc.a(pr-support.o)
 .ARM.attributes
                0x0000000000000367       0x37 /Users/stevefar/nacl_sdk/pepper_45/toolchain/mac_arm_newlib/bin/../lib/gcc/arm-nacl/4.9.2/../../../../arm-nacl/lib/libnacl.a(_exit_710c7d0d.o)
 .ARM.attributes
                0x000000000000039e       0x37 /Users/stevefar/nacl_sdk/pepper_45/toolchain/mac_arm_newlib/bin/../lib/gcc/arm-nacl/4.9.2/../../../../arm-nacl/lib/libnacl.a(abort_9f6b5845.o)
 .ARM.attributes
                0x00000000000003d5       0x37 /Users/stevefar/nacl_sdk/pepper_45/toolchain/mac_arm_newlib/bin/../lib/gcc/arm-nacl/4.9.2/../../../../arm-nacl/lib/libnacl.a(environ_25cd24d8.o)
 .ARM.attributes
                0x000000000000040c       0x37 /Users/stevefar/nacl_sdk/pepper_45/toolchain/mac_arm_newlib/bin/../lib/gcc/arm-nacl/4.9.2/../../../../arm-nacl/lib/libnacl.a(malloc_222c4a1e.o)
 .ARM.attributes
                0x0000000000000443       0x37 /Users/stevefar/nacl_sdk/pepper_45/toolchain/mac_arm_newlib/bin/../lib/gcc/arm-nacl/4.9.2/../../../../arm-nacl/lib/libnacl.a(nacl_irt_6de1d53f.o)
 .ARM.attributes
                0x000000000000047a       0x37 /Users/stevefar/nacl_sdk/pepper_45/toolchain/mac_arm_newlib/bin/../lib/gcc/arm-nacl/4.9.2/../../../../arm-nacl/lib/libnacl.a(pthread_initialize_minimal_4b6e776b.o)
 .ARM.attributes
                0x00000000000004b1       0x37 /Users/stevefar/nacl_sdk/pepper_45/toolchain/mac_arm_newlib/bin/../lib/gcc/arm-nacl/4.9.2/../../../../arm-nacl/lib/libnacl.a(nacl_read_tp_5748ac47.o)
 .ARM.attributes
                0x00000000000004e8       0x37 /Users/stevefar/nacl_sdk/pepper_45/toolchain/mac_arm_newlib/bin/../lib/gcc/arm-nacl/4.9.2/../../../../arm-nacl/lib/libnacl.a(nacl_interface_query_ef8a99f1.o)
 .ARM.attributes
                0x000000000000051f       0x37 /Users/stevefar/nacl_sdk/pepper_45/toolchain/mac_arm_newlib/bin/../lib/gcc/arm-nacl/4.9.2/../../../../arm-nacl/lib/libnacl.a(mmap_767fb080.o)
 .ARM.attributes
                0x0000000000000556       0x37 /Users/stevefar/nacl_sdk/pepper_45/toolchain/mac_arm_newlib/bin/../lib/gcc/arm-nacl/4.9.2/../../../../arm-nacl/lib/libnacl.a(sched_yield_56c375be.o)
 .ARM.attributes
                0x000000000000058d       0x37 /Users/stevefar/nacl_sdk/pepper_45/toolchain/mac_arm_newlib/bin/../lib/gcc/arm-nacl/4.9.2/../../../../arm-nacl/lib/libnacl.a(start_fa9ef7de.o)
 .ARM.attributes
                0x00000000000005c4       0x37 /Users/stevefar/nacl_sdk/pepper_45/toolchain/mac_arm_newlib/bin/../lib/gcc/arm-nacl/4.9.2/../../../../arm-nacl/lib/libnacl.a(munmap_d4f09867.o)
 .ARM.attributes
                0x00000000000005fb       0x37 /Users/stevefar/nacl_sdk/pepper_45/toolchain/mac_arm_newlib/bin/../lib/gcc/arm-nacl/4.9.2/../../../../arm-nacl/lib/libnacl.a(tls_bba1975b.o)
 .ARM.attributes
                0x0000000000000632       0x37 /Users/stevefar/nacl_sdk/pepper_45/toolchain/mac_arm_newlib/bin/../lib/gcc/arm-nacl/4.9.2/../../../../arm-nacl/lib/libnacl.a(write_fb49787f.o)
 .ARM.attributes
                0x0000000000000669       0x37 /Users/stevefar/nacl_sdk/pepper_45/toolchain/mac_arm_newlib/bin/../lib/gcc/arm-nacl/4.9.2/../../../../arm-nacl/lib/libnacl.a(nacl_tls_get_d2f842b5.o)
 .ARM.attributes
                0x00000000000006a0       0x37 /Users/stevefar/nacl_sdk/pepper_45/toolchain/mac_arm_newlib/bin/../lib/gcc/arm-nacl/4.9.2/../../../../arm-nacl/lib/libnacl.a(nacl_irt_init_7b4f826e.o)
 .ARM.attributes
                0x00000000000006d7       0x37 /Users/stevefar/nacl_sdk/pepper_45/toolchain/mac_arm_newlib/bin/../lib/gcc/arm-nacl/4.9.2/../../../../arm-nacl/lib/libnacl.a(sysconf_ad295ea2.o)
 .ARM.attributes
                0x000000000000070e       0x37 /Users/stevefar/nacl_sdk/pepper_45/toolchain/mac_arm_newlib/bin/../lib/gcc/arm-nacl/4.9.2/../../../../arm-nacl/lib/libnacl.a(nacl_tls_init_eb0cd232.o)
 .ARM.attributes
                0x0000000000000745       0x37 /Users/stevefar/nacl_sdk/pepper_45/toolchain/mac_arm_newlib/bin/../lib/gcc/arm-nacl/4.9.2/../../../../arm-nacl/lib/libcrt_common.a(lib_a-atexit.o)
 .ARM.attributes
                0x000000000000077c       0x37 /Users/stevefar/nacl_sdk/pepper_45/toolchain/mac_arm_newlib/bin/../lib/gcc/arm-nacl/4.9.2/../../../../arm-nacl/lib/libcrt_common.a(lib_a-errno.o)
 .ARM.attributes
                0x00000000000007b3       0x37 /Users/stevefar/nacl_sdk/pepper_45/toolchain/mac_arm_newlib/bin/../lib/gcc/arm-nacl/4.9.2/../../../../arm-nacl/lib/libcrt_common.a(lib_a-exit.o)
 .ARM.attributes
                0x00000000000007ea       0x37 /Users/stevefar/nacl_sdk/pepper_45/toolchain/mac_arm_newlib/bin/../lib/gcc/arm-nacl/4.9.2/../../../../arm-nacl/lib/libcrt_common.a(lib_a-fflush.o)
 .ARM.attributes
                0x0000000000000821       0x37 /Users/stevefar/nacl_sdk/pepper_45/toolchain/mac_arm_newlib/bin/../lib/gcc/arm-nacl/4.9.2/../../../../arm-nacl/lib/libcrt_common.a(lib_a-findfp.o)
 .ARM.attributes
                0x0000000000000858       0x37 /Users/stevefar/nacl_sdk/pepper_45/toolchain/mac_arm_newlib/bin/../lib/gcc/arm-nacl/4.9.2/../../../../arm-nacl/lib/libcrt_common.a(lib_a-fini.o)
 .ARM.attributes
                0x000000000000088f       0x37 /Users/stevefar/nacl_sdk/pepper_45/toolchain/mac_arm_newlib/bin/../lib/gcc/arm-nacl/4.9.2/../../../../arm-nacl/lib/libcrt_common.a(lib_a-fprintf.o)
 .ARM.attributes
                0x00000000000008c6       0x37 /Users/stevefar/nacl_sdk/pepper_45/toolchain/mac_arm_newlib/bin/../lib/gcc/arm-nacl/4.9.2/../../../../arm-nacl/lib/libcrt_common.a(lib_a-fwalk.o)
 .ARM.attributes
                0x00000000000008fd       0x37 /Users/stevefar/nacl_sdk/pepper_45/toolchain/mac_arm_newlib/bin/../lib/gcc/arm-nacl/4.9.2/../../../../arm-nacl/lib/libcrt_common.a(lib_a-fwrite.o)
 .ARM.attributes
                0x0000000000000934       0x37 /Users/stevefar/nacl_sdk/pepper_45/toolchain/mac_arm_newlib/bin/../lib/gcc/arm-nacl/4.9.2/../../../../arm-nacl/lib/libcrt_common.a(lib_a-getenv.o)
 .ARM.attributes
                0x000000000000096b       0x37 /Users/stevefar/nacl_sdk/pepper_45/toolchain/mac_arm_newlib/bin/../lib/gcc/arm-nacl/4.9.2/../../../../arm-nacl/lib/libcrt_common.a(lib_a-getenv_r.o)
 .ARM.attributes
                0x00000000000009a2       0x37 /Users/stevefar/nacl_sdk/pepper_45/toolchain/mac_arm_newlib/bin/../lib/gcc/arm-nacl/4.9.2/../../../../arm-nacl/lib/libcrt_common.a(lib_a-impure.o)
 .ARM.attributes
                0x00000000000009d9       0x37 /Users/stevefar/nacl_sdk/pepper_45/toolchain/mac_arm_newlib/bin/../lib/gcc/arm-nacl/4.9.2/../../../../arm-nacl/lib/libcrt_common.a(lib_a-init.o)
 .ARM.attributes
                0x0000000000000a10       0x21 /Users/stevefar/nacl_sdk/pepper_45/toolchain/mac_arm_newlib/bin/../lib/gcc/arm-nacl/4.9.2/../../../../arm-nacl/lib/libcrt_common.a(lib_a-memcpy.o)
 .ARM.attributes
                0x0000000000000a31       0x37 /Users/stevefar/nacl_sdk/pepper_45/toolchain/mac_arm_newlib/bin/../lib/gcc/arm-nacl/4.9.2/../../../../arm-nacl/lib/libcrt_common.a(lib_a-memset.o)
 .ARM.attributes
                0x0000000000000a68       0x37 /Users/stevefar/nacl_sdk/pepper_45/toolchain/mac_arm_newlib/bin/../lib/gcc/arm-nacl/4.9.2/../../../../arm-nacl/lib/libcrt_common.a(lib_a-sleep.o)
 .ARM.attributes
                0x0000000000000a9f       0x37 /Users/stevefar/nacl_sdk/pepper_45/toolchain/mac_arm_newlib/bin/../lib/gcc/arm-nacl/4.9.2/../../../../arm-nacl/lib/libcrt_common.a(lib_a-stdio.o)
 .ARM.attributes
                0x0000000000000ad6       0x16 /Users/stevefar/nacl_sdk/pepper_45/toolchain/mac_arm_newlib/bin/../lib/gcc/arm-nacl/4.9.2/../../../../arm-nacl/lib/libcrt_common.a(lib_a-strcmp.o)
 .ARM.attributes
                0x0000000000000aec       0x16 /Users/stevefar/nacl_sdk/pepper_45/toolchain/mac_arm_newlib/bin/../lib/gcc/arm-nacl/4.9.2/../../../../arm-nacl/lib/libcrt_common.a(lib_a-strlen-armv7.o)
 .ARM.attributes
                0x0000000000000b02       0x37 /Users/stevefar/nacl_sdk/pepper_45/toolchain/mac_arm_newlib/bin/../lib/gcc/arm-nacl/4.9.2/../../../../arm-nacl/lib/libcrt_common.a(lib_a-strncmp.o)
 .ARM.attributes
                0x0000000000000b39       0x37 /Users/stevefar/nacl_sdk/pepper_45/toolchain/mac_arm_newlib/bin/../lib/gcc/arm-nacl/4.9.2/../../../../arm-nacl/lib/libcrt_common.a(lib_a-vfprintf.o)
 .ARM.attributes
                0x0000000000000b70       0x37 /Users/stevefar/nacl_sdk/pepper_45/toolchain/mac_arm_newlib/bin/../lib/gcc/arm-nacl/4.9.2/../../../../arm-nacl/lib/libcrt_common.a(lib_a-vsnprintf.o)
 .ARM.attributes
                0x0000000000000ba7       0x37 /Users/stevefar/nacl_sdk/pepper_45/toolchain/mac_arm_newlib/bin/../lib/gcc/arm-nacl/4.9.2/../../../../arm-nacl/lib/libcrt_common.a(lib_a-vsprintf.o)
 .ARM.attributes
                0x0000000000000bde       0x37 /Users/stevefar/nacl_sdk/pepper_45/toolchain/mac_arm_newlib/bin/../lib/gcc/arm-nacl/4.9.2/../../../../arm-nacl/lib/libcrt_common.a(lib_a-wcrtomb.o)
 .ARM.attributes
                0x0000000000000c15       0x37 /Users/stevefar/nacl_sdk/pepper_45/toolchain/mac_arm_newlib/bin/../lib/gcc/arm-nacl/4.9.2/../../../../arm-nacl/lib/libcrt_common.a(lib_a-wcsrtombs.o)
 .ARM.attributes
                0x0000000000000c4c       0x37 /Users/stevefar/nacl_sdk/pepper_45/toolchain/mac_arm_newlib/bin/../lib/gcc/arm-nacl/4.9.2/../../../../arm-nacl/lib/libcrt_common.a(lib_a-wctomb_r.o)
 .ARM.attributes
                0x0000000000000c83       0x37 /Users/stevefar/nacl_sdk/pepper_45/toolchain/mac_arm_newlib/bin/../lib/gcc/arm-nacl/4.9.2/../../../../arm-nacl/lib/libcrt_common.a(lib_a-wsetup.o)
 .ARM.attributes
                0x0000000000000cba       0x37 /Users/stevefar/nacl_sdk/pepper_45/toolchain/mac_arm_newlib/bin/../lib/gcc/arm-nacl/4.9.2/../../../../arm-nacl/lib/libcrt_common.a(lib_a-__atexit.o)
 .ARM.attributes
                0x0000000000000cf1       0x37 /Users/stevefar/nacl_sdk/pepper_45/toolchain/mac_arm_newlib/bin/../lib/gcc/arm-nacl/4.9.2/../../../../arm-nacl/lib/libcrt_common.a(lib_a-__call_atexit.o)
 .ARM.attributes
                0x0000000000000d28       0x37 /Users/stevefar/nacl_sdk/pepper_45/toolchain/mac_arm_newlib/bin/../lib/gcc/arm-nacl/4.9.2/../../../../arm-nacl/lib/libcrt_common.a(lib_a-dtoa.o)
 .ARM.attributes
                0x0000000000000d5f       0x37 /Users/stevefar/nacl_sdk/pepper_45/toolchain/mac_arm_newlib/bin/../lib/gcc/arm-nacl/4.9.2/../../../../arm-nacl/lib/libcrt_common.a(lib_a-envlock.o)
 .ARM.attributes
                0x0000000000000d96       0x37 /Users/stevefar/nacl_sdk/pepper_45/toolchain/mac_arm_newlib/bin/../lib/gcc/arm-nacl/4.9.2/../../../../arm-nacl/lib/libcrt_common.a(lib_a-fclose.o)
 .ARM.attributes
                0x0000000000000dcd       0x37 /Users/stevefar/nacl_sdk/pepper_45/toolchain/mac_arm_newlib/bin/../lib/gcc/arm-nacl/4.9.2/../../../../arm-nacl/lib/libcrt_common.a(lib_a-fvwrite.o)
 .ARM.attributes
                0x0000000000000e04       0x37 /Users/stevefar/nacl_sdk/pepper_45/toolchain/mac_arm_newlib/bin/../lib/gcc/arm-nacl/4.9.2/../../../../arm-nacl/lib/libcrt_common.a(lib_a-locale.o)
 .ARM.attributes
                0x0000000000000e3b       0x37 /Users/stevefar/nacl_sdk/pepper_45/toolchain/mac_arm_newlib/bin/../lib/gcc/arm-nacl/4.9.2/../../../../arm-nacl/lib/libcrt_common.a(lib_a-makebuf.o)
 .ARM.attributes
                0x0000000000000e72       0x37 /Users/stevefar/nacl_sdk/pepper_45/toolchain/mac_arm_newlib/bin/../lib/gcc/arm-nacl/4.9.2/../../../../arm-nacl/lib/libcrt_common.a(lib_a-mbtowc_r.o)
 .ARM.attributes
                0x0000000000000ea9       0x1d /Users/stevefar/nacl_sdk/pepper_45/toolchain/mac_arm_newlib/bin/../lib/gcc/arm-nacl/4.9.2/../../../../arm-nacl/lib/libcrt_common.a(lib_a-memchr.o)
 .ARM.attributes
                0x0000000000000ec6       0x37 /Users/stevefar/nacl_sdk/pepper_45/toolchain/mac_arm_newlib/bin/../lib/gcc/arm-nacl/4.9.2/../../../../arm-nacl/lib/libcrt_common.a(lib_a-memmove.o)
 .ARM.attributes
                0x0000000000000efd       0x37 /Users/stevefar/nacl_sdk/pepper_45/toolchain/mac_arm_newlib/bin/../lib/gcc/arm-nacl/4.9.2/../../../../arm-nacl/lib/libcrt_common.a(lib_a-mprec.o)
 .ARM.attributes
                0x0000000000000f34       0x37 /Users/stevefar/nacl_sdk/pepper_45/toolchain/mac_arm_newlib/bin/../lib/gcc/arm-nacl/4.9.2/../../../../arm-nacl/lib/libcrt_common.a(lib_a-s_fpclassify.o)
 .ARM.attributes
                0x0000000000000f6b       0x37 /Users/stevefar/nacl_sdk/pepper_45/toolchain/mac_arm_newlib/bin/../lib/gcc/arm-nacl/4.9.2/../../../../arm-nacl/lib/libcrt_common.a(lib_a-s_frexp.o)
 .ARM.attributes
                0x0000000000000fa2       0x37 /Users/stevefar/nacl_sdk/pepper_45/toolchain/mac_arm_newlib/bin/../lib/gcc/arm-nacl/4.9.2/../../../../arm-nacl/lib/libcrt_common.a(lib_a-strcasecmp.o)
 .ARM.attributes
                0x0000000000000fd9       0x37 /Users/stevefar/nacl_sdk/pepper_45/toolchain/mac_arm_newlib/bin/../lib/gcc/arm-nacl/4.9.2/../../../../arm-nacl/lib/libcrt_common.a(lib_a-strcat.o)
 .ARM.attributes
                0x0000000000001010       0x37 /Users/stevefar/nacl_sdk/pepper_45/toolchain/mac_arm_newlib/bin/../lib/gcc/arm-nacl/4.9.2/../../../../arm-nacl/lib/libcrt_common.a(lib_a-strchr.o)
 .ARM.attributes
                0x0000000000001047       0x37 /Users/stevefar/nacl_sdk/pepper_45/toolchain/mac_arm_newlib/bin/../lib/gcc/arm-nacl/4.9.2/../../../../arm-nacl/lib/libcrt_common.a(lib_a-strcpy.o)
 .ARM.attributes
                0x000000000000107e       0x37 /Users/stevefar/nacl_sdk/pepper_45/toolchain/mac_arm_newlib/bin/../lib/gcc/arm-nacl/4.9.2/../../../../arm-nacl/lib/libcrt_common.a(lib_a-strlcpy.o)
 .ARM.attributes
                0x00000000000010b5       0x37 /Users/stevefar/nacl_sdk/pepper_45/toolchain/mac_arm_newlib/bin/../lib/gcc/arm-nacl/4.9.2/../../../../arm-nacl/lib/libcrt_common.a(lib_a-strncasecmp.o)
 .ARM.attributes
                0x00000000000010ec       0x37 /Users/stevefar/nacl_sdk/pepper_45/toolchain/mac_arm_newlib/bin/../lib/gcc/arm-nacl/4.9.2/../../../../arm-nacl/lib/libcrt_common.a(lib_a-strncpy.o)
 .ARM.attributes
                0x0000000000001123       0x37 /Users/stevefar/nacl_sdk/pepper_45/toolchain/mac_arm_newlib/bin/../lib/gcc/arm-nacl/4.9.2/../../../../arm-nacl/lib/libcrt_common.a(lib_a-strtol.o)
 .ARM.attributes
                0x000000000000115a       0x37 /Users/stevefar/nacl_sdk/pepper_45/toolchain/mac_arm_newlib/bin/../lib/gcc/arm-nacl/4.9.2/../../../../arm-nacl/lib/libcrt_common.a(lib_a-svfprintf.o)
 .ARM.attributes
                0x0000000000001191       0x37 /Users/stevefar/nacl_sdk/pepper_45/toolchain/mac_arm_newlib/bin/../lib/gcc/arm-nacl/4.9.2/../../../../arm-nacl/lib/libcrt_common.a(lib_a-vfiprintf.o)
 .ARM.attributes
                0x00000000000011c8       0x37 /Users/stevefar/nacl_sdk/pepper_45/toolchain/mac_arm_newlib/bin/../lib/gcc/arm-nacl/4.9.2/../../../../arm-nacl/lib/libcrt_common.a(lib_a-wcsnrtombs.o)
 .ARM.attributes
                0x00000000000011ff       0x37 /Users/stevefar/nacl_sdk/pepper_45/toolchain/mac_arm_newlib/bin/../lib/gcc/arm-nacl/4.9.2/../../../../arm-nacl/lib/libcrt_common.a(lib_a-ctype_.o)
 .ARM.attributes
                0x0000000000001236       0x37 /Users/stevefar/nacl_sdk/pepper_45/toolchain/mac_arm_newlib/bin/../lib/gcc/arm-nacl/4.9.2/../../../../arm-nacl/lib/libcrt_common.a(lib_a-fputwc.o)
 .ARM.attributes
                0x000000000000126d       0x37 /Users/stevefar/nacl_sdk/pepper_45/toolchain/mac_arm_newlib/bin/../lib/gcc/arm-nacl/4.9.2/../../../../arm-nacl/lib/libcrt_common.a(lib_a-svfiprintf.o)
 .ARM.attributes
                0x00000000000012a4       0x37 /Users/stevefar/nacl_sdk/pepper_45/toolchain/mac_arm_newlib/bin/../lib/gcc/arm-nacl/4.9.2/../../../../arm-nacl/lib/libcrt_common.a(lib_a-wbuf.o)
 .ARM.attributes
                0x00000000000012db       0x37 /Users/stevefar/nacl_sdk/pepper_45/toolchain/mac_arm_newlib/bin/../lib/gcc/arm-nacl/4.9.2/../../../../arm-nacl/lib/libnacl.a(close_e9b92fbd.o)
 .ARM.attributes
                0x0000000000001312       0x37 /Users/stevefar/nacl_sdk/pepper_45/toolchain/mac_arm_newlib/bin/../lib/gcc/arm-nacl/4.9.2/../../../../arm-nacl/lib/libnacl.a(isatty_02f56e94.o)
 .ARM.attributes
                0x0000000000001349       0x37 /Users/stevefar/nacl_sdk/pepper_45/toolchain/mac_arm_newlib/bin/../lib/gcc/arm-nacl/4.9.2/../../../../arm-nacl/lib/libnacl.a(nacl_irt_fdio_b571b5e7.o)
 .ARM.attributes
                0x0000000000001380       0x37 /Users/stevefar/nacl_sdk/pepper_45/toolchain/mac_arm_newlib/bin/../lib/gcc/arm-nacl/4.9.2/../../../../arm-nacl/lib/libnacl.a(fstat_0540ff63.o)
 .ARM.attributes
                0x00000000000013b7       0x37 /Users/stevefar/nacl_sdk/pepper_45/toolchain/mac_arm_newlib/bin/../lib/gcc/arm-nacl/4.9.2/../../../../arm-nacl/lib/libnacl.a(lseek_64d2d05c.o)
 .ARM.attributes
                0x00000000000013ee       0x37 /Users/stevefar/nacl_sdk/pepper_45/toolchain/mac_arm_newlib/bin/../lib/gcc/arm-nacl/4.9.2/../../../../arm-nacl/lib/libnacl.a(read_df872e10.o)
 .ARM.attributes
                0x0000000000001425       0x37 /Users/stevefar/nacl_sdk/pepper_45/toolchain/mac_arm_newlib/bin/../lib/gcc/arm-nacl/4.9.2/../../../../arm-nacl/lib/libnacl.a(nanosleep_e59fdef1.o)
 .ARM.attributes
                0x000000000000145c       0x18 /Users/stevefar/nacl_sdk/pepper_45/toolchain/mac_arm_newlib/bin/../lib/gcc/arm-nacl/4.9.2/libgcc.a(_udivsi3.o)
 .ARM.attributes
                0x0000000000001474       0x18 /Users/stevefar/nacl_sdk/pepper_45/toolchain/mac_arm_newlib/bin/../lib/gcc/arm-nacl/4.9.2/libgcc.a(_divsi3.o)
 .ARM.attributes
                0x000000000000148c       0x18 /Users/stevefar/nacl_sdk/pepper_45/toolchain/mac_arm_newlib/bin/../lib/gcc/arm-nacl/4.9.2/libgcc.a(_aeabi_uldivmod.o)
 .ARM.attributes
                0x00000000000014a4       0x18 /Users/stevefar/nacl_sdk/pepper_45/toolchain/mac_arm_newlib/bin/../lib/gcc/arm-nacl/4.9.2/libgcc.a(_dvmd_nacl.o)
 .ARM.attributes
                0x00000000000014bc       0x37 /Users/stevefar/nacl_sdk/pepper_45/toolchain/mac_arm_newlib/bin/../lib/gcc/arm-nacl/4.9.2/libgcc.a(bpabi.o)
 .ARM.attributes
                0x00000000000014f3       0x37 /Users/stevefar/nacl_sdk/pepper_45/toolchain/mac_arm_newlib/bin/../lib/gcc/arm-nacl/4.9.2/libgcc.a(_divdi3.o)
 .ARM.attributes
                0x000000000000152a       0x37 /Users/stevefar/nacl_sdk/pepper_45/toolchain/mac_arm_newlib/bin/../lib/gcc/arm-nacl/4.9.2/libgcc.a(_udivdi3.o)
 .ARM.attributes
                0x0000000000001561       0x37 /Users/stevefar/nacl_sdk/pepper_45/toolchain/mac_arm_newlib/bin/../lib/gcc/arm-nacl/4.9.2/crtend.o
 .ARM.attributes
                0x0000000000001598       0x16 /Users/stevefar/nacl_sdk/pepper_45/toolchain/mac_arm_newlib/bin/../lib/gcc/arm-nacl/4.9.2/../../../../arm-nacl/lib/crtn.o

.debug
 *(.debug)

.line
 *(.line)

.debug_srcinfo
 *(.debug_srcinfo)

.debug_sfnames
 *(.debug_sfnames)

.debug_aranges  0x0000000000000000      0x5e0
 *(.debug_aranges)
 .debug_aranges
                0x0000000000000000       0x20 newlib/Release/debugging_arm.o
 .debug_aranges
                0x0000000000000020       0x20 /Users/stevefar/nacl_sdk/pepper_45/lib/newlib_arm/Release/liberror_handling.a(error_handling_arm.o)
 .debug_aranges
                0x0000000000000040       0x20 /Users/stevefar/nacl_sdk/pepper_45/lib/newlib_arm/Release/liberror_handling.a(string_stream_arm.o)
 .debug_aranges
                0x0000000000000060       0x20 /Users/stevefar/nacl_sdk/pepper_45/toolchain/mac_arm_newlib/bin/../lib/gcc/arm-nacl/4.9.2/../../../../arm-nacl/lib/libppapi_stub.a(plugin_main_irt_21ce9d26.o)
 .debug_aranges
                0x0000000000000080       0x20 /Users/stevefar/nacl_sdk/pepper_45/toolchain/mac_arm_newlib/bin/../lib/gcc/arm-nacl/4.9.2/../../../../arm-nacl/lib/libppapi_stub.a(ppapi_plugin_main_399d0cf7.o)
 .debug_aranges
                0x00000000000000a0       0x28 /Users/stevefar/nacl_sdk/pepper_45/toolchain/mac_arm_newlib/bin/../lib/gcc/arm-nacl/4.9.2/../../../../arm-nacl/lib/libppapi_stub.a(ppapi_plugin_start_8da67623.o)
 .debug_aranges
                0x00000000000000c8       0x20 /Users/stevefar/nacl_sdk/pepper_45/toolchain/mac_arm_newlib/bin/../lib/gcc/arm-nacl/4.9.2/../../../../arm-nacl/lib/libppapi_stub.a(thread_creator_ccf263e1.o)
 .debug_aranges
                0x00000000000000e8       0x20 /Users/stevefar/nacl_sdk/pepper_45/toolchain/mac_arm_newlib/bin/../lib/gcc/arm-nacl/4.9.2/../../../../arm-nacl/lib/libpthread.a(nc_thread_7e478b15.o)
 .debug_aranges
                0x0000000000000108       0x20 /Users/stevefar/nacl_sdk/pepper_45/toolchain/mac_arm_newlib/bin/../lib/gcc/arm-nacl/4.9.2/../../../../arm-nacl/lib/libpthread.a(nc_condvar_305aa45a.o)
 .debug_aranges
                0x0000000000000128       0x20 /Users/stevefar/nacl_sdk/pepper_45/toolchain/mac_arm_newlib/bin/../lib/gcc/arm-nacl/4.9.2/../../../../arm-nacl/lib/libpthread.a(dynamic_annotations_33ba59cc.o)
 .debug_aranges
                0x0000000000000148       0x20 /Users/stevefar/nacl_sdk/pepper_45/toolchain/mac_arm_newlib/bin/../lib/gcc/arm-nacl/4.9.2/../../../../arm-nacl/lib/libpthread.a(nc_mutex_86341ae1.o)
 .debug_aranges
                0x0000000000000168       0x20 /Users/stevefar/nacl_sdk/pepper_45/toolchain/mac_arm_newlib/bin/../lib/gcc/arm-nacl/4.9.2/../../../../arm-nacl/lib/libpthread.a(nc_init_irt_d3daafc0.o)
 .debug_aranges
                0x0000000000000188       0x20 /Users/stevefar/nacl_sdk/pepper_45/toolchain/mac_arm_newlib/bin/../lib/gcc/arm-nacl/4.9.2/libgcc.a(unwind-arm.o)
 .debug_aranges
                0x00000000000001a8       0x20 /Users/stevefar/nacl_sdk/pepper_45/toolchain/mac_arm_newlib/bin/../lib/gcc/arm-nacl/4.9.2/libgcc.a(libunwind.o)
 .debug_aranges
                0x00000000000001c8       0x20 /Users/stevefar/nacl_sdk/pepper_45/toolchain/mac_arm_newlib/bin/../lib/gcc/arm-nacl/4.9.2/libgcc.a(pr-support.o)
 .debug_aranges
                0x00000000000001e8       0x20 /Users/stevefar/nacl_sdk/pepper_45/toolchain/mac_arm_newlib/bin/../lib/gcc/arm-nacl/4.9.2/../../../../arm-nacl/lib/libnacl.a(_exit_710c7d0d.o)
 .debug_aranges
                0x0000000000000208       0x20 /Users/stevefar/nacl_sdk/pepper_45/toolchain/mac_arm_newlib/bin/../lib/gcc/arm-nacl/4.9.2/../../../../arm-nacl/lib/libnacl.a(abort_9f6b5845.o)
 .debug_aranges
                0x0000000000000228       0x18 /Users/stevefar/nacl_sdk/pepper_45/toolchain/mac_arm_newlib/bin/../lib/gcc/arm-nacl/4.9.2/../../../../arm-nacl/lib/libnacl.a(environ_25cd24d8.o)
 .debug_aranges
                0x0000000000000240       0x20 /Users/stevefar/nacl_sdk/pepper_45/toolchain/mac_arm_newlib/bin/../lib/gcc/arm-nacl/4.9.2/../../../../arm-nacl/lib/libnacl.a(malloc_222c4a1e.o)
 .debug_aranges
                0x0000000000000260       0x20 /Users/stevefar/nacl_sdk/pepper_45/toolchain/mac_arm_newlib/bin/../lib/gcc/arm-nacl/4.9.2/../../../../arm-nacl/lib/libnacl.a(nacl_irt_6de1d53f.o)
 .debug_aranges
                0x0000000000000280       0x20 /Users/stevefar/nacl_sdk/pepper_45/toolchain/mac_arm_newlib/bin/../lib/gcc/arm-nacl/4.9.2/../../../../arm-nacl/lib/libnacl.a(pthread_initialize_minimal_4b6e776b.o)
 .debug_aranges
                0x00000000000002a0       0x20 /Users/stevefar/nacl_sdk/pepper_45/toolchain/mac_arm_newlib/bin/../lib/gcc/arm-nacl/4.9.2/../../../../arm-nacl/lib/libnacl.a(nacl_read_tp_5748ac47.o)
 .debug_aranges
                0x00000000000002c0       0x20 /Users/stevefar/nacl_sdk/pepper_45/toolchain/mac_arm_newlib/bin/../lib/gcc/arm-nacl/4.9.2/../../../../arm-nacl/lib/libnacl.a(nacl_interface_query_ef8a99f1.o)
 .debug_aranges
                0x00000000000002e0       0x20 /Users/stevefar/nacl_sdk/pepper_45/toolchain/mac_arm_newlib/bin/../lib/gcc/arm-nacl/4.9.2/../../../../arm-nacl/lib/libnacl.a(mmap_767fb080.o)
 .debug_aranges
                0x0000000000000300       0x20 /Users/stevefar/nacl_sdk/pepper_45/toolchain/mac_arm_newlib/bin/../lib/gcc/arm-nacl/4.9.2/../../../../arm-nacl/lib/libnacl.a(sched_yield_56c375be.o)
 .debug_aranges
                0x0000000000000320       0x20 /Users/stevefar/nacl_sdk/pepper_45/toolchain/mac_arm_newlib/bin/../lib/gcc/arm-nacl/4.9.2/../../../../arm-nacl/lib/libnacl.a(start_fa9ef7de.o)
 .debug_aranges
                0x0000000000000340       0x20 /Users/stevefar/nacl_sdk/pepper_45/toolchain/mac_arm_newlib/bin/../lib/gcc/arm-nacl/4.9.2/../../../../arm-nacl/lib/libnacl.a(munmap_d4f09867.o)
 .debug_aranges
                0x0000000000000360       0x20 /Users/stevefar/nacl_sdk/pepper_45/toolchain/mac_arm_newlib/bin/../lib/gcc/arm-nacl/4.9.2/../../../../arm-nacl/lib/libnacl.a(tls_bba1975b.o)
 .debug_aranges
                0x0000000000000380       0x20 /Users/stevefar/nacl_sdk/pepper_45/toolchain/mac_arm_newlib/bin/../lib/gcc/arm-nacl/4.9.2/../../../../arm-nacl/lib/libnacl.a(write_fb49787f.o)
 .debug_aranges
                0x00000000000003a0       0x20 /Users/stevefar/nacl_sdk/pepper_45/toolchain/mac_arm_newlib/bin/../lib/gcc/arm-nacl/4.9.2/../../../../arm-nacl/lib/libnacl.a(nacl_tls_get_d2f842b5.o)
 .debug_aranges
                0x00000000000003c0       0x20 /Users/stevefar/nacl_sdk/pepper_45/toolchain/mac_arm_newlib/bin/../lib/gcc/arm-nacl/4.9.2/../../../../arm-nacl/lib/libnacl.a(nacl_irt_init_7b4f826e.o)
 .debug_aranges
                0x00000000000003e0       0x20 /Users/stevefar/nacl_sdk/pepper_45/toolchain/mac_arm_newlib/bin/../lib/gcc/arm-nacl/4.9.2/../../../../arm-nacl/lib/libnacl.a(sysconf_ad295ea2.o)
 .debug_aranges
                0x0000000000000400       0x20 /Users/stevefar/nacl_sdk/pepper_45/toolchain/mac_arm_newlib/bin/../lib/gcc/arm-nacl/4.9.2/../../../../arm-nacl/lib/libnacl.a(nacl_tls_init_eb0cd232.o)
 .debug_aranges
                0x0000000000000420       0x20 /Users/stevefar/nacl_sdk/pepper_45/toolchain/mac_arm_newlib/bin/../lib/gcc/arm-nacl/4.9.2/../../../../arm-nacl/lib/libnacl.a(close_e9b92fbd.o)
 .debug_aranges
                0x0000000000000440       0x20 /Users/stevefar/nacl_sdk/pepper_45/toolchain/mac_arm_newlib/bin/../lib/gcc/arm-nacl/4.9.2/../../../../arm-nacl/lib/libnacl.a(isatty_02f56e94.o)
 .debug_aranges
                0x0000000000000460       0x20 /Users/stevefar/nacl_sdk/pepper_45/toolchain/mac_arm_newlib/bin/../lib/gcc/arm-nacl/4.9.2/../../../../arm-nacl/lib/libnacl.a(nacl_irt_fdio_b571b5e7.o)
 .debug_aranges
                0x0000000000000480       0x20 /Users/stevefar/nacl_sdk/pepper_45/toolchain/mac_arm_newlib/bin/../lib/gcc/arm-nacl/4.9.2/../../../../arm-nacl/lib/libnacl.a(fstat_0540ff63.o)
 .debug_aranges
                0x00000000000004a0       0x20 /Users/stevefar/nacl_sdk/pepper_45/toolchain/mac_arm_newlib/bin/../lib/gcc/arm-nacl/4.9.2/../../../../arm-nacl/lib/libnacl.a(lseek_64d2d05c.o)
 .debug_aranges
                0x00000000000004c0       0x20 /Users/stevefar/nacl_sdk/pepper_45/toolchain/mac_arm_newlib/bin/../lib/gcc/arm-nacl/4.9.2/../../../../arm-nacl/lib/libnacl.a(read_df872e10.o)
 .debug_aranges
                0x00000000000004e0       0x20 /Users/stevefar/nacl_sdk/pepper_45/toolchain/mac_arm_newlib/bin/../lib/gcc/arm-nacl/4.9.2/../../../../arm-nacl/lib/libnacl.a(nanosleep_e59fdef1.o)
 .debug_aranges
                0x0000000000000500       0x20 /Users/stevefar/nacl_sdk/pepper_45/toolchain/mac_arm_newlib/bin/../lib/gcc/arm-nacl/4.9.2/libgcc.a(_udivsi3.o)
 .debug_aranges
                0x0000000000000520       0x20 /Users/stevefar/nacl_sdk/pepper_45/toolchain/mac_arm_newlib/bin/../lib/gcc/arm-nacl/4.9.2/libgcc.a(_divsi3.o)
 .debug_aranges
                0x0000000000000540       0x20 /Users/stevefar/nacl_sdk/pepper_45/toolchain/mac_arm_newlib/bin/../lib/gcc/arm-nacl/4.9.2/libgcc.a(_aeabi_uldivmod.o)
 .debug_aranges
                0x0000000000000560       0x20 /Users/stevefar/nacl_sdk/pepper_45/toolchain/mac_arm_newlib/bin/../lib/gcc/arm-nacl/4.9.2/libgcc.a(_dvmd_nacl.o)
 .debug_aranges
                0x0000000000000580       0x20 /Users/stevefar/nacl_sdk/pepper_45/toolchain/mac_arm_newlib/bin/../lib/gcc/arm-nacl/4.9.2/libgcc.a(bpabi.o)
 .debug_aranges
                0x00000000000005a0       0x20 /Users/stevefar/nacl_sdk/pepper_45/toolchain/mac_arm_newlib/bin/../lib/gcc/arm-nacl/4.9.2/libgcc.a(_divdi3.o)
 .debug_aranges
                0x00000000000005c0       0x20 /Users/stevefar/nacl_sdk/pepper_45/toolchain/mac_arm_newlib/bin/../lib/gcc/arm-nacl/4.9.2/libgcc.a(_udivdi3.o)

.debug_pubnames
 *(.debug_pubnames)

.debug_info     0x0000000000000000    0x13f3d
 *(.debug_info .gnu.linkonce.wi.*)
 .debug_info    0x0000000000000000     0x1850 newlib/Release/debugging_arm.o
 .debug_info    0x0000000000001850     0x1629 /Users/stevefar/nacl_sdk/pepper_45/lib/newlib_arm/Release/liberror_handling.a(error_handling_arm.o)
 .debug_info    0x0000000000002e79      0x33a /Users/stevefar/nacl_sdk/pepper_45/lib/newlib_arm/Release/liberror_handling.a(string_stream_arm.o)
 .debug_info    0x00000000000031b3       0xa8 /Users/stevefar/nacl_sdk/pepper_45/toolchain/mac_arm_newlib/bin/../lib/gcc/arm-nacl/4.9.2/../../../../arm-nacl/lib/libppapi_stub.a(plugin_main_irt_21ce9d26.o)
 .debug_info    0x000000000000325b      0x161 /Users/stevefar/nacl_sdk/pepper_45/toolchain/mac_arm_newlib/bin/../lib/gcc/arm-nacl/4.9.2/../../../../arm-nacl/lib/libppapi_stub.a(ppapi_plugin_main_399d0cf7.o)
 .debug_info    0x00000000000033bc      0x4a6 /Users/stevefar/nacl_sdk/pepper_45/toolchain/mac_arm_newlib/bin/../lib/gcc/arm-nacl/4.9.2/../../../../arm-nacl/lib/libppapi_stub.a(ppapi_plugin_start_8da67623.o)
 .debug_info    0x0000000000003862      0x3b1 /Users/stevefar/nacl_sdk/pepper_45/toolchain/mac_arm_newlib/bin/../lib/gcc/arm-nacl/4.9.2/../../../../arm-nacl/lib/libppapi_stub.a(thread_creator_ccf263e1.o)
 .debug_info    0x0000000000003c13     0x1f2f /Users/stevefar/nacl_sdk/pepper_45/toolchain/mac_arm_newlib/bin/../lib/gcc/arm-nacl/4.9.2/../../../../arm-nacl/lib/libpthread.a(nc_thread_7e478b15.o)
 .debug_info    0x0000000000005b42      0x7bf /Users/stevefar/nacl_sdk/pepper_45/toolchain/mac_arm_newlib/bin/../lib/gcc/arm-nacl/4.9.2/../../../../arm-nacl/lib/libpthread.a(nc_condvar_305aa45a.o)
 .debug_info    0x0000000000006301      0xa68 /Users/stevefar/nacl_sdk/pepper_45/toolchain/mac_arm_newlib/bin/../lib/gcc/arm-nacl/4.9.2/../../../../arm-nacl/lib/libpthread.a(dynamic_annotations_33ba59cc.o)
 .debug_info    0x0000000000006d69      0x996 /Users/stevefar/nacl_sdk/pepper_45/toolchain/mac_arm_newlib/bin/../lib/gcc/arm-nacl/4.9.2/../../../../arm-nacl/lib/libpthread.a(nc_mutex_86341ae1.o)
 .debug_info    0x00000000000076ff      0x288 /Users/stevefar/nacl_sdk/pepper_45/toolchain/mac_arm_newlib/bin/../lib/gcc/arm-nacl/4.9.2/../../../../arm-nacl/lib/libpthread.a(nc_init_irt_d3daafc0.o)
 .debug_info    0x0000000000007987     0x1c6a /Users/stevefar/nacl_sdk/pepper_45/toolchain/mac_arm_newlib/bin/../lib/gcc/arm-nacl/4.9.2/libgcc.a(unwind-arm.o)
 .debug_info    0x00000000000095f1       0xce /Users/stevefar/nacl_sdk/pepper_45/toolchain/mac_arm_newlib/bin/../lib/gcc/arm-nacl/4.9.2/libgcc.a(libunwind.o)
 .debug_info    0x00000000000096bf      0xa58 /Users/stevefar/nacl_sdk/pepper_45/toolchain/mac_arm_newlib/bin/../lib/gcc/arm-nacl/4.9.2/libgcc.a(pr-support.o)
 .debug_info    0x000000000000a117      0x22a /Users/stevefar/nacl_sdk/pepper_45/toolchain/mac_arm_newlib/bin/../lib/gcc/arm-nacl/4.9.2/../../../../arm-nacl/lib/libnacl.a(_exit_710c7d0d.o)
 .debug_info    0x000000000000a341      0x100 /Users/stevefar/nacl_sdk/pepper_45/toolchain/mac_arm_newlib/bin/../lib/gcc/arm-nacl/4.9.2/../../../../arm-nacl/lib/libnacl.a(abort_9f6b5845.o)
 .debug_info    0x000000000000a441       0x6a /Users/stevefar/nacl_sdk/pepper_45/toolchain/mac_arm_newlib/bin/../lib/gcc/arm-nacl/4.9.2/../../../../arm-nacl/lib/libnacl.a(environ_25cd24d8.o)
 .debug_info    0x000000000000a4ab     0x4963 /Users/stevefar/nacl_sdk/pepper_45/toolchain/mac_arm_newlib/bin/../lib/gcc/arm-nacl/4.9.2/../../../../arm-nacl/lib/libnacl.a(malloc_222c4a1e.o)
 .debug_info    0x000000000000ee0e      0xcf5 /Users/stevefar/nacl_sdk/pepper_45/toolchain/mac_arm_newlib/bin/../lib/gcc/arm-nacl/4.9.2/../../../../arm-nacl/lib/libnacl.a(nacl_irt_6de1d53f.o)
 .debug_info    0x000000000000fb03      0x1f3 /Users/stevefar/nacl_sdk/pepper_45/toolchain/mac_arm_newlib/bin/../lib/gcc/arm-nacl/4.9.2/../../../../arm-nacl/lib/libnacl.a(pthread_initialize_minimal_4b6e776b.o)
 .debug_info    0x000000000000fcf6       0xaa /Users/stevefar/nacl_sdk/pepper_45/toolchain/mac_arm_newlib/bin/../lib/gcc/arm-nacl/4.9.2/../../../../arm-nacl/lib/libnacl.a(nacl_read_tp_5748ac47.o)
 .debug_info    0x000000000000fda0      0x129 /Users/stevefar/nacl_sdk/pepper_45/toolchain/mac_arm_newlib/bin/../lib/gcc/arm-nacl/4.9.2/../../../../arm-nacl/lib/libnacl.a(nacl_interface_query_ef8a99f1.o)
 .debug_info    0x000000000000fec9      0x239 /Users/stevefar/nacl_sdk/pepper_45/toolchain/mac_arm_newlib/bin/../lib/gcc/arm-nacl/4.9.2/../../../../arm-nacl/lib/libnacl.a(mmap_767fb080.o)
 .debug_info    0x0000000000010102      0x235 /Users/stevefar/nacl_sdk/pepper_45/toolchain/mac_arm_newlib/bin/../lib/gcc/arm-nacl/4.9.2/../../../../arm-nacl/lib/libnacl.a(sched_yield_56c375be.o)
 .debug_info    0x0000000000010337      0x3ce /Users/stevefar/nacl_sdk/pepper_45/toolchain/mac_arm_newlib/bin/../lib/gcc/arm-nacl/4.9.2/../../../../arm-nacl/lib/libnacl.a(start_fa9ef7de.o)
 .debug_info    0x0000000000010705      0x1ca /Users/stevefar/nacl_sdk/pepper_45/toolchain/mac_arm_newlib/bin/../lib/gcc/arm-nacl/4.9.2/../../../../arm-nacl/lib/libnacl.a(munmap_d4f09867.o)
 .debug_info    0x00000000000108cf      0x8ed /Users/stevefar/nacl_sdk/pepper_45/toolchain/mac_arm_newlib/bin/../lib/gcc/arm-nacl/4.9.2/../../../../arm-nacl/lib/libnacl.a(tls_bba1975b.o)
 .debug_info    0x00000000000111bc      0x2df /Users/stevefar/nacl_sdk/pepper_45/toolchain/mac_arm_newlib/bin/../lib/gcc/arm-nacl/4.9.2/../../../../arm-nacl/lib/libnacl.a(write_fb49787f.o)
 .debug_info    0x000000000001149b       0xe4 /Users/stevefar/nacl_sdk/pepper_45/toolchain/mac_arm_newlib/bin/../lib/gcc/arm-nacl/4.9.2/../../../../arm-nacl/lib/libnacl.a(nacl_tls_get_d2f842b5.o)
 .debug_info    0x000000000001157f      0x75e /Users/stevefar/nacl_sdk/pepper_45/toolchain/mac_arm_newlib/bin/../lib/gcc/arm-nacl/4.9.2/../../../../arm-nacl/lib/libnacl.a(nacl_irt_init_7b4f826e.o)
 .debug_info    0x0000000000011cdd      0x269 /Users/stevefar/nacl_sdk/pepper_45/toolchain/mac_arm_newlib/bin/../lib/gcc/arm-nacl/4.9.2/../../../../arm-nacl/lib/libnacl.a(sysconf_ad295ea2.o)
 .debug_info    0x0000000000011f46      0x105 /Users/stevefar/nacl_sdk/pepper_45/toolchain/mac_arm_newlib/bin/../lib/gcc/arm-nacl/4.9.2/../../../../arm-nacl/lib/libnacl.a(nacl_tls_init_eb0cd232.o)
 .debug_info    0x000000000001204b      0x29f /Users/stevefar/nacl_sdk/pepper_45/toolchain/mac_arm_newlib/bin/../lib/gcc/arm-nacl/4.9.2/../../../../arm-nacl/lib/libnacl.a(close_e9b92fbd.o)
 .debug_info    0x00000000000122ea      0x362 /Users/stevefar/nacl_sdk/pepper_45/toolchain/mac_arm_newlib/bin/../lib/gcc/arm-nacl/4.9.2/../../../../arm-nacl/lib/libnacl.a(isatty_02f56e94.o)
 .debug_info    0x000000000001264c      0x358 /Users/stevefar/nacl_sdk/pepper_45/toolchain/mac_arm_newlib/bin/../lib/gcc/arm-nacl/4.9.2/../../../../arm-nacl/lib/libnacl.a(nacl_irt_fdio_b571b5e7.o)
 .debug_info    0x00000000000129a4      0x48e /Users/stevefar/nacl_sdk/pepper_45/toolchain/mac_arm_newlib/bin/../lib/gcc/arm-nacl/4.9.2/../../../../arm-nacl/lib/libnacl.a(fstat_0540ff63.o)
 .debug_info    0x0000000000012e32      0x2fd /Users/stevefar/nacl_sdk/pepper_45/toolchain/mac_arm_newlib/bin/../lib/gcc/arm-nacl/4.9.2/../../../../arm-nacl/lib/libnacl.a(lseek_64d2d05c.o)
 .debug_info    0x000000000001312f      0x2df /Users/stevefar/nacl_sdk/pepper_45/toolchain/mac_arm_newlib/bin/../lib/gcc/arm-nacl/4.9.2/../../../../arm-nacl/lib/libnacl.a(read_df872e10.o)
 .debug_info    0x000000000001340e      0x26b /Users/stevefar/nacl_sdk/pepper_45/toolchain/mac_arm_newlib/bin/../lib/gcc/arm-nacl/4.9.2/../../../../arm-nacl/lib/libnacl.a(nanosleep_e59fdef1.o)
 .debug_info    0x0000000000013679       0xce /Users/stevefar/nacl_sdk/pepper_45/toolchain/mac_arm_newlib/bin/../lib/gcc/arm-nacl/4.9.2/libgcc.a(_udivsi3.o)
 .debug_info    0x0000000000013747       0xce /Users/stevefar/nacl_sdk/pepper_45/toolchain/mac_arm_newlib/bin/../lib/gcc/arm-nacl/4.9.2/libgcc.a(_divsi3.o)
 .debug_info    0x0000000000013815       0xca /Users/stevefar/nacl_sdk/pepper_45/toolchain/mac_arm_newlib/bin/../lib/gcc/arm-nacl/4.9.2/libgcc.a(_aeabi_uldivmod.o)
 .debug_info    0x00000000000138df       0xce /Users/stevefar/nacl_sdk/pepper_45/toolchain/mac_arm_newlib/bin/../lib/gcc/arm-nacl/4.9.2/libgcc.a(_dvmd_nacl.o)
 .debug_info    0x00000000000139ad      0x164 /Users/stevefar/nacl_sdk/pepper_45/toolchain/mac_arm_newlib/bin/../lib/gcc/arm-nacl/4.9.2/libgcc.a(bpabi.o)
 .debug_info    0x0000000000013b11      0x265 /Users/stevefar/nacl_sdk/pepper_45/toolchain/mac_arm_newlib/bin/../lib/gcc/arm-nacl/4.9.2/libgcc.a(_divdi3.o)
 .debug_info    0x0000000000013d76      0x1c7 /Users/stevefar/nacl_sdk/pepper_45/toolchain/mac_arm_newlib/bin/../lib/gcc/arm-nacl/4.9.2/libgcc.a(_udivdi3.o)

.debug_abbrev   0x0000000000000000     0x45a9
 *(.debug_abbrev)
 .debug_abbrev  0x0000000000000000      0x42e newlib/Release/debugging_arm.o
 .debug_abbrev  0x000000000000042e      0x401 /Users/stevefar/nacl_sdk/pepper_45/lib/newlib_arm/Release/liberror_handling.a(error_handling_arm.o)
 .debug_abbrev  0x000000000000082f      0x1b9 /Users/stevefar/nacl_sdk/pepper_45/lib/newlib_arm/Release/liberror_handling.a(string_stream_arm.o)
 .debug_abbrev  0x00000000000009e8       0x67 /Users/stevefar/nacl_sdk/pepper_45/toolchain/mac_arm_newlib/bin/../lib/gcc/arm-nacl/4.9.2/../../../../arm-nacl/lib/libppapi_stub.a(plugin_main_irt_21ce9d26.o)
 .debug_abbrev  0x0000000000000a4f       0xcf /Users/stevefar/nacl_sdk/pepper_45/toolchain/mac_arm_newlib/bin/../lib/gcc/arm-nacl/4.9.2/../../../../arm-nacl/lib/libppapi_stub.a(ppapi_plugin_main_399d0cf7.o)
 .debug_abbrev  0x0000000000000b1e      0x1e3 /Users/stevefar/nacl_sdk/pepper_45/toolchain/mac_arm_newlib/bin/../lib/gcc/arm-nacl/4.9.2/../../../../arm-nacl/lib/libppapi_stub.a(ppapi_plugin_start_8da67623.o)
 .debug_abbrev  0x0000000000000d01      0x152 /Users/stevefar/nacl_sdk/pepper_45/toolchain/mac_arm_newlib/bin/../lib/gcc/arm-nacl/4.9.2/../../../../arm-nacl/lib/libppapi_stub.a(thread_creator_ccf263e1.o)
 .debug_abbrev  0x0000000000000e53      0x595 /Users/stevefar/nacl_sdk/pepper_45/toolchain/mac_arm_newlib/bin/../lib/gcc/arm-nacl/4.9.2/../../../../arm-nacl/lib/libpthread.a(nc_thread_7e478b15.o)
 .debug_abbrev  0x00000000000013e8      0x232 /Users/stevefar/nacl_sdk/pepper_45/toolchain/mac_arm_newlib/bin/../lib/gcc/arm-nacl/4.9.2/../../../../arm-nacl/lib/libpthread.a(nc_condvar_305aa45a.o)
 .debug_abbrev  0x000000000000161a      0x14a /Users/stevefar/nacl_sdk/pepper_45/toolchain/mac_arm_newlib/bin/../lib/gcc/arm-nacl/4.9.2/../../../../arm-nacl/lib/libpthread.a(dynamic_annotations_33ba59cc.o)
 .debug_abbrev  0x0000000000001764      0x2e0 /Users/stevefar/nacl_sdk/pepper_45/toolchain/mac_arm_newlib/bin/../lib/gcc/arm-nacl/4.9.2/../../../../arm-nacl/lib/libpthread.a(nc_mutex_86341ae1.o)
 .debug_abbrev  0x0000000000001a44      0x118 /Users/stevefar/nacl_sdk/pepper_45/toolchain/mac_arm_newlib/bin/../lib/gcc/arm-nacl/4.9.2/../../../../arm-nacl/lib/libpthread.a(nc_init_irt_d3daafc0.o)
 .debug_abbrev  0x0000000000001b5c      0x43a /Users/stevefar/nacl_sdk/pepper_45/toolchain/mac_arm_newlib/bin/../lib/gcc/arm-nacl/4.9.2/libgcc.a(unwind-arm.o)
 .debug_abbrev  0x0000000000001f96       0x14 /Users/stevefar/nacl_sdk/pepper_45/toolchain/mac_arm_newlib/bin/../lib/gcc/arm-nacl/4.9.2/libgcc.a(libunwind.o)
 .debug_abbrev  0x0000000000001faa      0x26e /Users/stevefar/nacl_sdk/pepper_45/toolchain/mac_arm_newlib/bin/../lib/gcc/arm-nacl/4.9.2/libgcc.a(pr-support.o)
 .debug_abbrev  0x0000000000002218       0xd8 /Users/stevefar/nacl_sdk/pepper_45/toolchain/mac_arm_newlib/bin/../lib/gcc/arm-nacl/4.9.2/../../../../arm-nacl/lib/libnacl.a(_exit_710c7d0d.o)
 .debug_abbrev  0x00000000000022f0       0xb8 /Users/stevefar/nacl_sdk/pepper_45/toolchain/mac_arm_newlib/bin/../lib/gcc/arm-nacl/4.9.2/../../../../arm-nacl/lib/libnacl.a(abort_9f6b5845.o)
 .debug_abbrev  0x00000000000023a8       0x56 /Users/stevefar/nacl_sdk/pepper_45/toolchain/mac_arm_newlib/bin/../lib/gcc/arm-nacl/4.9.2/../../../../arm-nacl/lib/libnacl.a(environ_25cd24d8.o)
 .debug_abbrev  0x00000000000023fe      0x4ce /Users/stevefar/nacl_sdk/pepper_45/toolchain/mac_arm_newlib/bin/../lib/gcc/arm-nacl/4.9.2/../../../../arm-nacl/lib/libnacl.a(malloc_222c4a1e.o)
 .debug_abbrev  0x00000000000028cc      0x29c /Users/stevefar/nacl_sdk/pepper_45/toolchain/mac_arm_newlib/bin/../lib/gcc/arm-nacl/4.9.2/../../../../arm-nacl/lib/libnacl.a(nacl_irt_6de1d53f.o)
 .debug_abbrev  0x0000000000002b68      0x111 /Users/stevefar/nacl_sdk/pepper_45/toolchain/mac_arm_newlib/bin/../lib/gcc/arm-nacl/4.9.2/../../../../arm-nacl/lib/libnacl.a(pthread_initialize_minimal_4b6e776b.o)
 .debug_abbrev  0x0000000000002c79       0x6e /Users/stevefar/nacl_sdk/pepper_45/toolchain/mac_arm_newlib/bin/../lib/gcc/arm-nacl/4.9.2/../../../../arm-nacl/lib/libnacl.a(nacl_read_tp_5748ac47.o)
 .debug_abbrev  0x0000000000002ce7       0xb4 /Users/stevefar/nacl_sdk/pepper_45/toolchain/mac_arm_newlib/bin/../lib/gcc/arm-nacl/4.9.2/../../../../arm-nacl/lib/libnacl.a(nacl_interface_query_ef8a99f1.o)
 .debug_abbrev  0x0000000000002d9b      0x109 /Users/stevefar/nacl_sdk/pepper_45/toolchain/mac_arm_newlib/bin/../lib/gcc/arm-nacl/4.9.2/../../../../arm-nacl/lib/libnacl.a(mmap_767fb080.o)
 .debug_abbrev  0x0000000000002ea4       0xe3 /Users/stevefar/nacl_sdk/pepper_45/toolchain/mac_arm_newlib/bin/../lib/gcc/arm-nacl/4.9.2/../../../../arm-nacl/lib/libnacl.a(sched_yield_56c375be.o)
 .debug_abbrev  0x0000000000002f87      0x1f0 /Users/stevefar/nacl_sdk/pepper_45/toolchain/mac_arm_newlib/bin/../lib/gcc/arm-nacl/4.9.2/../../../../arm-nacl/lib/libnacl.a(start_fa9ef7de.o)
 .debug_abbrev  0x0000000000003177       0xf7 /Users/stevefar/nacl_sdk/pepper_45/toolchain/mac_arm_newlib/bin/../lib/gcc/arm-nacl/4.9.2/../../../../arm-nacl/lib/libnacl.a(munmap_d4f09867.o)
 .debug_abbrev  0x000000000000326e      0x2b1 /Users/stevefar/nacl_sdk/pepper_45/toolchain/mac_arm_newlib/bin/../lib/gcc/arm-nacl/4.9.2/../../../../arm-nacl/lib/libnacl.a(tls_bba1975b.o)
 .debug_abbrev  0x000000000000351f      0x132 /Users/stevefar/nacl_sdk/pepper_45/toolchain/mac_arm_newlib/bin/../lib/gcc/arm-nacl/4.9.2/../../../../arm-nacl/lib/libnacl.a(write_fb49787f.o)
 .debug_abbrev  0x0000000000003651       0x9b /Users/stevefar/nacl_sdk/pepper_45/toolchain/mac_arm_newlib/bin/../lib/gcc/arm-nacl/4.9.2/../../../../arm-nacl/lib/libnacl.a(nacl_tls_get_d2f842b5.o)
 .debug_abbrev  0x00000000000036ec      0x21b /Users/stevefar/nacl_sdk/pepper_45/toolchain/mac_arm_newlib/bin/../lib/gcc/arm-nacl/4.9.2/../../../../arm-nacl/lib/libnacl.a(nacl_irt_init_7b4f826e.o)
 .debug_abbrev  0x0000000000003907      0x118 /Users/stevefar/nacl_sdk/pepper_45/toolchain/mac_arm_newlib/bin/../lib/gcc/arm-nacl/4.9.2/../../../../arm-nacl/lib/libnacl.a(sysconf_ad295ea2.o)
 .debug_abbrev  0x0000000000003a1f       0xc7 /Users/stevefar/nacl_sdk/pepper_45/toolchain/mac_arm_newlib/bin/../lib/gcc/arm-nacl/4.9.2/../../../../arm-nacl/lib/libnacl.a(nacl_tls_init_eb0cd232.o)
 .debug_abbrev  0x0000000000003ae6      0x114 /Users/stevefar/nacl_sdk/pepper_45/toolchain/mac_arm_newlib/bin/../lib/gcc/arm-nacl/4.9.2/../../../../arm-nacl/lib/libnacl.a(close_e9b92fbd.o)
 .debug_abbrev  0x0000000000003bfa      0x13f /Users/stevefar/nacl_sdk/pepper_45/toolchain/mac_arm_newlib/bin/../lib/gcc/arm-nacl/4.9.2/../../../../arm-nacl/lib/libnacl.a(isatty_02f56e94.o)
 .debug_abbrev  0x0000000000003d39      0x100 /Users/stevefar/nacl_sdk/pepper_45/toolchain/mac_arm_newlib/bin/../lib/gcc/arm-nacl/4.9.2/../../../../arm-nacl/lib/libnacl.a(nacl_irt_fdio_b571b5e7.o)
 .debug_abbrev  0x0000000000003e39      0x114 /Users/stevefar/nacl_sdk/pepper_45/toolchain/mac_arm_newlib/bin/../lib/gcc/arm-nacl/4.9.2/../../../../arm-nacl/lib/libnacl.a(fstat_0540ff63.o)
 .debug_abbrev  0x0000000000003f4d      0x132 /Users/stevefar/nacl_sdk/pepper_45/toolchain/mac_arm_newlib/bin/../lib/gcc/arm-nacl/4.9.2/../../../../arm-nacl/lib/libnacl.a(lseek_64d2d05c.o)
 .debug_abbrev  0x000000000000407f      0x132 /Users/stevefar/nacl_sdk/pepper_45/toolchain/mac_arm_newlib/bin/../lib/gcc/arm-nacl/4.9.2/../../../../arm-nacl/lib/libnacl.a(read_df872e10.o)
 .debug_abbrev  0x00000000000041b1      0x109 /Users/stevefar/nacl_sdk/pepper_45/toolchain/mac_arm_newlib/bin/../lib/gcc/arm-nacl/4.9.2/../../../../arm-nacl/lib/libnacl.a(nanosleep_e59fdef1.o)
 .debug_abbrev  0x00000000000042ba       0x14 /Users/stevefar/nacl_sdk/pepper_45/toolchain/mac_arm_newlib/bin/../lib/gcc/arm-nacl/4.9.2/libgcc.a(_udivsi3.o)
 .debug_abbrev  0x00000000000042ce       0x14 /Users/stevefar/nacl_sdk/pepper_45/toolchain/mac_arm_newlib/bin/../lib/gcc/arm-nacl/4.9.2/libgcc.a(_divsi3.o)
 .debug_abbrev  0x00000000000042e2       0x14 /Users/stevefar/nacl_sdk/pepper_45/toolchain/mac_arm_newlib/bin/../lib/gcc/arm-nacl/4.9.2/libgcc.a(_aeabi_uldivmod.o)
 .debug_abbrev  0x00000000000042f6       0x14 /Users/stevefar/nacl_sdk/pepper_45/toolchain/mac_arm_newlib/bin/../lib/gcc/arm-nacl/4.9.2/libgcc.a(_dvmd_nacl.o)
 .debug_abbrev  0x000000000000430a       0xb7 /Users/stevefar/nacl_sdk/pepper_45/toolchain/mac_arm_newlib/bin/../lib/gcc/arm-nacl/4.9.2/libgcc.a(bpabi.o)
 .debug_abbrev  0x00000000000043c1      0x121 /Users/stevefar/nacl_sdk/pepper_45/toolchain/mac_arm_newlib/bin/../lib/gcc/arm-nacl/4.9.2/libgcc.a(_divdi3.o)
 .debug_abbrev  0x00000000000044e2       0xc7 /Users/stevefar/nacl_sdk/pepper_45/toolchain/mac_arm_newlib/bin/../lib/gcc/arm-nacl/4.9.2/libgcc.a(_udivdi3.o)

.debug_line     0x0000000000000000     0x76f7
 *(.debug_line .debug_line.* .debug_line_end)
 .debug_line    0x0000000000000000      0x45b newlib/Release/debugging_arm.o
 .debug_line    0x000000000000045b      0x4cf /Users/stevefar/nacl_sdk/pepper_45/lib/newlib_arm/Release/liberror_handling.a(error_handling_arm.o)
 .debug_line    0x000000000000092a      0x1ed /Users/stevefar/nacl_sdk/pepper_45/lib/newlib_arm/Release/liberror_handling.a(string_stream_arm.o)
 .debug_line    0x0000000000000b17       0x8b /Users/stevefar/nacl_sdk/pepper_45/toolchain/mac_arm_newlib/bin/../lib/gcc/arm-nacl/4.9.2/../../../../arm-nacl/lib/libppapi_stub.a(plugin_main_irt_21ce9d26.o)
 .debug_line    0x0000000000000ba2      0x1f8 /Users/stevefar/nacl_sdk/pepper_45/toolchain/mac_arm_newlib/bin/../lib/gcc/arm-nacl/4.9.2/../../../../arm-nacl/lib/libppapi_stub.a(ppapi_plugin_main_399d0cf7.o)
 .debug_line    0x0000000000000d9a      0x3b0 /Users/stevefar/nacl_sdk/pepper_45/toolchain/mac_arm_newlib/bin/../lib/gcc/arm-nacl/4.9.2/../../../../arm-nacl/lib/libppapi_stub.a(ppapi_plugin_start_8da67623.o)
 .debug_line    0x000000000000114a      0x249 /Users/stevefar/nacl_sdk/pepper_45/toolchain/mac_arm_newlib/bin/../lib/gcc/arm-nacl/4.9.2/../../../../arm-nacl/lib/libppapi_stub.a(thread_creator_ccf263e1.o)
 .debug_line    0x0000000000001393      0x7b5 /Users/stevefar/nacl_sdk/pepper_45/toolchain/mac_arm_newlib/bin/../lib/gcc/arm-nacl/4.9.2/../../../../arm-nacl/lib/libpthread.a(nc_thread_7e478b15.o)
 .debug_line    0x0000000000001b48      0x2e6 /Users/stevefar/nacl_sdk/pepper_45/toolchain/mac_arm_newlib/bin/../lib/gcc/arm-nacl/4.9.2/../../../../arm-nacl/lib/libpthread.a(nc_condvar_305aa45a.o)
 .debug_line    0x0000000000001e2e      0x136 /Users/stevefar/nacl_sdk/pepper_45/toolchain/mac_arm_newlib/bin/../lib/gcc/arm-nacl/4.9.2/../../../../arm-nacl/lib/libpthread.a(dynamic_annotations_33ba59cc.o)
 .debug_line    0x0000000000001f64      0x31e /Users/stevefar/nacl_sdk/pepper_45/toolchain/mac_arm_newlib/bin/../lib/gcc/arm-nacl/4.9.2/../../../../arm-nacl/lib/libpthread.a(nc_mutex_86341ae1.o)
 .debug_line    0x0000000000002282      0x256 /Users/stevefar/nacl_sdk/pepper_45/toolchain/mac_arm_newlib/bin/../lib/gcc/arm-nacl/4.9.2/../../../../arm-nacl/lib/libpthread.a(nc_init_irt_d3daafc0.o)
 .debug_line    0x00000000000024d8      0x588 /Users/stevefar/nacl_sdk/pepper_45/toolchain/mac_arm_newlib/bin/../lib/gcc/arm-nacl/4.9.2/libgcc.a(unwind-arm.o)
 .debug_line    0x0000000000002a60       0x9a /Users/stevefar/nacl_sdk/pepper_45/toolchain/mac_arm_newlib/bin/../lib/gcc/arm-nacl/4.9.2/libgcc.a(libunwind.o)
 .debug_line    0x0000000000002afa      0x212 /Users/stevefar/nacl_sdk/pepper_45/toolchain/mac_arm_newlib/bin/../lib/gcc/arm-nacl/4.9.2/libgcc.a(pr-support.o)
 .debug_line    0x0000000000002d0c      0x252 /Users/stevefar/nacl_sdk/pepper_45/toolchain/mac_arm_newlib/bin/../lib/gcc/arm-nacl/4.9.2/../../../../arm-nacl/lib/libnacl.a(_exit_710c7d0d.o)
 .debug_line    0x0000000000002f5e      0x1bf /Users/stevefar/nacl_sdk/pepper_45/toolchain/mac_arm_newlib/bin/../lib/gcc/arm-nacl/4.9.2/../../../../arm-nacl/lib/libnacl.a(abort_9f6b5845.o)
 .debug_line    0x000000000000311d       0x30 /Users/stevefar/nacl_sdk/pepper_45/toolchain/mac_arm_newlib/bin/../lib/gcc/arm-nacl/4.9.2/../../../../arm-nacl/lib/libnacl.a(environ_25cd24d8.o)
 .debug_line    0x000000000000314d      0xee5 /Users/stevefar/nacl_sdk/pepper_45/toolchain/mac_arm_newlib/bin/../lib/gcc/arm-nacl/4.9.2/../../../../arm-nacl/lib/libnacl.a(malloc_222c4a1e.o)
 .debug_line    0x0000000000004032      0x2f3 /Users/stevefar/nacl_sdk/pepper_45/toolchain/mac_arm_newlib/bin/../lib/gcc/arm-nacl/4.9.2/../../../../arm-nacl/lib/libnacl.a(nacl_irt_6de1d53f.o)
 .debug_line    0x0000000000004325      0x2ce /Users/stevefar/nacl_sdk/pepper_45/toolchain/mac_arm_newlib/bin/../lib/gcc/arm-nacl/4.9.2/../../../../arm-nacl/lib/libnacl.a(pthread_initialize_minimal_4b6e776b.o)
 .debug_line    0x00000000000045f3       0x7d /Users/stevefar/nacl_sdk/pepper_45/toolchain/mac_arm_newlib/bin/../lib/gcc/arm-nacl/4.9.2/../../../../arm-nacl/lib/libnacl.a(nacl_read_tp_5748ac47.o)
 .debug_line    0x0000000000004670      0x142 /Users/stevefar/nacl_sdk/pepper_45/toolchain/mac_arm_newlib/bin/../lib/gcc/arm-nacl/4.9.2/../../../../arm-nacl/lib/libnacl.a(nacl_interface_query_ef8a99f1.o)
 .debug_line    0x00000000000047b2      0x2e0 /Users/stevefar/nacl_sdk/pepper_45/toolchain/mac_arm_newlib/bin/../lib/gcc/arm-nacl/4.9.2/../../../../arm-nacl/lib/libnacl.a(mmap_767fb080.o)
 .debug_line    0x0000000000004a92      0x268 /Users/stevefar/nacl_sdk/pepper_45/toolchain/mac_arm_newlib/bin/../lib/gcc/arm-nacl/4.9.2/../../../../arm-nacl/lib/libnacl.a(sched_yield_56c375be.o)
 .debug_line    0x0000000000004cfa      0x2a3 /Users/stevefar/nacl_sdk/pepper_45/toolchain/mac_arm_newlib/bin/../lib/gcc/arm-nacl/4.9.2/../../../../arm-nacl/lib/libnacl.a(start_fa9ef7de.o)
 .debug_line    0x0000000000004f9d      0x2ca /Users/stevefar/nacl_sdk/pepper_45/toolchain/mac_arm_newlib/bin/../lib/gcc/arm-nacl/4.9.2/../../../../arm-nacl/lib/libnacl.a(munmap_d4f09867.o)
 .debug_line    0x0000000000005267      0x319 /Users/stevefar/nacl_sdk/pepper_45/toolchain/mac_arm_newlib/bin/../lib/gcc/arm-nacl/4.9.2/../../../../arm-nacl/lib/libnacl.a(tls_bba1975b.o)
 .debug_line    0x0000000000005580      0x2cc /Users/stevefar/nacl_sdk/pepper_45/toolchain/mac_arm_newlib/bin/../lib/gcc/arm-nacl/4.9.2/../../../../arm-nacl/lib/libnacl.a(write_fb49787f.o)
 .debug_line    0x000000000000584c       0xaf /Users/stevefar/nacl_sdk/pepper_45/toolchain/mac_arm_newlib/bin/../lib/gcc/arm-nacl/4.9.2/../../../../arm-nacl/lib/libnacl.a(nacl_tls_get_d2f842b5.o)
 .debug_line    0x00000000000058fb      0x32f /Users/stevefar/nacl_sdk/pepper_45/toolchain/mac_arm_newlib/bin/../lib/gcc/arm-nacl/4.9.2/../../../../arm-nacl/lib/libnacl.a(nacl_irt_init_7b4f826e.o)
 .debug_line    0x0000000000005c2a      0x266 /Users/stevefar/nacl_sdk/pepper_45/toolchain/mac_arm_newlib/bin/../lib/gcc/arm-nacl/4.9.2/../../../../arm-nacl/lib/libnacl.a(sysconf_ad295ea2.o)
 .debug_line    0x0000000000005e90       0xb0 /Users/stevefar/nacl_sdk/pepper_45/toolchain/mac_arm_newlib/bin/../lib/gcc/arm-nacl/4.9.2/../../../../arm-nacl/lib/libnacl.a(nacl_tls_init_eb0cd232.o)
 .debug_line    0x0000000000005f40      0x2cb /Users/stevefar/nacl_sdk/pepper_45/toolchain/mac_arm_newlib/bin/../lib/gcc/arm-nacl/4.9.2/../../../../arm-nacl/lib/libnacl.a(close_e9b92fbd.o)
 .debug_line    0x000000000000620b      0x2ea /Users/stevefar/nacl_sdk/pepper_45/toolchain/mac_arm_newlib/bin/../lib/gcc/arm-nacl/4.9.2/../../../../arm-nacl/lib/libnacl.a(isatty_02f56e94.o)
 .debug_line    0x00000000000064f5      0x2dc /Users/stevefar/nacl_sdk/pepper_45/toolchain/mac_arm_newlib/bin/../lib/gcc/arm-nacl/4.9.2/../../../../arm-nacl/lib/libnacl.a(nacl_irt_fdio_b571b5e7.o)
 .debug_line    0x00000000000067d1      0x35e /Users/stevefar/nacl_sdk/pepper_45/toolchain/mac_arm_newlib/bin/../lib/gcc/arm-nacl/4.9.2/../../../../arm-nacl/lib/libnacl.a(fstat_0540ff63.o)
 .debug_line    0x0000000000006b2f      0x2e2 /Users/stevefar/nacl_sdk/pepper_45/toolchain/mac_arm_newlib/bin/../lib/gcc/arm-nacl/4.9.2/../../../../arm-nacl/lib/libnacl.a(lseek_64d2d05c.o)
 .debug_line    0x0000000000006e11      0x2cb /Users/stevefar/nacl_sdk/pepper_45/toolchain/mac_arm_newlib/bin/../lib/gcc/arm-nacl/4.9.2/../../../../arm-nacl/lib/libnacl.a(read_df872e10.o)
 .debug_line    0x00000000000070dc      0x265 /Users/stevefar/nacl_sdk/pepper_45/toolchain/mac_arm_newlib/bin/../lib/gcc/arm-nacl/4.9.2/../../../../arm-nacl/lib/libnacl.a(nanosleep_e59fdef1.o)
 .debug_line    0x0000000000007341       0x84 /Users/stevefar/nacl_sdk/pepper_45/toolchain/mac_arm_newlib/bin/../lib/gcc/arm-nacl/4.9.2/libgcc.a(_udivsi3.o)
 .debug_line    0x00000000000073c5       0x90 /Users/stevefar/nacl_sdk/pepper_45/toolchain/mac_arm_newlib/bin/../lib/gcc/arm-nacl/4.9.2/libgcc.a(_divsi3.o)
 .debug_line    0x0000000000007455       0x6a /Users/stevefar/nacl_sdk/pepper_45/toolchain/mac_arm_newlib/bin/../lib/gcc/arm-nacl/4.9.2/libgcc.a(_aeabi_uldivmod.o)
 .debug_line    0x00000000000074bf       0x67 /Users/stevefar/nacl_sdk/pepper_45/toolchain/mac_arm_newlib/bin/../lib/gcc/arm-nacl/4.9.2/libgcc.a(_dvmd_nacl.o)
 .debug_line    0x0000000000007526       0x79 /Users/stevefar/nacl_sdk/pepper_45/toolchain/mac_arm_newlib/bin/../lib/gcc/arm-nacl/4.9.2/libgcc.a(bpabi.o)
 .debug_line    0x000000000000759f       0xb7 /Users/stevefar/nacl_sdk/pepper_45/toolchain/mac_arm_newlib/bin/../lib/gcc/arm-nacl/4.9.2/libgcc.a(_divdi3.o)
 .debug_line    0x0000000000007656       0xa1 /Users/stevefar/nacl_sdk/pepper_45/toolchain/mac_arm_newlib/bin/../lib/gcc/arm-nacl/4.9.2/libgcc.a(_udivdi3.o)

.debug_frame    0x0000000000000000     0x209c
 *(.debug_frame)
 .debug_frame   0x0000000000000000      0x2ac newlib/Release/debugging_arm.o
 .debug_frame   0x00000000000002ac      0x134 /Users/stevefar/nacl_sdk/pepper_45/lib/newlib_arm/Release/liberror_handling.a(error_handling_arm.o)
 .debug_frame   0x00000000000003e0       0xb0 /Users/stevefar/nacl_sdk/pepper_45/lib/newlib_arm/Release/liberror_handling.a(string_stream_arm.o)
 .debug_frame   0x0000000000000490       0x20 /Users/stevefar/nacl_sdk/pepper_45/toolchain/mac_arm_newlib/bin/../lib/gcc/arm-nacl/4.9.2/../../../../arm-nacl/lib/libppapi_stub.a(plugin_main_irt_21ce9d26.o)
 .debug_frame   0x00000000000004b0       0x20 /Users/stevefar/nacl_sdk/pepper_45/toolchain/mac_arm_newlib/bin/../lib/gcc/arm-nacl/4.9.2/../../../../arm-nacl/lib/libppapi_stub.a(ppapi_plugin_main_399d0cf7.o)
 .debug_frame   0x00000000000004d0       0x58 /Users/stevefar/nacl_sdk/pepper_45/toolchain/mac_arm_newlib/bin/../lib/gcc/arm-nacl/4.9.2/../../../../arm-nacl/lib/libppapi_stub.a(ppapi_plugin_start_8da67623.o)
 .debug_frame   0x0000000000000528       0x40 /Users/stevefar/nacl_sdk/pepper_45/toolchain/mac_arm_newlib/bin/../lib/gcc/arm-nacl/4.9.2/../../../../arm-nacl/lib/libppapi_stub.a(thread_creator_ccf263e1.o)
 .debug_frame   0x0000000000000568      0x4a0 /Users/stevefar/nacl_sdk/pepper_45/toolchain/mac_arm_newlib/bin/../lib/gcc/arm-nacl/4.9.2/../../../../arm-nacl/lib/libpthread.a(nc_thread_7e478b15.o)
 .debug_frame   0x0000000000000a08      0x118 /Users/stevefar/nacl_sdk/pepper_45/toolchain/mac_arm_newlib/bin/../lib/gcc/arm-nacl/4.9.2/../../../../arm-nacl/lib/libpthread.a(nc_condvar_305aa45a.o)
 .debug_frame   0x0000000000000b20      0x288 /Users/stevefar/nacl_sdk/pepper_45/toolchain/mac_arm_newlib/bin/../lib/gcc/arm-nacl/4.9.2/../../../../arm-nacl/lib/libpthread.a(dynamic_annotations_33ba59cc.o)
 .debug_frame   0x0000000000000da8      0x184 /Users/stevefar/nacl_sdk/pepper_45/toolchain/mac_arm_newlib/bin/../lib/gcc/arm-nacl/4.9.2/../../../../arm-nacl/lib/libpthread.a(nc_mutex_86341ae1.o)
 .debug_frame   0x0000000000000f2c       0x38 /Users/stevefar/nacl_sdk/pepper_45/toolchain/mac_arm_newlib/bin/../lib/gcc/arm-nacl/4.9.2/../../../../arm-nacl/lib/libpthread.a(nc_init_irt_d3daafc0.o)
 .debug_frame   0x0000000000000f64      0x35c /Users/stevefar/nacl_sdk/pepper_45/toolchain/mac_arm_newlib/bin/../lib/gcc/arm-nacl/4.9.2/libgcc.a(unwind-arm.o)
 .debug_frame   0x00000000000012c0      0x134 /Users/stevefar/nacl_sdk/pepper_45/toolchain/mac_arm_newlib/bin/../lib/gcc/arm-nacl/4.9.2/libgcc.a(pr-support.o)
 .debug_frame   0x00000000000013f4       0x2c /Users/stevefar/nacl_sdk/pepper_45/toolchain/mac_arm_newlib/bin/../lib/gcc/arm-nacl/4.9.2/../../../../arm-nacl/lib/libnacl.a(_exit_710c7d0d.o)
 .debug_frame   0x0000000000001420       0x2c /Users/stevefar/nacl_sdk/pepper_45/toolchain/mac_arm_newlib/bin/../lib/gcc/arm-nacl/4.9.2/../../../../arm-nacl/lib/libnacl.a(abort_9f6b5845.o)
 .debug_frame   0x000000000000144c      0x550 /Users/stevefar/nacl_sdk/pepper_45/toolchain/mac_arm_newlib/bin/../lib/gcc/arm-nacl/4.9.2/../../../../arm-nacl/lib/libnacl.a(malloc_222c4a1e.o)
 .debug_frame   0x000000000000199c      0x120 /Users/stevefar/nacl_sdk/pepper_45/toolchain/mac_arm_newlib/bin/../lib/gcc/arm-nacl/4.9.2/../../../../arm-nacl/lib/libnacl.a(nacl_irt_6de1d53f.o)
 .debug_frame   0x0000000000001abc       0x38 /Users/stevefar/nacl_sdk/pepper_45/toolchain/mac_arm_newlib/bin/../lib/gcc/arm-nacl/4.9.2/../../../../arm-nacl/lib/libnacl.a(pthread_initialize_minimal_4b6e776b.o)
 .debug_frame   0x0000000000001af4       0x20 /Users/stevefar/nacl_sdk/pepper_45/toolchain/mac_arm_newlib/bin/../lib/gcc/arm-nacl/4.9.2/../../../../arm-nacl/lib/libnacl.a(nacl_read_tp_5748ac47.o)
 .debug_frame   0x0000000000001b14       0x20 /Users/stevefar/nacl_sdk/pepper_45/toolchain/mac_arm_newlib/bin/../lib/gcc/arm-nacl/4.9.2/../../../../arm-nacl/lib/libnacl.a(nacl_interface_query_ef8a99f1.o)
 .debug_frame   0x0000000000001b34       0x44 /Users/stevefar/nacl_sdk/pepper_45/toolchain/mac_arm_newlib/bin/../lib/gcc/arm-nacl/4.9.2/../../../../arm-nacl/lib/libnacl.a(mmap_767fb080.o)
 .debug_frame   0x0000000000001b78       0x38 /Users/stevefar/nacl_sdk/pepper_45/toolchain/mac_arm_newlib/bin/../lib/gcc/arm-nacl/4.9.2/../../../../arm-nacl/lib/libnacl.a(sched_yield_56c375be.o)
 .debug_frame   0x0000000000001bb0       0x30 /Users/stevefar/nacl_sdk/pepper_45/toolchain/mac_arm_newlib/bin/../lib/gcc/arm-nacl/4.9.2/../../../../arm-nacl/lib/libnacl.a(start_fa9ef7de.o)
 .debug_frame   0x0000000000001be0       0x38 /Users/stevefar/nacl_sdk/pepper_45/toolchain/mac_arm_newlib/bin/../lib/gcc/arm-nacl/4.9.2/../../../../arm-nacl/lib/libnacl.a(munmap_d4f09867.o)
 .debug_frame   0x0000000000001c18       0xa0 /Users/stevefar/nacl_sdk/pepper_45/toolchain/mac_arm_newlib/bin/../lib/gcc/arm-nacl/4.9.2/../../../../arm-nacl/lib/libnacl.a(tls_bba1975b.o)
 .debug_frame   0x0000000000001cb8       0x38 /Users/stevefar/nacl_sdk/pepper_45/toolchain/mac_arm_newlib/bin/../lib/gcc/arm-nacl/4.9.2/../../../../arm-nacl/lib/libnacl.a(write_fb49787f.o)
 .debug_frame   0x0000000000001cf0       0x20 /Users/stevefar/nacl_sdk/pepper_45/toolchain/mac_arm_newlib/bin/../lib/gcc/arm-nacl/4.9.2/../../../../arm-nacl/lib/libnacl.a(nacl_tls_get_d2f842b5.o)
 .debug_frame   0x0000000000001d10       0x48 /Users/stevefar/nacl_sdk/pepper_45/toolchain/mac_arm_newlib/bin/../lib/gcc/arm-nacl/4.9.2/../../../../arm-nacl/lib/libnacl.a(nacl_irt_init_7b4f826e.o)
 .debug_frame   0x0000000000001d58       0x38 /Users/stevefar/nacl_sdk/pepper_45/toolchain/mac_arm_newlib/bin/../lib/gcc/arm-nacl/4.9.2/../../../../arm-nacl/lib/libnacl.a(sysconf_ad295ea2.o)
 .debug_frame   0x0000000000001d90       0x20 /Users/stevefar/nacl_sdk/pepper_45/toolchain/mac_arm_newlib/bin/../lib/gcc/arm-nacl/4.9.2/../../../../arm-nacl/lib/libnacl.a(nacl_tls_init_eb0cd232.o)
 .debug_frame   0x0000000000001db0       0x38 /Users/stevefar/nacl_sdk/pepper_45/toolchain/mac_arm_newlib/bin/../lib/gcc/arm-nacl/4.9.2/../../../../arm-nacl/lib/libnacl.a(close_e9b92fbd.o)
 .debug_frame   0x0000000000001de8       0x38 /Users/stevefar/nacl_sdk/pepper_45/toolchain/mac_arm_newlib/bin/../lib/gcc/arm-nacl/4.9.2/../../../../arm-nacl/lib/libnacl.a(isatty_02f56e94.o)
 .debug_frame   0x0000000000001e20       0x44 /Users/stevefar/nacl_sdk/pepper_45/toolchain/mac_arm_newlib/bin/../lib/gcc/arm-nacl/4.9.2/../../../../arm-nacl/lib/libnacl.a(nacl_irt_fdio_b571b5e7.o)
 .debug_frame   0x0000000000001e64       0x38 /Users/stevefar/nacl_sdk/pepper_45/toolchain/mac_arm_newlib/bin/../lib/gcc/arm-nacl/4.9.2/../../../../arm-nacl/lib/libnacl.a(fstat_0540ff63.o)
 .debug_frame   0x0000000000001e9c       0x38 /Users/stevefar/nacl_sdk/pepper_45/toolchain/mac_arm_newlib/bin/../lib/gcc/arm-nacl/4.9.2/../../../../arm-nacl/lib/libnacl.a(lseek_64d2d05c.o)
 .debug_frame   0x0000000000001ed4       0x38 /Users/stevefar/nacl_sdk/pepper_45/toolchain/mac_arm_newlib/bin/../lib/gcc/arm-nacl/4.9.2/../../../../arm-nacl/lib/libnacl.a(read_df872e10.o)
 .debug_frame   0x0000000000001f0c       0x38 /Users/stevefar/nacl_sdk/pepper_45/toolchain/mac_arm_newlib/bin/../lib/gcc/arm-nacl/4.9.2/../../../../arm-nacl/lib/libnacl.a(nanosleep_e59fdef1.o)
 .debug_frame   0x0000000000001f44       0x20 /Users/stevefar/nacl_sdk/pepper_45/toolchain/mac_arm_newlib/bin/../lib/gcc/arm-nacl/4.9.2/libgcc.a(_udivsi3.o)
 .debug_frame   0x0000000000001f64       0x20 /Users/stevefar/nacl_sdk/pepper_45/toolchain/mac_arm_newlib/bin/../lib/gcc/arm-nacl/4.9.2/libgcc.a(_divsi3.o)
 .debug_frame   0x0000000000001f84       0x28 /Users/stevefar/nacl_sdk/pepper_45/toolchain/mac_arm_newlib/bin/../lib/gcc/arm-nacl/4.9.2/libgcc.a(_aeabi_uldivmod.o)
 .debug_frame   0x0000000000001fac       0x78 /Users/stevefar/nacl_sdk/pepper_45/toolchain/mac_arm_newlib/bin/../lib/gcc/arm-nacl/4.9.2/libgcc.a(bpabi.o)
 .debug_frame   0x0000000000002024       0x44 /Users/stevefar/nacl_sdk/pepper_45/toolchain/mac_arm_newlib/bin/../lib/gcc/arm-nacl/4.9.2/libgcc.a(_divdi3.o)
 .debug_frame   0x0000000000002068       0x34 /Users/stevefar/nacl_sdk/pepper_45/toolchain/mac_arm_newlib/bin/../lib/gcc/arm-nacl/4.9.2/libgcc.a(_udivdi3.o)

.debug_str      0x0000000000000000     0x4507
 *(.debug_str)
 .debug_str     0x0000000000000000      0xdcc newlib/Release/debugging_arm.o
                                        0xf5b (size before relaxing)
 .debug_str     0x0000000000000dcc      0x408 /Users/stevefar/nacl_sdk/pepper_45/lib/newlib_arm/Release/liberror_handling.a(error_handling_arm.o)
                                        0x996 (size before relaxing)
 .debug_str     0x00000000000011d4       0x60 /Users/stevefar/nacl_sdk/pepper_45/lib/newlib_arm/Release/liberror_handling.a(string_stream_arm.o)
                                        0x1d1 (size before relaxing)
 .debug_str     0x0000000000001234       0xfa /Users/stevefar/nacl_sdk/pepper_45/toolchain/mac_arm_newlib/bin/../lib/gcc/arm-nacl/4.9.2/../../../../arm-nacl/lib/libppapi_stub.a(plugin_main_irt_21ce9d26.o)
                                        0x18c (size before relaxing)
 .debug_str     0x000000000000132e       0x51 /Users/stevefar/nacl_sdk/pepper_45/toolchain/mac_arm_newlib/bin/../lib/gcc/arm-nacl/4.9.2/../../../../arm-nacl/lib/libppapi_stub.a(ppapi_plugin_main_399d0cf7.o)
                                        0x211 (size before relaxing)
 .debug_str     0x000000000000137f       0xfb /Users/stevefar/nacl_sdk/pepper_45/toolchain/mac_arm_newlib/bin/../lib/gcc/arm-nacl/4.9.2/../../../../arm-nacl/lib/libppapi_stub.a(ppapi_plugin_start_8da67623.o)
                                        0x35a (size before relaxing)
 .debug_str     0x000000000000147a       0x3b /Users/stevefar/nacl_sdk/pepper_45/toolchain/mac_arm_newlib/bin/../lib/gcc/arm-nacl/4.9.2/../../../../arm-nacl/lib/libppapi_stub.a(thread_creator_ccf263e1.o)
                                        0x31b (size before relaxing)
 .debug_str     0x00000000000014b5      0xb30 /Users/stevefar/nacl_sdk/pepper_45/toolchain/mac_arm_newlib/bin/../lib/gcc/arm-nacl/4.9.2/../../../../arm-nacl/lib/libpthread.a(nc_thread_7e478b15.o)
                                        0xde1 (size before relaxing)
 .debug_str     0x0000000000001fe5      0x167 /Users/stevefar/nacl_sdk/pepper_45/toolchain/mac_arm_newlib/bin/../lib/gcc/arm-nacl/4.9.2/../../../../arm-nacl/lib/libpthread.a(nc_condvar_305aa45a.o)
                                        0x59c (size before relaxing)
 .debug_str     0x000000000000214c      0x45f /Users/stevefar/nacl_sdk/pepper_45/toolchain/mac_arm_newlib/bin/../lib/gcc/arm-nacl/4.9.2/../../../../arm-nacl/lib/libpthread.a(dynamic_annotations_33ba59cc.o)
                                        0x63f (size before relaxing)
 .debug_str     0x00000000000025ab      0x154 /Users/stevefar/nacl_sdk/pepper_45/toolchain/mac_arm_newlib/bin/../lib/gcc/arm-nacl/4.9.2/../../../../arm-nacl/lib/libpthread.a(nc_mutex_86341ae1.o)
                                        0x6c8 (size before relaxing)
 .debug_str     0x00000000000026ff       0x2c /Users/stevefar/nacl_sdk/pepper_45/toolchain/mac_arm_newlib/bin/../lib/gcc/arm-nacl/4.9.2/../../../../arm-nacl/lib/libpthread.a(nc_init_irt_d3daafc0.o)
                                        0x27a (size before relaxing)
 .debug_str     0x000000000000272b      0xb1a /Users/stevefar/nacl_sdk/pepper_45/toolchain/mac_arm_newlib/bin/../lib/gcc/arm-nacl/4.9.2/libgcc.a(unwind-arm.o)
                                        0xc14 (size before relaxing)
 .debug_str     0x0000000000003245       0xe6 /Users/stevefar/nacl_sdk/pepper_45/toolchain/mac_arm_newlib/bin/../lib/gcc/arm-nacl/4.9.2/libgcc.a(pr-support.o)
                                        0x5a8 (size before relaxing)
 .debug_str     0x000000000000332b       0xa8 /Users/stevefar/nacl_sdk/pepper_45/toolchain/mac_arm_newlib/bin/../lib/gcc/arm-nacl/4.9.2/../../../../arm-nacl/lib/libnacl.a(_exit_710c7d0d.o)
                                        0x20f (size before relaxing)
 .debug_str     0x00000000000033d3        0x8 /Users/stevefar/nacl_sdk/pepper_45/toolchain/mac_arm_newlib/bin/../lib/gcc/arm-nacl/4.9.2/../../../../arm-nacl/lib/libnacl.a(abort_9f6b5845.o)
                                        0x178 (size before relaxing)
 .debug_str     0x00000000000033db       0x16 /Users/stevefar/nacl_sdk/pepper_45/toolchain/mac_arm_newlib/bin/../lib/gcc/arm-nacl/4.9.2/../../../../arm-nacl/lib/libnacl.a(environ_25cd24d8.o)
                                         0xef (size before relaxing)
 .debug_str     0x00000000000033f1      0x6db /Users/stevefar/nacl_sdk/pepper_45/toolchain/mac_arm_newlib/bin/../lib/gcc/arm-nacl/4.9.2/../../../../arm-nacl/lib/libnacl.a(malloc_222c4a1e.o)
                                        0xdb2 (size before relaxing)
 .debug_str     0x0000000000003acc      0x27a /Users/stevefar/nacl_sdk/pepper_45/toolchain/mac_arm_newlib/bin/../lib/gcc/arm-nacl/4.9.2/../../../../arm-nacl/lib/libnacl.a(nacl_irt_6de1d53f.o)
                                        0x5ec (size before relaxing)
 .debug_str     0x0000000000003d46       0x2b /Users/stevefar/nacl_sdk/pepper_45/toolchain/mac_arm_newlib/bin/../lib/gcc/arm-nacl/4.9.2/../../../../arm-nacl/lib/libnacl.a(pthread_initialize_minimal_4b6e776b.o)
                                        0x23f (size before relaxing)
 .debug_str     0x0000000000003d71       0x1c /Users/stevefar/nacl_sdk/pepper_45/toolchain/mac_arm_newlib/bin/../lib/gcc/arm-nacl/4.9.2/../../../../arm-nacl/lib/libnacl.a(nacl_read_tp_5748ac47.o)
                                        0x180 (size before relaxing)
 .debug_str     0x0000000000003d8d       0x31 /Users/stevefar/nacl_sdk/pepper_45/toolchain/mac_arm_newlib/bin/../lib/gcc/arm-nacl/4.9.2/../../../../arm-nacl/lib/libnacl.a(nacl_interface_query_ef8a99f1.o)
                                        0x1cd (size before relaxing)
 .debug_str     0x0000000000003dbe       0x11 /Users/stevefar/nacl_sdk/pepper_45/toolchain/mac_arm_newlib/bin/../lib/gcc/arm-nacl/4.9.2/../../../../arm-nacl/lib/libnacl.a(mmap_767fb080.o)
                                        0x1fd (size before relaxing)
 .debug_str     0x0000000000003dcf        0xe /Users/stevefar/nacl_sdk/pepper_45/toolchain/mac_arm_newlib/bin/../lib/gcc/arm-nacl/4.9.2/../../../../arm-nacl/lib/libnacl.a(sched_yield_56c375be.o)
                                        0x216 (size before relaxing)
 .debug_str     0x0000000000003ddd      0x137 /Users/stevefar/nacl_sdk/pepper_45/toolchain/mac_arm_newlib/bin/../lib/gcc/arm-nacl/4.9.2/../../../../arm-nacl/lib/libnacl.a(start_fa9ef7de.o)
                                        0x320 (size before relaxing)
 .debug_str     0x0000000000003f14        0x9 /Users/stevefar/nacl_sdk/pepper_45/toolchain/mac_arm_newlib/bin/../lib/gcc/arm-nacl/4.9.2/../../../../arm-nacl/lib/libnacl.a(munmap_d4f09867.o)
                                        0x1db (size before relaxing)
 .debug_str     0x0000000000003f1d      0x2a2 /Users/stevefar/nacl_sdk/pepper_45/toolchain/mac_arm_newlib/bin/../lib/gcc/arm-nacl/4.9.2/../../../../arm-nacl/lib/libnacl.a(tls_bba1975b.o)
                                        0x519 (size before relaxing)
 .debug_str     0x00000000000041bf        0x8 /Users/stevefar/nacl_sdk/pepper_45/toolchain/mac_arm_newlib/bin/../lib/gcc/arm-nacl/4.9.2/../../../../arm-nacl/lib/libnacl.a(write_fb49787f.o)
                                        0x1fc (size before relaxing)
 .debug_str     0x00000000000041c7        0xf /Users/stevefar/nacl_sdk/pepper_45/toolchain/mac_arm_newlib/bin/../lib/gcc/arm-nacl/4.9.2/../../../../arm-nacl/lib/libnacl.a(nacl_tls_get_d2f842b5.o)
                                        0x1a1 (size before relaxing)
 .debug_str     0x00000000000041d6       0x52 /Users/stevefar/nacl_sdk/pepper_45/toolchain/mac_arm_newlib/bin/../lib/gcc/arm-nacl/4.9.2/../../../../arm-nacl/lib/libnacl.a(nacl_irt_init_7b4f826e.o)
                                        0x3e4 (size before relaxing)
 .debug_str     0x0000000000004228        0xa /Users/stevefar/nacl_sdk/pepper_45/toolchain/mac_arm_newlib/bin/../lib/gcc/arm-nacl/4.9.2/../../../../arm-nacl/lib/libnacl.a(sysconf_ad295ea2.o)
                                        0x21d (size before relaxing)
 .debug_str     0x0000000000004232       0x1b /Users/stevefar/nacl_sdk/pepper_45/toolchain/mac_arm_newlib/bin/../lib/gcc/arm-nacl/4.9.2/../../../../arm-nacl/lib/libnacl.a(nacl_tls_init_eb0cd232.o)
                                        0x1ae (size before relaxing)
 .debug_str     0x000000000000424d        0x8 /Users/stevefar/nacl_sdk/pepper_45/toolchain/mac_arm_newlib/bin/../lib/gcc/arm-nacl/4.9.2/../../../../arm-nacl/lib/libnacl.a(close_e9b92fbd.o)
                                        0x1ef (size before relaxing)
 .debug_str     0x0000000000004255        0x9 /Users/stevefar/nacl_sdk/pepper_45/toolchain/mac_arm_newlib/bin/../lib/gcc/arm-nacl/4.9.2/../../../../arm-nacl/lib/libnacl.a(isatty_02f56e94.o)
                                        0x246 (size before relaxing)
 .debug_str     0x000000000000425e       0x2c /Users/stevefar/nacl_sdk/pepper_45/toolchain/mac_arm_newlib/bin/../lib/gcc/arm-nacl/4.9.2/../../../../arm-nacl/lib/libnacl.a(nacl_irt_fdio_b571b5e7.o)
                                        0x252 (size before relaxing)
 .debug_str     0x000000000000428a       0xdd /Users/stevefar/nacl_sdk/pepper_45/toolchain/mac_arm_newlib/bin/../lib/gcc/arm-nacl/4.9.2/../../../../arm-nacl/lib/libnacl.a(fstat_0540ff63.o)
                                        0x350 (size before relaxing)
 .debug_str     0x0000000000004367        0xe /Users/stevefar/nacl_sdk/pepper_45/toolchain/mac_arm_newlib/bin/../lib/gcc/arm-nacl/4.9.2/../../../../arm-nacl/lib/libnacl.a(lseek_64d2d05c.o)
                                        0x217 (size before relaxing)
 .debug_str     0x0000000000004375        0xe /Users/stevefar/nacl_sdk/pepper_45/toolchain/mac_arm_newlib/bin/../lib/gcc/arm-nacl/4.9.2/../../../../arm-nacl/lib/libnacl.a(read_df872e10.o)
                                        0x1fa (size before relaxing)
 .debug_str     0x0000000000004375        0xc /Users/stevefar/nacl_sdk/pepper_45/toolchain/mac_arm_newlib/bin/../lib/gcc/arm-nacl/4.9.2/../../../../arm-nacl/lib/libnacl.a(nanosleep_e59fdef1.o)
                                        0x214 (size before relaxing)
 .debug_str     0x0000000000004381      0x10c /Users/stevefar/nacl_sdk/pepper_45/toolchain/mac_arm_newlib/bin/../lib/gcc/arm-nacl/4.9.2/libgcc.a(bpabi.o)
                                        0x1ac (size before relaxing)
 .debug_str     0x000000000000448d       0x7a /Users/stevefar/nacl_sdk/pepper_45/toolchain/mac_arm_newlib/bin/../lib/gcc/arm-nacl/4.9.2/libgcc.a(_divdi3.o)
                                        0x237 (size before relaxing)
 .debug_str     0x0000000000004507      0x214 /Users/stevefar/nacl_sdk/pepper_45/toolchain/mac_arm_newlib/bin/../lib/gcc/arm-nacl/4.9.2/libgcc.a(_udivdi3.o)

.debug_loc      0x0000000000000000     0xfbd0
 *(.debug_loc)
 .debug_loc     0x0000000000000000      0x45f newlib/Release/debugging_arm.o
 .debug_loc     0x000000000000045f      0xb32 /Users/stevefar/nacl_sdk/pepper_45/lib/newlib_arm/Release/liberror_handling.a(error_handling_arm.o)
 .debug_loc     0x0000000000000f91      0x115 /Users/stevefar/nacl_sdk/pepper_45/lib/newlib_arm/Release/liberror_handling.a(string_stream_arm.o)
 .debug_loc     0x00000000000010a6       0xbe /Users/stevefar/nacl_sdk/pepper_45/toolchain/mac_arm_newlib/bin/../lib/gcc/arm-nacl/4.9.2/../../../../arm-nacl/lib/libppapi_stub.a(ppapi_plugin_start_8da67623.o)
 .debug_loc     0x0000000000001164       0xbb /Users/stevefar/nacl_sdk/pepper_45/toolchain/mac_arm_newlib/bin/../lib/gcc/arm-nacl/4.9.2/../../../../arm-nacl/lib/libppapi_stub.a(thread_creator_ccf263e1.o)
 .debug_loc     0x000000000000121f     0x10f6 /Users/stevefar/nacl_sdk/pepper_45/toolchain/mac_arm_newlib/bin/../lib/gcc/arm-nacl/4.9.2/../../../../arm-nacl/lib/libpthread.a(nc_thread_7e478b15.o)
 .debug_loc     0x0000000000002315      0x283 /Users/stevefar/nacl_sdk/pepper_45/toolchain/mac_arm_newlib/bin/../lib/gcc/arm-nacl/4.9.2/../../../../arm-nacl/lib/libpthread.a(nc_condvar_305aa45a.o)
 .debug_loc     0x0000000000002598       0x3c /Users/stevefar/nacl_sdk/pepper_45/toolchain/mac_arm_newlib/bin/../lib/gcc/arm-nacl/4.9.2/../../../../arm-nacl/lib/libpthread.a(dynamic_annotations_33ba59cc.o)
 .debug_loc     0x00000000000025d4      0x541 /Users/stevefar/nacl_sdk/pepper_45/toolchain/mac_arm_newlib/bin/../lib/gcc/arm-nacl/4.9.2/../../../../arm-nacl/lib/libpthread.a(nc_mutex_86341ae1.o)
 .debug_loc     0x0000000000002b15     0x1b2c /Users/stevefar/nacl_sdk/pepper_45/toolchain/mac_arm_newlib/bin/../lib/gcc/arm-nacl/4.9.2/libgcc.a(unwind-arm.o)
 .debug_loc     0x0000000000004641      0x531 /Users/stevefar/nacl_sdk/pepper_45/toolchain/mac_arm_newlib/bin/../lib/gcc/arm-nacl/4.9.2/libgcc.a(pr-support.o)
 .debug_loc     0x0000000000004b72       0x21 /Users/stevefar/nacl_sdk/pepper_45/toolchain/mac_arm_newlib/bin/../lib/gcc/arm-nacl/4.9.2/../../../../arm-nacl/lib/libnacl.a(_exit_710c7d0d.o)
 .debug_loc     0x0000000000004b93     0x9b4f /Users/stevefar/nacl_sdk/pepper_45/toolchain/mac_arm_newlib/bin/../lib/gcc/arm-nacl/4.9.2/../../../../arm-nacl/lib/libnacl.a(malloc_222c4a1e.o)
 .debug_loc     0x000000000000e6e2      0x33d /Users/stevefar/nacl_sdk/pepper_45/toolchain/mac_arm_newlib/bin/../lib/gcc/arm-nacl/4.9.2/../../../../arm-nacl/lib/libnacl.a(nacl_irt_6de1d53f.o)
 .debug_loc     0x000000000000ea1f       0x68 /Users/stevefar/nacl_sdk/pepper_45/toolchain/mac_arm_newlib/bin/../lib/gcc/arm-nacl/4.9.2/../../../../arm-nacl/lib/libnacl.a(pthread_initialize_minimal_4b6e776b.o)
 .debug_loc     0x000000000000ea87       0x92 /Users/stevefar/nacl_sdk/pepper_45/toolchain/mac_arm_newlib/bin/../lib/gcc/arm-nacl/4.9.2/../../../../arm-nacl/lib/libnacl.a(nacl_interface_query_ef8a99f1.o)
 .debug_loc     0x000000000000eb19       0xc2 /Users/stevefar/nacl_sdk/pepper_45/toolchain/mac_arm_newlib/bin/../lib/gcc/arm-nacl/4.9.2/../../../../arm-nacl/lib/libnacl.a(mmap_767fb080.o)
 .debug_loc     0x000000000000ebdb       0x29 /Users/stevefar/nacl_sdk/pepper_45/toolchain/mac_arm_newlib/bin/../lib/gcc/arm-nacl/4.9.2/../../../../arm-nacl/lib/libnacl.a(sched_yield_56c375be.o)
 .debug_loc     0x000000000000ec04      0x101 /Users/stevefar/nacl_sdk/pepper_45/toolchain/mac_arm_newlib/bin/../lib/gcc/arm-nacl/4.9.2/../../../../arm-nacl/lib/libnacl.a(start_fa9ef7de.o)
 .debug_loc     0x000000000000ed05       0x6b /Users/stevefar/nacl_sdk/pepper_45/toolchain/mac_arm_newlib/bin/../lib/gcc/arm-nacl/4.9.2/../../../../arm-nacl/lib/libnacl.a(munmap_d4f09867.o)
 .debug_loc     0x000000000000ed70      0x41d /Users/stevefar/nacl_sdk/pepper_45/toolchain/mac_arm_newlib/bin/../lib/gcc/arm-nacl/4.9.2/../../../../arm-nacl/lib/libnacl.a(tls_bba1975b.o)
 .debug_loc     0x000000000000f18d       0x8c /Users/stevefar/nacl_sdk/pepper_45/toolchain/mac_arm_newlib/bin/../lib/gcc/arm-nacl/4.9.2/../../../../arm-nacl/lib/libnacl.a(write_fb49787f.o)
 .debug_loc     0x000000000000f219       0x6d /Users/stevefar/nacl_sdk/pepper_45/toolchain/mac_arm_newlib/bin/../lib/gcc/arm-nacl/4.9.2/../../../../arm-nacl/lib/libnacl.a(nacl_irt_init_7b4f826e.o)
 .debug_loc     0x000000000000f286       0x4a /Users/stevefar/nacl_sdk/pepper_45/toolchain/mac_arm_newlib/bin/../lib/gcc/arm-nacl/4.9.2/../../../../arm-nacl/lib/libnacl.a(sysconf_ad295ea2.o)
 .debug_loc     0x000000000000f2d0       0x21 /Users/stevefar/nacl_sdk/pepper_45/toolchain/mac_arm_newlib/bin/../lib/gcc/arm-nacl/4.9.2/../../../../arm-nacl/lib/libnacl.a(nacl_tls_init_eb0cd232.o)
 .debug_loc     0x000000000000f2f1       0x4a /Users/stevefar/nacl_sdk/pepper_45/toolchain/mac_arm_newlib/bin/../lib/gcc/arm-nacl/4.9.2/../../../../arm-nacl/lib/libnacl.a(close_e9b92fbd.o)
 .debug_loc     0x000000000000f33b       0x79 /Users/stevefar/nacl_sdk/pepper_45/toolchain/mac_arm_newlib/bin/../lib/gcc/arm-nacl/4.9.2/../../../../arm-nacl/lib/libnacl.a(isatty_02f56e94.o)
 .debug_loc     0x000000000000f3b4       0x6b /Users/stevefar/nacl_sdk/pepper_45/toolchain/mac_arm_newlib/bin/../lib/gcc/arm-nacl/4.9.2/../../../../arm-nacl/lib/libnacl.a(fstat_0540ff63.o)
 .debug_loc     0x000000000000f41f       0x7d /Users/stevefar/nacl_sdk/pepper_45/toolchain/mac_arm_newlib/bin/../lib/gcc/arm-nacl/4.9.2/../../../../arm-nacl/lib/libnacl.a(lseek_64d2d05c.o)
 .debug_loc     0x000000000000f49c       0x8c /Users/stevefar/nacl_sdk/pepper_45/toolchain/mac_arm_newlib/bin/../lib/gcc/arm-nacl/4.9.2/../../../../arm-nacl/lib/libnacl.a(read_df872e10.o)
 .debug_loc     0x000000000000f528       0x6b /Users/stevefar/nacl_sdk/pepper_45/toolchain/mac_arm_newlib/bin/../lib/gcc/arm-nacl/4.9.2/../../../../arm-nacl/lib/libnacl.a(nanosleep_e59fdef1.o)
 .debug_loc     0x000000000000f593       0xa0 /Users/stevefar/nacl_sdk/pepper_45/toolchain/mac_arm_newlib/bin/../lib/gcc/arm-nacl/4.9.2/libgcc.a(bpabi.o)
 .debug_loc     0x000000000000f633      0x2e0 /Users/stevefar/nacl_sdk/pepper_45/toolchain/mac_arm_newlib/bin/../lib/gcc/arm-nacl/4.9.2/libgcc.a(_divdi3.o)
 .debug_loc     0x000000000000f913      0x2bd /Users/stevefar/nacl_sdk/pepper_45/toolchain/mac_arm_newlib/bin/../lib/gcc/arm-nacl/4.9.2/libgcc.a(_udivdi3.o)

.debug_macinfo
 *(.debug_macinfo)

.debug_weaknames
 *(.debug_weaknames)

.debug_funcnames
 *(.debug_funcnames)

.debug_typenames
 *(.debug_typenames)

.debug_varnames
 *(.debug_varnames)

.debug_pubtypes
 *(.debug_pubtypes)

.debug_ranges   0x0000000000000000     0x1a28
 *(.debug_ranges)
 .debug_ranges  0x0000000000000000       0xe0 newlib/Release/debugging_arm.o
 .debug_ranges  0x00000000000000e0       0x60 /Users/stevefar/nacl_sdk/pepper_45/lib/newlib_arm/Release/liberror_handling.a(error_handling_arm.o)
 .debug_ranges  0x0000000000000140       0x10 /Users/stevefar/nacl_sdk/pepper_45/toolchain/mac_arm_newlib/bin/../lib/gcc/arm-nacl/4.9.2/../../../../arm-nacl/lib/libppapi_stub.a(plugin_main_irt_21ce9d26.o)
 .debug_ranges  0x0000000000000150       0x50 /Users/stevefar/nacl_sdk/pepper_45/toolchain/mac_arm_newlib/bin/../lib/gcc/arm-nacl/4.9.2/../../../../arm-nacl/lib/libppapi_stub.a(ppapi_plugin_start_8da67623.o)
 .debug_ranges  0x00000000000001a0      0x1d0 /Users/stevefar/nacl_sdk/pepper_45/toolchain/mac_arm_newlib/bin/../lib/gcc/arm-nacl/4.9.2/../../../../arm-nacl/lib/libpthread.a(nc_thread_7e478b15.o)
 .debug_ranges  0x0000000000000370       0x30 /Users/stevefar/nacl_sdk/pepper_45/toolchain/mac_arm_newlib/bin/../lib/gcc/arm-nacl/4.9.2/../../../../arm-nacl/lib/libpthread.a(nc_condvar_305aa45a.o)
 .debug_ranges  0x00000000000003a0       0x18 /Users/stevefar/nacl_sdk/pepper_45/toolchain/mac_arm_newlib/bin/../lib/gcc/arm-nacl/4.9.2/../../../../arm-nacl/lib/libpthread.a(dynamic_annotations_33ba59cc.o)
 .debug_ranges  0x00000000000003b8       0x78 /Users/stevefar/nacl_sdk/pepper_45/toolchain/mac_arm_newlib/bin/../lib/gcc/arm-nacl/4.9.2/../../../../arm-nacl/lib/libpthread.a(nc_mutex_86341ae1.o)
 .debug_ranges  0x0000000000000430      0x158 /Users/stevefar/nacl_sdk/pepper_45/toolchain/mac_arm_newlib/bin/../lib/gcc/arm-nacl/4.9.2/libgcc.a(unwind-arm.o)
 .debug_ranges  0x0000000000000588     0x1238 /Users/stevefar/nacl_sdk/pepper_45/toolchain/mac_arm_newlib/bin/../lib/gcc/arm-nacl/4.9.2/../../../../arm-nacl/lib/libnacl.a(malloc_222c4a1e.o)
 .debug_ranges  0x00000000000017c0       0x18 /Users/stevefar/nacl_sdk/pepper_45/toolchain/mac_arm_newlib/bin/../lib/gcc/arm-nacl/4.9.2/../../../../arm-nacl/lib/libnacl.a(nacl_irt_6de1d53f.o)
 .debug_ranges  0x00000000000017d8       0x30 /Users/stevefar/nacl_sdk/pepper_45/toolchain/mac_arm_newlib/bin/../lib/gcc/arm-nacl/4.9.2/../../../../arm-nacl/lib/libnacl.a(start_fa9ef7de.o)
 .debug_ranges  0x0000000000001808      0x1a0 /Users/stevefar/nacl_sdk/pepper_45/toolchain/mac_arm_newlib/bin/../lib/gcc/arm-nacl/4.9.2/../../../../arm-nacl/lib/libnacl.a(tls_bba1975b.o)
 .debug_ranges  0x00000000000019a8       0x30 /Users/stevefar/nacl_sdk/pepper_45/toolchain/mac_arm_newlib/bin/../lib/gcc/arm-nacl/4.9.2/../../../../arm-nacl/lib/libnacl.a(nacl_irt_init_7b4f826e.o)
 .debug_ranges  0x00000000000019d8       0x28 /Users/stevefar/nacl_sdk/pepper_45/toolchain/mac_arm_newlib/bin/../lib/gcc/arm-nacl/4.9.2/libgcc.a(_divdi3.o)
 .debug_ranges  0x0000000000001a00       0x28 /Users/stevefar/nacl_sdk/pepper_45/toolchain/mac_arm_newlib/bin/../lib/gcc/arm-nacl/4.9.2/libgcc.a(_udivdi3.o)

.debug_macro
 *(.debug_macro)

.gnu.attributes
 *(.gnu.attributes)

.note.gnu.arm.ident
 *(.note.gnu.arm.ident)

/DISCARD/
 *(.note.GNU-stack)
 *(.gnu_debuglink)
 *(.gnu.lto_*)
OUTPUT(newlib/Release/debugging_unstripped_arm.nexe elf32-littlearm-nacl)
