Archive member included because of file (symbol)

/Users/stevefar/nacl_sdk/pepper_45/lib/newlib_x86_64/Release/libppapi_cpp.a(instance_x86_64.o)
                              newlib/Release/multi_platform_x86_64.o (_ZN2pp8InstanceC2Ei)
/Users/stevefar/nacl_sdk/pepper_45/lib/newlib_x86_64/Release/libppapi_cpp.a(module_x86_64.o)
                              newlib/Release/multi_platform_x86_64.o (_ZN2pp6ModuleC2Ev)
/Users/stevefar/nacl_sdk/pepper_45/lib/newlib_x86_64/Release/libppapi_cpp.a(ppp_entrypoints_x86_64.o)
                              /Users/stevefar/nacl_sdk/pepper_45/lib/newlib_x86_64/Release/libppapi_cpp.a(instance_x86_64.o) (_ZN2pp6Module3GetEv)
/Users/stevefar/nacl_sdk/pepper_45/lib/newlib_x86_64/Release/libppapi_cpp.a(resource_x86_64.o)
                              /Users/stevefar/nacl_sdk/pepper_45/lib/newlib_x86_64/Release/libppapi_cpp.a(module_x86_64.o) (_ZN2pp8ResourceD2Ev)
/Users/stevefar/nacl_sdk/pepper_45/lib/newlib_x86_64/Release/libppapi_cpp.a(url_loader_x86_64.o)
                              /Users/stevefar/nacl_sdk/pepper_45/lib/newlib_x86_64/Release/libppapi_cpp.a(module_x86_64.o) (_ZN2pp9URLLoaderC1Ei)
/Users/stevefar/nacl_sdk/pepper_45/lib/newlib_x86_64/Release/libppapi_cpp.a(url_response_info_x86_64.o)
                              /Users/stevefar/nacl_sdk/pepper_45/lib/newlib_x86_64/Release/libppapi_cpp.a(url_loader_x86_64.o) (_ZN2pp15URLResponseInfoC1ENS_7PassRefEi)
/Users/stevefar/nacl_sdk/pepper_45/lib/newlib_x86_64/Release/libppapi_cpp.a(var_x86_64.o)
                              /Users/stevefar/nacl_sdk/pepper_45/lib/newlib_x86_64/Release/libppapi_cpp.a(module_x86_64.o) (_ZTVN2pp3VarE)
/Users/stevefar/nacl_sdk/pepper_45/lib/newlib_x86_64/Release/libppapi_cpp.a(view_x86_64.o)
                              /Users/stevefar/nacl_sdk/pepper_45/lib/newlib_x86_64/Release/libppapi_cpp.a(module_x86_64.o) (_ZN2pp4ViewC1Ei)
/Users/stevefar/nacl_sdk/pepper_45/lib/newlib_x86_64/Release/libppapi_cpp.a(core_x86_64.o)
                              /Users/stevefar/nacl_sdk/pepper_45/lib/newlib_x86_64/Release/libppapi_cpp.a(url_loader_x86_64.o) (_ZN2pp4Core16CallOnMainThreadEiRKNS_18CompletionCallbackEi)
/Users/stevefar/nacl_sdk/pepper_45/lib/newlib_x86_64/Release/libppapi_cpp.a(file_ref_x86_64.o)
                              /Users/stevefar/nacl_sdk/pepper_45/lib/newlib_x86_64/Release/libppapi_cpp.a(url_response_info_x86_64.o) (_ZN2pp7FileRefC1ENS_7PassRefEi)
/Users/stevefar/nacl_sdk/pepper_45/lib/newlib_x86_64/Release/libppapi_cpp.a(input_event_x86_64.o)
                              /Users/stevefar/nacl_sdk/pepper_45/lib/newlib_x86_64/Release/libppapi_cpp.a(module_x86_64.o) (_ZN2pp10InputEventD1Ev)
/Users/stevefar/nacl_sdk/pepper_45/toolchain/mac_x86_newlib/bin/../lib/gcc/x86_64-nacl/4.4.3/../../../../x86_64-nacl/lib/../lib64/libppapi_stub.a(plugin_main_irt_21ce9d26.o)
                              (main)
/Users/stevefar/nacl_sdk/pepper_45/toolchain/mac_x86_newlib/bin/../lib/gcc/x86_64-nacl/4.4.3/../../../../x86_64-nacl/lib/../lib64/libppapi_stub.a(ppapi_plugin_main_399d0cf7.o)
                              /Users/stevefar/nacl_sdk/pepper_45/toolchain/mac_x86_newlib/bin/../lib/gcc/x86_64-nacl/4.4.3/../../../../x86_64-nacl/lib/../lib64/libppapi_stub.a(plugin_main_irt_21ce9d26.o) (PpapiPluginMain)
/Users/stevefar/nacl_sdk/pepper_45/toolchain/mac_x86_newlib/bin/../lib/gcc/x86_64-nacl/4.4.3/../../../../x86_64-nacl/lib/../lib64/libppapi_stub.a(ppapi_plugin_start_8da67623.o)
                              /Users/stevefar/nacl_sdk/pepper_45/toolchain/mac_x86_newlib/bin/../lib/gcc/x86_64-nacl/4.4.3/../../../../x86_64-nacl/lib/../lib64/libppapi_stub.a(ppapi_plugin_main_399d0cf7.o) (PpapiPluginStart)
/Users/stevefar/nacl_sdk/pepper_45/toolchain/mac_x86_newlib/bin/../lib/gcc/x86_64-nacl/4.4.3/../../../../x86_64-nacl/lib/../lib64/libppapi_stub.a(thread_creator_ccf263e1.o)
                              /Users/stevefar/nacl_sdk/pepper_45/toolchain/mac_x86_newlib/bin/../lib/gcc/x86_64-nacl/4.4.3/../../../../x86_64-nacl/lib/../lib64/libppapi_stub.a(ppapi_plugin_start_8da67623.o) (__nacl_register_thread_creator)
/Users/stevefar/nacl_sdk/pepper_45/toolchain/mac_x86_newlib/bin/../lib/gcc/x86_64-nacl/4.4.3/../../../../x86_64-nacl/lib/../lib64/libpthread.a(nc_thread_7e478b15.o)
                              /Users/stevefar/nacl_sdk/pepper_45/toolchain/mac_x86_newlib/bin/../lib/gcc/x86_64-nacl/4.4.3/../../../../x86_64-nacl/lib/../lib64/libppapi_stub.a(thread_creator_ccf263e1.o) (pthread_join)
/Users/stevefar/nacl_sdk/pepper_45/toolchain/mac_x86_newlib/bin/../lib/gcc/x86_64-nacl/4.4.3/../../../../x86_64-nacl/lib/../lib64/libpthread.a(nc_condvar_305aa45a.o)
                              /Users/stevefar/nacl_sdk/pepper_45/toolchain/mac_x86_newlib/bin/../lib/gcc/x86_64-nacl/4.4.3/../../../../x86_64-nacl/lib/../lib64/libpthread.a(nc_thread_7e478b15.o) (pthread_cond_init)
/Users/stevefar/nacl_sdk/pepper_45/toolchain/mac_x86_newlib/bin/../lib/gcc/x86_64-nacl/4.4.3/../../../../x86_64-nacl/lib/../lib64/libpthread.a(dynamic_annotations_33ba59cc.o)
                              /Users/stevefar/nacl_sdk/pepper_45/toolchain/mac_x86_newlib/bin/../lib/gcc/x86_64-nacl/4.4.3/../../../../x86_64-nacl/lib/../lib64/libpthread.a(nc_thread_7e478b15.o) (NACL_AnnotateCondVarWait)
/Users/stevefar/nacl_sdk/pepper_45/toolchain/mac_x86_newlib/bin/../lib/gcc/x86_64-nacl/4.4.3/../../../../x86_64-nacl/lib/../lib64/libpthread.a(nc_mutex_86341ae1.o)
                              /Users/stevefar/nacl_sdk/pepper_45/toolchain/mac_x86_newlib/bin/../lib/gcc/x86_64-nacl/4.4.3/../../../../x86_64-nacl/lib/../lib64/libpthread.a(nc_thread_7e478b15.o) (pthread_mutex_init)
/Users/stevefar/nacl_sdk/pepper_45/toolchain/mac_x86_newlib/bin/../lib/gcc/x86_64-nacl/4.4.3/../../../../x86_64-nacl/lib/../lib64/libpthread.a(nc_init_irt_d3daafc0.o)
                              /Users/stevefar/nacl_sdk/pepper_45/toolchain/mac_x86_newlib/bin/../lib/gcc/x86_64-nacl/4.4.3/../../../../x86_64-nacl/lib/../lib64/libpthread.a(nc_thread_7e478b15.o) (__nc_initialize_interfaces)
/Users/stevefar/nacl_sdk/pepper_45/toolchain/mac_x86_newlib/bin/../lib/gcc/x86_64-nacl/4.4.3/../../../../x86_64-nacl/lib/../lib64/libstdc++.a(tree.o)
                              /Users/stevefar/nacl_sdk/pepper_45/lib/newlib_x86_64/Release/libppapi_cpp.a(instance_x86_64.o) (_ZSt18_Rb_tree_incrementPKSt18_Rb_tree_node_base)
/Users/stevefar/nacl_sdk/pepper_45/toolchain/mac_x86_newlib/bin/../lib/gcc/x86_64-nacl/4.4.3/../../../../x86_64-nacl/lib/../lib64/libstdc++.a(string-inst.o)
                              /Users/stevefar/nacl_sdk/pepper_45/lib/newlib_x86_64/Release/libppapi_cpp.a(instance_x86_64.o) (_ZNSs4_Rep20_S_empty_rep_storageE)
/Users/stevefar/nacl_sdk/pepper_45/toolchain/mac_x86_newlib/bin/../lib/gcc/x86_64-nacl/4.4.3/../../../../x86_64-nacl/lib/../lib64/libstdc++.a(class_type_info.o)
                              /Users/stevefar/nacl_sdk/pepper_45/lib/newlib_x86_64/Release/libppapi_cpp.a(instance_x86_64.o) (_ZTVN10__cxxabiv117__class_type_infoE)
/Users/stevefar/nacl_sdk/pepper_45/toolchain/mac_x86_newlib/bin/../lib/gcc/x86_64-nacl/4.4.3/../../../../x86_64-nacl/lib/../lib64/libstdc++.a(del_op.o)
                              newlib/Release/multi_platform_x86_64.o (_ZdlPv)
/Users/stevefar/nacl_sdk/pepper_45/toolchain/mac_x86_newlib/bin/../lib/gcc/x86_64-nacl/4.4.3/../../../../x86_64-nacl/lib/../lib64/libstdc++.a(eh_catch.o)
                              /Users/stevefar/nacl_sdk/pepper_45/lib/newlib_x86_64/Release/libppapi_cpp.a(instance_x86_64.o) (__cxa_end_catch)
/Users/stevefar/nacl_sdk/pepper_45/toolchain/mac_x86_newlib/bin/../lib/gcc/x86_64-nacl/4.4.3/../../../../x86_64-nacl/lib/../lib64/libstdc++.a(eh_globals.o)
                              /Users/stevefar/nacl_sdk/pepper_45/toolchain/mac_x86_newlib/bin/../lib/gcc/x86_64-nacl/4.4.3/../../../../x86_64-nacl/lib/../lib64/libstdc++.a(eh_catch.o) (__cxa_get_globals)
/Users/stevefar/nacl_sdk/pepper_45/toolchain/mac_x86_newlib/bin/../lib/gcc/x86_64-nacl/4.4.3/../../../../x86_64-nacl/lib/../lib64/libstdc++.a(eh_personality.o)
                              newlib/Release/multi_platform_x86_64.o (__gxx_personality_v0)
/Users/stevefar/nacl_sdk/pepper_45/toolchain/mac_x86_newlib/bin/../lib/gcc/x86_64-nacl/4.4.3/../../../../x86_64-nacl/lib/../lib64/libstdc++.a(eh_terminate.o)
                              /Users/stevefar/nacl_sdk/pepper_45/toolchain/mac_x86_newlib/bin/../lib/gcc/x86_64-nacl/4.4.3/../../../../x86_64-nacl/lib/../lib64/libstdc++.a(eh_personality.o) (_ZN10__cxxabiv111__terminateEPFvvE)
/Users/stevefar/nacl_sdk/pepper_45/toolchain/mac_x86_newlib/bin/../lib/gcc/x86_64-nacl/4.4.3/../../../../x86_64-nacl/lib/../lib64/libstdc++.a(eh_throw.o)
                              /Users/stevefar/nacl_sdk/pepper_45/lib/newlib_x86_64/Release/libppapi_cpp.a(instance_x86_64.o) (__cxa_rethrow)
/Users/stevefar/nacl_sdk/pepper_45/toolchain/mac_x86_newlib/bin/../lib/gcc/x86_64-nacl/4.4.3/../../../../x86_64-nacl/lib/../lib64/libstdc++.a(eh_unex_handler.o)
                              /Users/stevefar/nacl_sdk/pepper_45/toolchain/mac_x86_newlib/bin/../lib/gcc/x86_64-nacl/4.4.3/../../../../x86_64-nacl/lib/../lib64/libstdc++.a(eh_terminate.o) (_ZN10__cxxabiv120__unexpected_handlerE)
/Users/stevefar/nacl_sdk/pepper_45/toolchain/mac_x86_newlib/bin/../lib/gcc/x86_64-nacl/4.4.3/../../../../x86_64-nacl/lib/../lib64/libstdc++.a(guard.o)
                              /Users/stevefar/nacl_sdk/pepper_45/lib/newlib_x86_64/Release/libppapi_cpp.a(instance_x86_64.o) (__cxa_guard_release)
/Users/stevefar/nacl_sdk/pepper_45/toolchain/mac_x86_newlib/bin/../lib/gcc/x86_64-nacl/4.4.3/../../../../x86_64-nacl/lib/../lib64/libstdc++.a(new_op.o)
                              newlib/Release/multi_platform_x86_64.o (_Znwj)
/Users/stevefar/nacl_sdk/pepper_45/toolchain/mac_x86_newlib/bin/../lib/gcc/x86_64-nacl/4.4.3/../../../../x86_64-nacl/lib/../lib64/libstdc++.a(pure.o)
                              /Users/stevefar/nacl_sdk/pepper_45/lib/newlib_x86_64/Release/libppapi_cpp.a(module_x86_64.o) (__cxa_pure_virtual)
/Users/stevefar/nacl_sdk/pepper_45/toolchain/mac_x86_newlib/bin/../lib/gcc/x86_64-nacl/4.4.3/../../../../x86_64-nacl/lib/../lib64/libstdc++.a(si_class_type_info.o)
                              newlib/Release/multi_platform_x86_64.o (_ZTVN10__cxxabiv120__si_class_type_infoE)
/Users/stevefar/nacl_sdk/pepper_45/toolchain/mac_x86_newlib/bin/../lib/gcc/x86_64-nacl/4.4.3/../../../../x86_64-nacl/lib/../lib64/libstdc++.a(tinfo.o)
                              /Users/stevefar/nacl_sdk/pepper_45/toolchain/mac_x86_newlib/bin/../lib/gcc/x86_64-nacl/4.4.3/../../../../x86_64-nacl/lib/../lib64/libstdc++.a(class_type_info.o) (_ZNSt9type_infoD2Ev)
/Users/stevefar/nacl_sdk/pepper_45/toolchain/mac_x86_newlib/bin/../lib/gcc/x86_64-nacl/4.4.3/../../../../x86_64-nacl/lib/../lib64/libstdc++.a(functexcept.o)
                              /Users/stevefar/nacl_sdk/pepper_45/toolchain/mac_x86_newlib/bin/../lib/gcc/x86_64-nacl/4.4.3/../../../../x86_64-nacl/lib/../lib64/libstdc++.a(string-inst.o) (_ZSt20__throw_out_of_rangePKc)
/Users/stevefar/nacl_sdk/pepper_45/toolchain/mac_x86_newlib/bin/../lib/gcc/x86_64-nacl/4.4.3/../../../../x86_64-nacl/lib/../lib64/libstdc++.a(ios_failure.o)
                              /Users/stevefar/nacl_sdk/pepper_45/toolchain/mac_x86_newlib/bin/../lib/gcc/x86_64-nacl/4.4.3/../../../../x86_64-nacl/lib/../lib64/libstdc++.a(functexcept.o) (_ZNSt8ios_base7failureC1ERKSs)
/Users/stevefar/nacl_sdk/pepper_45/toolchain/mac_x86_newlib/bin/../lib/gcc/x86_64-nacl/4.4.3/../../../../x86_64-nacl/lib/../lib64/libstdc++.a(stdexcept.o)
                              /Users/stevefar/nacl_sdk/pepper_45/toolchain/mac_x86_newlib/bin/../lib/gcc/x86_64-nacl/4.4.3/../../../../x86_64-nacl/lib/../lib64/libstdc++.a(functexcept.o) (_ZNKSt11logic_error4whatEv)
/Users/stevefar/nacl_sdk/pepper_45/toolchain/mac_x86_newlib/bin/../lib/gcc/x86_64-nacl/4.4.3/../../../../x86_64-nacl/lib/../lib64/libstdc++.a(system_error.o)
                              /Users/stevefar/nacl_sdk/pepper_45/toolchain/mac_x86_newlib/bin/../lib/gcc/x86_64-nacl/4.4.3/../../../../x86_64-nacl/lib/../lib64/libstdc++.a(functexcept.o) (_ZSt16generic_categoryv)
/Users/stevefar/nacl_sdk/pepper_45/toolchain/mac_x86_newlib/bin/../lib/gcc/x86_64-nacl/4.4.3/../../../../x86_64-nacl/lib/../lib64/libstdc++.a(bad_cast.o)
                              /Users/stevefar/nacl_sdk/pepper_45/toolchain/mac_x86_newlib/bin/../lib/gcc/x86_64-nacl/4.4.3/../../../../x86_64-nacl/lib/../lib64/libstdc++.a(functexcept.o) (_ZNSt8bad_castD1Ev)
/Users/stevefar/nacl_sdk/pepper_45/toolchain/mac_x86_newlib/bin/../lib/gcc/x86_64-nacl/4.4.3/../../../../x86_64-nacl/lib/../lib64/libstdc++.a(bad_typeid.o)
                              /Users/stevefar/nacl_sdk/pepper_45/toolchain/mac_x86_newlib/bin/../lib/gcc/x86_64-nacl/4.4.3/../../../../x86_64-nacl/lib/../lib64/libstdc++.a(functexcept.o) (_ZNSt10bad_typeidD1Ev)
/Users/stevefar/nacl_sdk/pepper_45/toolchain/mac_x86_newlib/bin/../lib/gcc/x86_64-nacl/4.4.3/../../../../x86_64-nacl/lib/../lib64/libstdc++.a(eh_alloc.o)
                              /Users/stevefar/nacl_sdk/pepper_45/toolchain/mac_x86_newlib/bin/../lib/gcc/x86_64-nacl/4.4.3/../../../../x86_64-nacl/lib/../lib64/libstdc++.a(eh_personality.o) (__cxa_allocate_exception)
/Users/stevefar/nacl_sdk/pepper_45/toolchain/mac_x86_newlib/bin/../lib/gcc/x86_64-nacl/4.4.3/../../../../x86_64-nacl/lib/../lib64/libstdc++.a(eh_call.o)
                              /Users/stevefar/nacl_sdk/pepper_45/toolchain/mac_x86_newlib/bin/../lib/gcc/x86_64-nacl/4.4.3/../../../../x86_64-nacl/lib/../lib64/libstdc++.a(eh_personality.o) (__cxa_call_terminate)
/Users/stevefar/nacl_sdk/pepper_45/toolchain/mac_x86_newlib/bin/../lib/gcc/x86_64-nacl/4.4.3/../../../../x86_64-nacl/lib/../lib64/libstdc++.a(eh_exception.o)
                              /Users/stevefar/nacl_sdk/pepper_45/toolchain/mac_x86_newlib/bin/../lib/gcc/x86_64-nacl/4.4.3/../../../../x86_64-nacl/lib/../lib64/libstdc++.a(guard.o) (_ZNSt9exceptionD2Ev)
/Users/stevefar/nacl_sdk/pepper_45/toolchain/mac_x86_newlib/bin/../lib/gcc/x86_64-nacl/4.4.3/../../../../x86_64-nacl/lib/../lib64/libstdc++.a(eh_term_handler.o)
                              /Users/stevefar/nacl_sdk/pepper_45/toolchain/mac_x86_newlib/bin/../lib/gcc/x86_64-nacl/4.4.3/../../../../x86_64-nacl/lib/../lib64/libstdc++.a(eh_terminate.o) (_ZN10__cxxabiv119__terminate_handlerE)
/Users/stevefar/nacl_sdk/pepper_45/toolchain/mac_x86_newlib/bin/../lib/gcc/x86_64-nacl/4.4.3/../../../../x86_64-nacl/lib/../lib64/libstdc++.a(new_handler.o)
                              /Users/stevefar/nacl_sdk/pepper_45/toolchain/mac_x86_newlib/bin/../lib/gcc/x86_64-nacl/4.4.3/../../../../x86_64-nacl/lib/../lib64/libstdc++.a(new_op.o) (__new_handler)
/Users/stevefar/nacl_sdk/pepper_45/toolchain/mac_x86_newlib/bin/../lib/gcc/x86_64-nacl/4.4.3/../../../../x86_64-nacl/lib/../lib64/libstdc++.a(vterminate.o)
                              /Users/stevefar/nacl_sdk/pepper_45/toolchain/mac_x86_newlib/bin/../lib/gcc/x86_64-nacl/4.4.3/../../../../x86_64-nacl/lib/../lib64/libstdc++.a(eh_term_handler.o) (_ZN9__gnu_cxx27__verbose_terminate_handlerEv)
/Users/stevefar/nacl_sdk/pepper_45/toolchain/mac_x86_newlib/bin/../lib/gcc/x86_64-nacl/4.4.3/../../../../x86_64-nacl/lib/../lib64/libstdc++.a(cp-demangle.o)
                              /Users/stevefar/nacl_sdk/pepper_45/toolchain/mac_x86_newlib/bin/../lib/gcc/x86_64-nacl/4.4.3/../../../../x86_64-nacl/lib/../lib64/libstdc++.a(vterminate.o) (__cxa_demangle)
/Users/stevefar/nacl_sdk/pepper_45/toolchain/mac_x86_newlib/bin/../lib/gcc/x86_64-nacl/4.4.3/../../../../x86_64-nacl/lib/../lib64/libstdc++.a(eh_type.o)
                              /Users/stevefar/nacl_sdk/pepper_45/toolchain/mac_x86_newlib/bin/../lib/gcc/x86_64-nacl/4.4.3/../../../../x86_64-nacl/lib/../lib64/libstdc++.a(vterminate.o) (__cxa_current_exception_type)
/Users/stevefar/nacl_sdk/pepper_45/toolchain/mac_x86_newlib/bin/../lib/gcc/x86_64-nacl/4.4.3/libgcc.a(unwind-dw2.o)
                              /Users/stevefar/nacl_sdk/pepper_45/toolchain/mac_x86_newlib/bin/../lib/gcc/x86_64-nacl/4.4.3/../../../../x86_64-nacl/lib/../lib64/libstdc++.a(eh_personality.o) (_Unwind_GetIPInfo)
/Users/stevefar/nacl_sdk/pepper_45/toolchain/mac_x86_newlib/bin/../lib/gcc/x86_64-nacl/4.4.3/libgcc.a(unwind-dw2-fde-glibc.o)
                              /Users/stevefar/nacl_sdk/pepper_45/toolchain/mac_x86_newlib/bin/../lib/gcc/x86_64-nacl/4.4.3/libgcc.a(unwind-dw2.o) (_Unwind_Find_FDE)
/Users/stevefar/nacl_sdk/pepper_45/toolchain/mac_x86_newlib/bin/../lib/gcc/x86_64-nacl/4.4.3/../../../../x86_64-nacl/lib/../lib64/libnacl.a(_exit_710c7d0d.o)
                              (_exit)
/Users/stevefar/nacl_sdk/pepper_45/toolchain/mac_x86_newlib/bin/../lib/gcc/x86_64-nacl/4.4.3/../../../../x86_64-nacl/lib/../lib64/libnacl.a(abort_9f6b5845.o)
                              /Users/stevefar/nacl_sdk/pepper_45/toolchain/mac_x86_newlib/bin/../lib/gcc/x86_64-nacl/4.4.3/../../../../x86_64-nacl/lib/../lib64/libstdc++.a(eh_personality.o) (abort)
/Users/stevefar/nacl_sdk/pepper_45/toolchain/mac_x86_newlib/bin/../lib/gcc/x86_64-nacl/4.4.3/../../../../x86_64-nacl/lib/../lib64/libnacl.a(environ_25cd24d8.o)
                              /Users/stevefar/nacl_sdk/pepper_45/toolchain/mac_x86_newlib/bin/../lib/gcc/x86_64-nacl/4.4.3/../../../../x86_64-nacl/lib/../lib64/libppapi_stub.a(ppapi_plugin_start_8da67623.o) (environ)
/Users/stevefar/nacl_sdk/pepper_45/toolchain/mac_x86_newlib/bin/../lib/gcc/x86_64-nacl/4.4.3/../../../../x86_64-nacl/lib/../lib64/libnacl.a(malloc_222c4a1e.o)
                              /Users/stevefar/nacl_sdk/pepper_45/toolchain/mac_x86_newlib/bin/../lib/gcc/x86_64-nacl/4.4.3/../../../../x86_64-nacl/lib/../lib64/libpthread.a(nc_thread_7e478b15.o) (free)
/Users/stevefar/nacl_sdk/pepper_45/toolchain/mac_x86_newlib/bin/../lib/gcc/x86_64-nacl/4.4.3/../../../../x86_64-nacl/lib/../lib64/libnacl.a(nacl_irt_6de1d53f.o)
                              /Users/stevefar/nacl_sdk/pepper_45/toolchain/mac_x86_newlib/bin/../lib/gcc/x86_64-nacl/4.4.3/../../../../x86_64-nacl/lib/../lib64/libpthread.a(nc_init_irt_d3daafc0.o) (__libnacl_mandatory_irt_query)
/Users/stevefar/nacl_sdk/pepper_45/toolchain/mac_x86_newlib/bin/../lib/gcc/x86_64-nacl/4.4.3/../../../../x86_64-nacl/lib/../lib64/libnacl.a(pthread_initialize_minimal_4b6e776b.o)
                              /Users/stevefar/nacl_sdk/pepper_45/toolchain/mac_x86_newlib/bin/../lib/gcc/x86_64-nacl/4.4.3/../../../../x86_64-nacl/lib/../lib64/libpthread.a(nc_thread_7e478b15.o) (__pthread_initialize_minimal)
/Users/stevefar/nacl_sdk/pepper_45/toolchain/mac_x86_newlib/bin/../lib/gcc/x86_64-nacl/4.4.3/../../../../x86_64-nacl/lib/../lib64/libnacl.a(nacl_read_tp_5748ac47.o)
                              newlib/Release/_platform_specific/x86-64/multi_platform_unstripped_x86_64.nexe (__nacl_read_tp)
/Users/stevefar/nacl_sdk/pepper_45/toolchain/mac_x86_newlib/bin/../lib/gcc/x86_64-nacl/4.4.3/../../../../x86_64-nacl/lib/../lib64/libnacl.a(nacl_add_tp_7312c7c4.o)
                              newlib/Release/_platform_specific/x86-64/multi_platform_unstripped_x86_64.nexe (__nacl_add_tp)
/Users/stevefar/nacl_sdk/pepper_45/toolchain/mac_x86_newlib/bin/../lib/gcc/x86_64-nacl/4.4.3/../../../../x86_64-nacl/lib/../lib64/libnacl.a(mmap_767fb080.o)
                              /Users/stevefar/nacl_sdk/pepper_45/toolchain/mac_x86_newlib/bin/../lib/gcc/x86_64-nacl/4.4.3/../../../../x86_64-nacl/lib/../lib64/libnacl.a(malloc_222c4a1e.o) (mmap)
/Users/stevefar/nacl_sdk/pepper_45/toolchain/mac_x86_newlib/bin/../lib/gcc/x86_64-nacl/4.4.3/../../../../x86_64-nacl/lib/../lib64/libnacl.a(sched_yield_56c375be.o)
                              /Users/stevefar/nacl_sdk/pepper_45/toolchain/mac_x86_newlib/bin/../lib/gcc/x86_64-nacl/4.4.3/../../../../x86_64-nacl/lib/../lib64/libnacl.a(malloc_222c4a1e.o) (sched_yield)
/Users/stevefar/nacl_sdk/pepper_45/toolchain/mac_x86_newlib/bin/../lib/gcc/x86_64-nacl/4.4.3/../../../../x86_64-nacl/lib/../lib64/libnacl.a(start_fa9ef7de.o)
                              (_start)
/Users/stevefar/nacl_sdk/pepper_45/toolchain/mac_x86_newlib/bin/../lib/gcc/x86_64-nacl/4.4.3/../../../../x86_64-nacl/lib/../lib64/libnacl.a(munmap_d4f09867.o)
                              /Users/stevefar/nacl_sdk/pepper_45/toolchain/mac_x86_newlib/bin/../lib/gcc/x86_64-nacl/4.4.3/../../../../x86_64-nacl/lib/../lib64/libnacl.a(malloc_222c4a1e.o) (munmap)
/Users/stevefar/nacl_sdk/pepper_45/toolchain/mac_x86_newlib/bin/../lib/gcc/x86_64-nacl/4.4.3/../../../../x86_64-nacl/lib/../lib64/libnacl.a(tls_bba1975b.o)
                              /Users/stevefar/nacl_sdk/pepper_45/toolchain/mac_x86_newlib/bin/../lib/gcc/x86_64-nacl/4.4.3/../../../../x86_64-nacl/lib/../lib64/libpthread.a(nc_thread_7e478b15.o) (__nacl_tls_combined_size)
/Users/stevefar/nacl_sdk/pepper_45/toolchain/mac_x86_newlib/bin/../lib/gcc/x86_64-nacl/4.4.3/../../../../x86_64-nacl/lib/../lib64/libnacl.a(write_fb49787f.o)
                              /Users/stevefar/nacl_sdk/pepper_45/toolchain/mac_x86_newlib/bin/../lib/gcc/x86_64-nacl/4.4.3/../../../../x86_64-nacl/lib/../lib64/libppapi_stub.a(ppapi_plugin_start_8da67623.o) (write)
/Users/stevefar/nacl_sdk/pepper_45/toolchain/mac_x86_newlib/bin/../lib/gcc/x86_64-nacl/4.4.3/../../../../x86_64-nacl/lib/../lib64/libnacl.a(nacl_tls_get_d2f842b5.o)
                              /Users/stevefar/nacl_sdk/pepper_45/toolchain/mac_x86_newlib/bin/../lib/gcc/x86_64-nacl/4.4.3/../../../../x86_64-nacl/lib/../lib64/libnacl.a(nacl_read_tp_5748ac47.o) (nacl_tls_get)
/Users/stevefar/nacl_sdk/pepper_45/toolchain/mac_x86_newlib/bin/../lib/gcc/x86_64-nacl/4.4.3/../../../../x86_64-nacl/lib/../lib64/libnacl.a(nacl_irt_init_7b4f826e.o)
                              /Users/stevefar/nacl_sdk/pepper_45/toolchain/mac_x86_newlib/bin/../lib/gcc/x86_64-nacl/4.4.3/../../../../x86_64-nacl/lib/../lib64/libnacl.a(start_fa9ef7de.o) (__libnacl_irt_init)
/Users/stevefar/nacl_sdk/pepper_45/toolchain/mac_x86_newlib/bin/../lib/gcc/x86_64-nacl/4.4.3/../../../../x86_64-nacl/lib/../lib64/libnacl.a(sysconf_ad295ea2.o)
                              /Users/stevefar/nacl_sdk/pepper_45/toolchain/mac_x86_newlib/bin/../lib/gcc/x86_64-nacl/4.4.3/../../../../x86_64-nacl/lib/../lib64/libnacl.a(malloc_222c4a1e.o) (sysconf)
/Users/stevefar/nacl_sdk/pepper_45/toolchain/mac_x86_newlib/bin/../lib/gcc/x86_64-nacl/4.4.3/../../../../x86_64-nacl/lib/../lib64/libnacl.a(nacl_tls_init_eb0cd232.o)
                              /Users/stevefar/nacl_sdk/pepper_45/toolchain/mac_x86_newlib/bin/../lib/gcc/x86_64-nacl/4.4.3/../../../../x86_64-nacl/lib/../lib64/libnacl.a(pthread_initialize_minimal_4b6e776b.o) (nacl_tls_init)
/Users/stevefar/nacl_sdk/pepper_45/toolchain/mac_x86_newlib/bin/../lib/gcc/x86_64-nacl/4.4.3/../../../../x86_64-nacl/lib/../lib64/libcrt_common.a(lib_a-atexit.o)
                              /Users/stevefar/nacl_sdk/pepper_45/toolchain/mac_x86_newlib/bin/../lib/gcc/x86_64-nacl/4.4.3/../../../../x86_64-nacl/lib/../lib64/libnacl.a(start_fa9ef7de.o) (atexit)
/Users/stevefar/nacl_sdk/pepper_45/toolchain/mac_x86_newlib/bin/../lib/gcc/x86_64-nacl/4.4.3/../../../../x86_64-nacl/lib/../lib64/libcrt_common.a(lib_a-cxa_atexit.o)
                              /Users/stevefar/nacl_sdk/pepper_45/toolchain/mac_x86_newlib/bin/../lib/gcc/x86_64-nacl/4.4.3/../../../../x86_64-nacl/lib/../lib64/libstdc++.a(eh_globals.o) (__cxa_atexit)
/Users/stevefar/nacl_sdk/pepper_45/toolchain/mac_x86_newlib/bin/../lib/gcc/x86_64-nacl/4.4.3/../../../../x86_64-nacl/lib/../lib64/libcrt_common.a(lib_a-errno.o)
                              /Users/stevefar/nacl_sdk/pepper_45/toolchain/mac_x86_newlib/bin/../lib/gcc/x86_64-nacl/4.4.3/../../../../x86_64-nacl/lib/../lib64/libnacl.a(malloc_222c4a1e.o) (__errno)
/Users/stevefar/nacl_sdk/pepper_45/toolchain/mac_x86_newlib/bin/../lib/gcc/x86_64-nacl/4.4.3/../../../../x86_64-nacl/lib/../lib64/libcrt_common.a(lib_a-exit.o)
                              (exit)
/Users/stevefar/nacl_sdk/pepper_45/toolchain/mac_x86_newlib/bin/../lib/gcc/x86_64-nacl/4.4.3/../../../../x86_64-nacl/lib/../lib64/libcrt_common.a(lib_a-fini.o)
                              /Users/stevefar/nacl_sdk/pepper_45/toolchain/mac_x86_newlib/bin/../lib/gcc/x86_64-nacl/4.4.3/../../../../x86_64-nacl/lib/../lib64/libnacl.a(start_fa9ef7de.o) (__libc_fini_array)
/Users/stevefar/nacl_sdk/pepper_45/toolchain/mac_x86_newlib/bin/../lib/gcc/x86_64-nacl/4.4.3/../../../../x86_64-nacl/lib/../lib64/libcrt_common.a(lib_a-fprintf.o)
                              /Users/stevefar/nacl_sdk/pepper_45/toolchain/mac_x86_newlib/bin/../lib/gcc/x86_64-nacl/4.4.3/../../../../x86_64-nacl/lib/../lib64/libnacl.a(malloc_222c4a1e.o) (fprintf)
/Users/stevefar/nacl_sdk/pepper_45/toolchain/mac_x86_newlib/bin/../lib/gcc/x86_64-nacl/4.4.3/../../../../x86_64-nacl/lib/../lib64/libcrt_common.a(lib_a-fputc.o)
                              /Users/stevefar/nacl_sdk/pepper_45/toolchain/mac_x86_newlib/bin/../lib/gcc/x86_64-nacl/4.4.3/../../../../x86_64-nacl/lib/../lib64/libstdc++.a(vterminate.o) (fputc)
/Users/stevefar/nacl_sdk/pepper_45/toolchain/mac_x86_newlib/bin/../lib/gcc/x86_64-nacl/4.4.3/../../../../x86_64-nacl/lib/../lib64/libcrt_common.a(lib_a-fputs.o)
                              /Users/stevefar/nacl_sdk/pepper_45/toolchain/mac_x86_newlib/bin/../lib/gcc/x86_64-nacl/4.4.3/../../../../x86_64-nacl/lib/../lib64/libstdc++.a(vterminate.o) (fputs)
/Users/stevefar/nacl_sdk/pepper_45/toolchain/mac_x86_newlib/bin/../lib/gcc/x86_64-nacl/4.4.3/../../../../x86_64-nacl/lib/../lib64/libcrt_common.a(lib_a-fvwrite.o)
                              /Users/stevefar/nacl_sdk/pepper_45/toolchain/mac_x86_newlib/bin/../lib/gcc/x86_64-nacl/4.4.3/../../../../x86_64-nacl/lib/../lib64/libcrt_common.a(lib_a-fputs.o) (__sfvwrite_r)
/Users/stevefar/nacl_sdk/pepper_45/toolchain/mac_x86_newlib/bin/../lib/gcc/x86_64-nacl/4.4.3/../../../../x86_64-nacl/lib/../lib64/libcrt_common.a(lib_a-fwrite.o)
                              /Users/stevefar/nacl_sdk/pepper_45/toolchain/mac_x86_newlib/bin/../lib/gcc/x86_64-nacl/4.4.3/../../../../x86_64-nacl/lib/../lib64/libstdc++.a(vterminate.o) (fwrite)
/Users/stevefar/nacl_sdk/pepper_45/toolchain/mac_x86_newlib/bin/../lib/gcc/x86_64-nacl/4.4.3/../../../../x86_64-nacl/lib/../lib64/libcrt_common.a(lib_a-getenv.o)
                              /Users/stevefar/nacl_sdk/pepper_45/toolchain/mac_x86_newlib/bin/../lib/gcc/x86_64-nacl/4.4.3/../../../../x86_64-nacl/lib/../lib64/libpthread.a(dynamic_annotations_33ba59cc.o) (getenv)
/Users/stevefar/nacl_sdk/pepper_45/toolchain/mac_x86_newlib/bin/../lib/gcc/x86_64-nacl/4.4.3/../../../../x86_64-nacl/lib/../lib64/libcrt_common.a(lib_a-getenv_r.o)
                              /Users/stevefar/nacl_sdk/pepper_45/toolchain/mac_x86_newlib/bin/../lib/gcc/x86_64-nacl/4.4.3/../../../../x86_64-nacl/lib/../lib64/libcrt_common.a(lib_a-getenv.o) (_findenv_r)
/Users/stevefar/nacl_sdk/pepper_45/toolchain/mac_x86_newlib/bin/../lib/gcc/x86_64-nacl/4.4.3/../../../../x86_64-nacl/lib/../lib64/libcrt_common.a(lib_a-impure.o)
                              /Users/stevefar/nacl_sdk/pepper_45/toolchain/mac_x86_newlib/bin/../lib/gcc/x86_64-nacl/4.4.3/../../../../x86_64-nacl/lib/../lib64/libpthread.a(nc_thread_7e478b15.o) (__newlib_thread_init)
/Users/stevefar/nacl_sdk/pepper_45/toolchain/mac_x86_newlib/bin/../lib/gcc/x86_64-nacl/4.4.3/../../../../x86_64-nacl/lib/../lib64/libcrt_common.a(lib_a-init.o)
                              /Users/stevefar/nacl_sdk/pepper_45/toolchain/mac_x86_newlib/bin/../lib/gcc/x86_64-nacl/4.4.3/../../../../x86_64-nacl/lib/../lib64/libnacl.a(start_fa9ef7de.o) (__libc_init_array)
/Users/stevefar/nacl_sdk/pepper_45/toolchain/mac_x86_newlib/bin/../lib/gcc/x86_64-nacl/4.4.3/../../../../x86_64-nacl/lib/../lib64/libcrt_common.a(lib_a-memchr.o)
                              /Users/stevefar/nacl_sdk/pepper_45/toolchain/mac_x86_newlib/bin/../lib/gcc/x86_64-nacl/4.4.3/../../../../x86_64-nacl/lib/../lib64/libstdc++.a(string-inst.o) (memchr)
/Users/stevefar/nacl_sdk/pepper_45/toolchain/mac_x86_newlib/bin/../lib/gcc/x86_64-nacl/4.4.3/../../../../x86_64-nacl/lib/../lib64/libcrt_common.a(lib_a-memcpy.o)
                              /Users/stevefar/nacl_sdk/pepper_45/toolchain/mac_x86_newlib/bin/../lib/gcc/x86_64-nacl/4.4.3/../../../../x86_64-nacl/lib/../lib64/libstdc++.a(string-inst.o) (memcpy)
/Users/stevefar/nacl_sdk/pepper_45/toolchain/mac_x86_newlib/bin/../lib/gcc/x86_64-nacl/4.4.3/../../../../x86_64-nacl/lib/../lib64/libcrt_common.a(lib_a-memmove.o)
                              /Users/stevefar/nacl_sdk/pepper_45/toolchain/mac_x86_newlib/bin/../lib/gcc/x86_64-nacl/4.4.3/../../../../x86_64-nacl/lib/../lib64/libstdc++.a(string-inst.o) (memmove)
/Users/stevefar/nacl_sdk/pepper_45/toolchain/mac_x86_newlib/bin/../lib/gcc/x86_64-nacl/4.4.3/../../../../x86_64-nacl/lib/../lib64/libcrt_common.a(lib_a-memset.o)
                              /Users/stevefar/nacl_sdk/pepper_45/toolchain/mac_x86_newlib/bin/../lib/gcc/x86_64-nacl/4.4.3/../../../../x86_64-nacl/lib/../lib64/libstdc++.a(string-inst.o) (memset)
/Users/stevefar/nacl_sdk/pepper_45/toolchain/mac_x86_newlib/bin/../lib/gcc/x86_64-nacl/4.4.3/../../../../x86_64-nacl/lib/../lib64/libcrt_common.a(lib_a-putc.o)
                              /Users/stevefar/nacl_sdk/pepper_45/toolchain/mac_x86_newlib/bin/../lib/gcc/x86_64-nacl/4.4.3/../../../../x86_64-nacl/lib/../lib64/libcrt_common.a(lib_a-fputc.o) (_putc_r)
/Users/stevefar/nacl_sdk/pepper_45/toolchain/mac_x86_newlib/bin/../lib/gcc/x86_64-nacl/4.4.3/../../../../x86_64-nacl/lib/../lib64/libcrt_common.a(lib_a-snprintf.o)
                              /Users/stevefar/nacl_sdk/pepper_45/lib/newlib_x86_64/Release/libppapi_cpp.a(var_x86_64.o) (snprintf)
/Users/stevefar/nacl_sdk/pepper_45/toolchain/mac_x86_newlib/bin/../lib/gcc/x86_64-nacl/4.4.3/../../../../x86_64-nacl/lib/../lib64/libcrt_common.a(lib_a-sprintf.o)
                              /Users/stevefar/nacl_sdk/pepper_45/toolchain/mac_x86_newlib/bin/../lib/gcc/x86_64-nacl/4.4.3/../../../../x86_64-nacl/lib/../lib64/libstdc++.a(cp-demangle.o) (sprintf)
/Users/stevefar/nacl_sdk/pepper_45/toolchain/mac_x86_newlib/bin/../lib/gcc/x86_64-nacl/4.4.3/../../../../x86_64-nacl/lib/../lib64/libcrt_common.a(lib_a-strcpy.o)
                              /Users/stevefar/nacl_sdk/pepper_45/toolchain/mac_x86_newlib/bin/../lib/gcc/x86_64-nacl/4.4.3/../../../../x86_64-nacl/lib/../lib64/libstdc++.a(cp-demangle.o) (strcpy)
/Users/stevefar/nacl_sdk/pepper_45/toolchain/mac_x86_newlib/bin/../lib/gcc/x86_64-nacl/4.4.3/../../../../x86_64-nacl/lib/../lib64/libcrt_common.a(lib_a-strerror.o)
                              /Users/stevefar/nacl_sdk/pepper_45/toolchain/mac_x86_newlib/bin/../lib/gcc/x86_64-nacl/4.4.3/../../../../x86_64-nacl/lib/../lib64/libstdc++.a(system_error.o) (strerror)
/Users/stevefar/nacl_sdk/pepper_45/toolchain/mac_x86_newlib/bin/../lib/gcc/x86_64-nacl/4.4.3/../../../../x86_64-nacl/lib/../lib64/libcrt_common.a(lib_a-strlen.o)
                              /Users/stevefar/nacl_sdk/pepper_45/lib/newlib_x86_64/Release/libppapi_cpp.a(var_x86_64.o) (strlen)
/Users/stevefar/nacl_sdk/pepper_45/toolchain/mac_x86_newlib/bin/../lib/gcc/x86_64-nacl/4.4.3/../../../../x86_64-nacl/lib/../lib64/libcrt_common.a(lib_a-strncmp.o)
                              /Users/stevefar/nacl_sdk/pepper_45/toolchain/mac_x86_newlib/bin/../lib/gcc/x86_64-nacl/4.4.3/../../../../x86_64-nacl/lib/../lib64/libcrt_common.a(lib_a-getenv_r.o) (strncmp)
/Users/stevefar/nacl_sdk/pepper_45/toolchain/mac_x86_newlib/bin/../lib/gcc/x86_64-nacl/4.4.3/../../../../x86_64-nacl/lib/../lib64/libcrt_common.a(lib_a-svfprintf.o)
                              /Users/stevefar/nacl_sdk/pepper_45/toolchain/mac_x86_newlib/bin/../lib/gcc/x86_64-nacl/4.4.3/../../../../x86_64-nacl/lib/../lib64/libcrt_common.a(lib_a-snprintf.o) (_svfprintf_r)
/Users/stevefar/nacl_sdk/pepper_45/toolchain/mac_x86_newlib/bin/../lib/gcc/x86_64-nacl/4.4.3/../../../../x86_64-nacl/lib/../lib64/libcrt_common.a(lib_a-u_strerr.o)
                              /Users/stevefar/nacl_sdk/pepper_45/toolchain/mac_x86_newlib/bin/../lib/gcc/x86_64-nacl/4.4.3/../../../../x86_64-nacl/lib/../lib64/libcrt_common.a(lib_a-strerror.o) (_user_strerror)
/Users/stevefar/nacl_sdk/pepper_45/toolchain/mac_x86_newlib/bin/../lib/gcc/x86_64-nacl/4.4.3/../../../../x86_64-nacl/lib/../lib64/libcrt_common.a(lib_a-vfprintf.o)
                              /Users/stevefar/nacl_sdk/pepper_45/toolchain/mac_x86_newlib/bin/../lib/gcc/x86_64-nacl/4.4.3/../../../../x86_64-nacl/lib/../lib64/libcrt_common.a(lib_a-fprintf.o) (_vfprintf_r)
/Users/stevefar/nacl_sdk/pepper_45/toolchain/mac_x86_newlib/bin/../lib/gcc/x86_64-nacl/4.4.3/../../../../x86_64-nacl/lib/../lib64/libcrt_common.a(lib_a-wbuf.o)
                              /Users/stevefar/nacl_sdk/pepper_45/toolchain/mac_x86_newlib/bin/../lib/gcc/x86_64-nacl/4.4.3/../../../../x86_64-nacl/lib/../lib64/libcrt_common.a(lib_a-putc.o) (__swbuf_r)
/Users/stevefar/nacl_sdk/pepper_45/toolchain/mac_x86_newlib/bin/../lib/gcc/x86_64-nacl/4.4.3/../../../../x86_64-nacl/lib/../lib64/libcrt_common.a(lib_a-wcrtomb.o)
                              /Users/stevefar/nacl_sdk/pepper_45/toolchain/mac_x86_newlib/bin/../lib/gcc/x86_64-nacl/4.4.3/../../../../x86_64-nacl/lib/../lib64/libcrt_common.a(lib_a-svfprintf.o) (_wcrtomb_r)
/Users/stevefar/nacl_sdk/pepper_45/toolchain/mac_x86_newlib/bin/../lib/gcc/x86_64-nacl/4.4.3/../../../../x86_64-nacl/lib/../lib64/libcrt_common.a(lib_a-wcsrtombs.o)
                              /Users/stevefar/nacl_sdk/pepper_45/toolchain/mac_x86_newlib/bin/../lib/gcc/x86_64-nacl/4.4.3/../../../../x86_64-nacl/lib/../lib64/libcrt_common.a(lib_a-svfprintf.o) (_wcsrtombs_r)
/Users/stevefar/nacl_sdk/pepper_45/toolchain/mac_x86_newlib/bin/../lib/gcc/x86_64-nacl/4.4.3/../../../../x86_64-nacl/lib/../lib64/libcrt_common.a(lib_a-wctomb_r.o)
                              /Users/stevefar/nacl_sdk/pepper_45/toolchain/mac_x86_newlib/bin/../lib/gcc/x86_64-nacl/4.4.3/../../../../x86_64-nacl/lib/../lib64/libcrt_common.a(lib_a-wcrtomb.o) (__wctomb)
/Users/stevefar/nacl_sdk/pepper_45/toolchain/mac_x86_newlib/bin/../lib/gcc/x86_64-nacl/4.4.3/../../../../x86_64-nacl/lib/../lib64/libcrt_common.a(lib_a-wsetup.o)
                              /Users/stevefar/nacl_sdk/pepper_45/toolchain/mac_x86_newlib/bin/../lib/gcc/x86_64-nacl/4.4.3/../../../../x86_64-nacl/lib/../lib64/libcrt_common.a(lib_a-fvwrite.o) (__swsetup_r)
/Users/stevefar/nacl_sdk/pepper_45/toolchain/mac_x86_newlib/bin/../lib/gcc/x86_64-nacl/4.4.3/../../../../x86_64-nacl/lib/../lib64/libcrt_common.a(lib_a-__atexit.o)
                              /Users/stevefar/nacl_sdk/pepper_45/toolchain/mac_x86_newlib/bin/../lib/gcc/x86_64-nacl/4.4.3/../../../../x86_64-nacl/lib/../lib64/libcrt_common.a(lib_a-atexit.o) (__register_exitproc)
/Users/stevefar/nacl_sdk/pepper_45/toolchain/mac_x86_newlib/bin/../lib/gcc/x86_64-nacl/4.4.3/../../../../x86_64-nacl/lib/../lib64/libcrt_common.a(lib_a-__call_atexit.o)
                              /Users/stevefar/nacl_sdk/pepper_45/toolchain/mac_x86_newlib/bin/../lib/gcc/x86_64-nacl/4.4.3/../../../../x86_64-nacl/lib/../lib64/libcrt_common.a(lib_a-exit.o) (__call_exitprocs)
/Users/stevefar/nacl_sdk/pepper_45/toolchain/mac_x86_newlib/bin/../lib/gcc/x86_64-nacl/4.4.3/../../../../x86_64-nacl/lib/../lib64/libcrt_common.a(lib_a-dtoa.o)
                              /Users/stevefar/nacl_sdk/pepper_45/toolchain/mac_x86_newlib/bin/../lib/gcc/x86_64-nacl/4.4.3/../../../../x86_64-nacl/lib/../lib64/libcrt_common.a(lib_a-svfprintf.o) (_dtoa_r)
/Users/stevefar/nacl_sdk/pepper_45/toolchain/mac_x86_newlib/bin/../lib/gcc/x86_64-nacl/4.4.3/../../../../x86_64-nacl/lib/../lib64/libcrt_common.a(lib_a-envlock.o)
                              /Users/stevefar/nacl_sdk/pepper_45/toolchain/mac_x86_newlib/bin/../lib/gcc/x86_64-nacl/4.4.3/../../../../x86_64-nacl/lib/../lib64/libcrt_common.a(lib_a-getenv_r.o) (__env_unlock)
/Users/stevefar/nacl_sdk/pepper_45/toolchain/mac_x86_newlib/bin/../lib/gcc/x86_64-nacl/4.4.3/../../../../x86_64-nacl/lib/../lib64/libcrt_common.a(lib_a-fflush.o)
                              /Users/stevefar/nacl_sdk/pepper_45/toolchain/mac_x86_newlib/bin/../lib/gcc/x86_64-nacl/4.4.3/../../../../x86_64-nacl/lib/../lib64/libcrt_common.a(lib_a-fvwrite.o) (_fflush_r)
/Users/stevefar/nacl_sdk/pepper_45/toolchain/mac_x86_newlib/bin/../lib/gcc/x86_64-nacl/4.4.3/../../../../x86_64-nacl/lib/../lib64/libcrt_common.a(lib_a-findfp.o)
                              /Users/stevefar/nacl_sdk/pepper_45/toolchain/mac_x86_newlib/bin/../lib/gcc/x86_64-nacl/4.4.3/../../../../x86_64-nacl/lib/../lib64/libcrt_common.a(lib_a-fputc.o) (__sinit)
/Users/stevefar/nacl_sdk/pepper_45/toolchain/mac_x86_newlib/bin/../lib/gcc/x86_64-nacl/4.4.3/../../../../x86_64-nacl/lib/../lib64/libcrt_common.a(lib_a-fwalk.o)
                              /Users/stevefar/nacl_sdk/pepper_45/toolchain/mac_x86_newlib/bin/../lib/gcc/x86_64-nacl/4.4.3/../../../../x86_64-nacl/lib/../lib64/libcrt_common.a(lib_a-fflush.o) (_fwalk_reent)
/Users/stevefar/nacl_sdk/pepper_45/toolchain/mac_x86_newlib/bin/../lib/gcc/x86_64-nacl/4.4.3/../../../../x86_64-nacl/lib/../lib64/libcrt_common.a(lib_a-locale.o)
                              /Users/stevefar/nacl_sdk/pepper_45/toolchain/mac_x86_newlib/bin/../lib/gcc/x86_64-nacl/4.4.3/../../../../x86_64-nacl/lib/../lib64/libcrt_common.a(lib_a-svfprintf.o) (__locale_charset)
/Users/stevefar/nacl_sdk/pepper_45/toolchain/mac_x86_newlib/bin/../lib/gcc/x86_64-nacl/4.4.3/../../../../x86_64-nacl/lib/../lib64/libcrt_common.a(lib_a-makebuf.o)
                              /Users/stevefar/nacl_sdk/pepper_45/toolchain/mac_x86_newlib/bin/../lib/gcc/x86_64-nacl/4.4.3/../../../../x86_64-nacl/lib/../lib64/libcrt_common.a(lib_a-wsetup.o) (__smakebuf_r)
/Users/stevefar/nacl_sdk/pepper_45/toolchain/mac_x86_newlib/bin/../lib/gcc/x86_64-nacl/4.4.3/../../../../x86_64-nacl/lib/../lib64/libcrt_common.a(lib_a-mbtowc_r.o)
                              /Users/stevefar/nacl_sdk/pepper_45/toolchain/mac_x86_newlib/bin/../lib/gcc/x86_64-nacl/4.4.3/../../../../x86_64-nacl/lib/../lib64/libcrt_common.a(lib_a-locale.o) (__ascii_mbtowc)
/Users/stevefar/nacl_sdk/pepper_45/toolchain/mac_x86_newlib/bin/../lib/gcc/x86_64-nacl/4.4.3/../../../../x86_64-nacl/lib/../lib64/libcrt_common.a(lib_a-mprec.o)
                              /Users/stevefar/nacl_sdk/pepper_45/toolchain/mac_x86_newlib/bin/../lib/gcc/x86_64-nacl/4.4.3/../../../../x86_64-nacl/lib/../lib64/libcrt_common.a(lib_a-dtoa.o) (_Bfree)
/Users/stevefar/nacl_sdk/pepper_45/toolchain/mac_x86_newlib/bin/../lib/gcc/x86_64-nacl/4.4.3/../../../../x86_64-nacl/lib/../lib64/libcrt_common.a(lib_a-s_fpclassify.o)
                              /Users/stevefar/nacl_sdk/pepper_45/toolchain/mac_x86_newlib/bin/../lib/gcc/x86_64-nacl/4.4.3/../../../../x86_64-nacl/lib/../lib64/libcrt_common.a(lib_a-svfprintf.o) (__fpclassifyd)
/Users/stevefar/nacl_sdk/pepper_45/toolchain/mac_x86_newlib/bin/../lib/gcc/x86_64-nacl/4.4.3/../../../../x86_64-nacl/lib/../lib64/libcrt_common.a(lib_a-s_frexp.o)
                              /Users/stevefar/nacl_sdk/pepper_45/toolchain/mac_x86_newlib/bin/../lib/gcc/x86_64-nacl/4.4.3/../../../../x86_64-nacl/lib/../lib64/libcrt_common.a(lib_a-svfprintf.o) (frexp)
/Users/stevefar/nacl_sdk/pepper_45/toolchain/mac_x86_newlib/bin/../lib/gcc/x86_64-nacl/4.4.3/../../../../x86_64-nacl/lib/../lib64/libcrt_common.a(lib_a-stdio.o)
                              /Users/stevefar/nacl_sdk/pepper_45/toolchain/mac_x86_newlib/bin/../lib/gcc/x86_64-nacl/4.4.3/../../../../x86_64-nacl/lib/../lib64/libcrt_common.a(lib_a-findfp.o) (__sclose)
/Users/stevefar/nacl_sdk/pepper_45/toolchain/mac_x86_newlib/bin/../lib/gcc/x86_64-nacl/4.4.3/../../../../x86_64-nacl/lib/../lib64/libcrt_common.a(lib_a-strcasecmp.o)
                              /Users/stevefar/nacl_sdk/pepper_45/toolchain/mac_x86_newlib/bin/../lib/gcc/x86_64-nacl/4.4.3/../../../../x86_64-nacl/lib/../lib64/libcrt_common.a(lib_a-locale.o) (strcasecmp)
/Users/stevefar/nacl_sdk/pepper_45/toolchain/mac_x86_newlib/bin/../lib/gcc/x86_64-nacl/4.4.3/../../../../x86_64-nacl/lib/../lib64/libcrt_common.a(lib_a-strcat.o)
                              /Users/stevefar/nacl_sdk/pepper_45/toolchain/mac_x86_newlib/bin/../lib/gcc/x86_64-nacl/4.4.3/../../../../x86_64-nacl/lib/../lib64/libcrt_common.a(lib_a-locale.o) (strcat)
/Users/stevefar/nacl_sdk/pepper_45/toolchain/mac_x86_newlib/bin/../lib/gcc/x86_64-nacl/4.4.3/../../../../x86_64-nacl/lib/../lib64/libcrt_common.a(lib_a-strchr.o)
                              /Users/stevefar/nacl_sdk/pepper_45/toolchain/mac_x86_newlib/bin/../lib/gcc/x86_64-nacl/4.4.3/../../../../x86_64-nacl/lib/../lib64/libcrt_common.a(lib_a-locale.o) (strchr)
/Users/stevefar/nacl_sdk/pepper_45/toolchain/mac_x86_newlib/bin/../lib/gcc/x86_64-nacl/4.4.3/../../../../x86_64-nacl/lib/../lib64/libcrt_common.a(lib_a-strcmp.o)
                              /Users/stevefar/nacl_sdk/pepper_45/toolchain/mac_x86_newlib/bin/../lib/gcc/x86_64-nacl/4.4.3/../../../../x86_64-nacl/lib/../lib64/libcrt_common.a(lib_a-locale.o) (strcmp)
/Users/stevefar/nacl_sdk/pepper_45/toolchain/mac_x86_newlib/bin/../lib/gcc/x86_64-nacl/4.4.3/../../../../x86_64-nacl/lib/../lib64/libcrt_common.a(lib_a-strlcpy.o)
                              /Users/stevefar/nacl_sdk/pepper_45/toolchain/mac_x86_newlib/bin/../lib/gcc/x86_64-nacl/4.4.3/../../../../x86_64-nacl/lib/../lib64/libcrt_common.a(lib_a-locale.o) (strlcpy)
/Users/stevefar/nacl_sdk/pepper_45/toolchain/mac_x86_newlib/bin/../lib/gcc/x86_64-nacl/4.4.3/../../../../x86_64-nacl/lib/../lib64/libcrt_common.a(lib_a-strncasecmp.o)
                              /Users/stevefar/nacl_sdk/pepper_45/toolchain/mac_x86_newlib/bin/../lib/gcc/x86_64-nacl/4.4.3/../../../../x86_64-nacl/lib/../lib64/libcrt_common.a(lib_a-locale.o) (strncasecmp)
/Users/stevefar/nacl_sdk/pepper_45/toolchain/mac_x86_newlib/bin/../lib/gcc/x86_64-nacl/4.4.3/../../../../x86_64-nacl/lib/../lib64/libcrt_common.a(lib_a-strncpy.o)
                              /Users/stevefar/nacl_sdk/pepper_45/toolchain/mac_x86_newlib/bin/../lib/gcc/x86_64-nacl/4.4.3/../../../../x86_64-nacl/lib/../lib64/libcrt_common.a(lib_a-svfprintf.o) (strncpy)
/Users/stevefar/nacl_sdk/pepper_45/toolchain/mac_x86_newlib/bin/../lib/gcc/x86_64-nacl/4.4.3/../../../../x86_64-nacl/lib/../lib64/libcrt_common.a(lib_a-strtol.o)
                              /Users/stevefar/nacl_sdk/pepper_45/toolchain/mac_x86_newlib/bin/../lib/gcc/x86_64-nacl/4.4.3/../../../../x86_64-nacl/lib/../lib64/libcrt_common.a(lib_a-locale.o) (_strtol_r)
/Users/stevefar/nacl_sdk/pepper_45/toolchain/mac_x86_newlib/bin/../lib/gcc/x86_64-nacl/4.4.3/../../../../x86_64-nacl/lib/../lib64/libcrt_common.a(lib_a-svfiprintf.o)
                              /Users/stevefar/nacl_sdk/pepper_45/toolchain/mac_x86_newlib/bin/../lib/gcc/x86_64-nacl/4.4.3/../../../../x86_64-nacl/lib/../lib64/libcrt_common.a(lib_a-svfprintf.o) (__ssprint_r)
/Users/stevefar/nacl_sdk/pepper_45/toolchain/mac_x86_newlib/bin/../lib/gcc/x86_64-nacl/4.4.3/../../../../x86_64-nacl/lib/../lib64/libcrt_common.a(lib_a-vfiprintf.o)
                              /Users/stevefar/nacl_sdk/pepper_45/toolchain/mac_x86_newlib/bin/../lib/gcc/x86_64-nacl/4.4.3/../../../../x86_64-nacl/lib/../lib64/libcrt_common.a(lib_a-vfprintf.o) (__sprint_r)
/Users/stevefar/nacl_sdk/pepper_45/toolchain/mac_x86_newlib/bin/../lib/gcc/x86_64-nacl/4.4.3/../../../../x86_64-nacl/lib/../lib64/libcrt_common.a(lib_a-wcsnrtombs.o)
                              /Users/stevefar/nacl_sdk/pepper_45/toolchain/mac_x86_newlib/bin/../lib/gcc/x86_64-nacl/4.4.3/../../../../x86_64-nacl/lib/../lib64/libcrt_common.a(lib_a-wcsrtombs.o) (_wcsnrtombs_r)
/Users/stevefar/nacl_sdk/pepper_45/toolchain/mac_x86_newlib/bin/../lib/gcc/x86_64-nacl/4.4.3/../../../../x86_64-nacl/lib/../lib64/libcrt_common.a(lib_a-ctype_.o)
                              /Users/stevefar/nacl_sdk/pepper_45/toolchain/mac_x86_newlib/bin/../lib/gcc/x86_64-nacl/4.4.3/../../../../x86_64-nacl/lib/../lib64/libcrt_common.a(lib_a-locale.o) (__set_ctype)
/Users/stevefar/nacl_sdk/pepper_45/toolchain/mac_x86_newlib/bin/../lib/gcc/x86_64-nacl/4.4.3/../../../../x86_64-nacl/lib/../lib64/libcrt_common.a(lib_a-fclose.o)
                              /Users/stevefar/nacl_sdk/pepper_45/toolchain/mac_x86_newlib/bin/../lib/gcc/x86_64-nacl/4.4.3/../../../../x86_64-nacl/lib/../lib64/libcrt_common.a(lib_a-findfp.o) (_fclose_r)
/Users/stevefar/nacl_sdk/pepper_45/toolchain/mac_x86_newlib/bin/../lib/gcc/x86_64-nacl/4.4.3/../../../../x86_64-nacl/lib/../lib64/libcrt_common.a(lib_a-fputwc.o)
                              /Users/stevefar/nacl_sdk/pepper_45/toolchain/mac_x86_newlib/bin/../lib/gcc/x86_64-nacl/4.4.3/../../../../x86_64-nacl/lib/../lib64/libcrt_common.a(lib_a-vfiprintf.o) (_fputwc_r)
/Users/stevefar/nacl_sdk/pepper_45/toolchain/mac_x86_newlib/bin/../lib/gcc/x86_64-nacl/4.4.3/../../../../x86_64-nacl/lib/../lib64/libnacl.a(close_e9b92fbd.o)
                              /Users/stevefar/nacl_sdk/pepper_45/toolchain/mac_x86_newlib/bin/../lib/gcc/x86_64-nacl/4.4.3/../../../../x86_64-nacl/lib/../lib64/libcrt_common.a(lib_a-stdio.o) (close)
/Users/stevefar/nacl_sdk/pepper_45/toolchain/mac_x86_newlib/bin/../lib/gcc/x86_64-nacl/4.4.3/../../../../x86_64-nacl/lib/../lib64/libnacl.a(isatty_02f56e94.o)
                              /Users/stevefar/nacl_sdk/pepper_45/toolchain/mac_x86_newlib/bin/../lib/gcc/x86_64-nacl/4.4.3/../../../../x86_64-nacl/lib/../lib64/libcrt_common.a(lib_a-makebuf.o) (isatty)
/Users/stevefar/nacl_sdk/pepper_45/toolchain/mac_x86_newlib/bin/../lib/gcc/x86_64-nacl/4.4.3/../../../../x86_64-nacl/lib/../lib64/libnacl.a(nacl_irt_fdio_b571b5e7.o)
                              /Users/stevefar/nacl_sdk/pepper_45/toolchain/mac_x86_newlib/bin/../lib/gcc/x86_64-nacl/4.4.3/../../../../x86_64-nacl/lib/../lib64/libnacl.a(isatty_02f56e94.o) (__libnacl_irt_dev_fdio_init)
/Users/stevefar/nacl_sdk/pepper_45/toolchain/mac_x86_newlib/bin/../lib/gcc/x86_64-nacl/4.4.3/../../../../x86_64-nacl/lib/../lib64/libnacl.a(fstat_0540ff63.o)
                              /Users/stevefar/nacl_sdk/pepper_45/toolchain/mac_x86_newlib/bin/../lib/gcc/x86_64-nacl/4.4.3/../../../../x86_64-nacl/lib/../lib64/libcrt_common.a(lib_a-makebuf.o) (fstat)
/Users/stevefar/nacl_sdk/pepper_45/toolchain/mac_x86_newlib/bin/../lib/gcc/x86_64-nacl/4.4.3/../../../../x86_64-nacl/lib/../lib64/libnacl.a(lseek_64d2d05c.o)
                              /Users/stevefar/nacl_sdk/pepper_45/toolchain/mac_x86_newlib/bin/../lib/gcc/x86_64-nacl/4.4.3/../../../../x86_64-nacl/lib/../lib64/libcrt_common.a(lib_a-stdio.o) (lseek)
/Users/stevefar/nacl_sdk/pepper_45/toolchain/mac_x86_newlib/bin/../lib/gcc/x86_64-nacl/4.4.3/../../../../x86_64-nacl/lib/../lib64/libnacl.a(read_df872e10.o)
                              /Users/stevefar/nacl_sdk/pepper_45/toolchain/mac_x86_newlib/bin/../lib/gcc/x86_64-nacl/4.4.3/../../../../x86_64-nacl/lib/../lib64/libcrt_common.a(lib_a-stdio.o) (read)

Allocating common symbols
Common symbol       size              file

__nacl_irt_query    0x4               /Users/stevefar/nacl_sdk/pepper_45/toolchain/mac_x86_newlib/bin/../lib/gcc/x86_64-nacl/4.4.3/../../../../x86_64-nacl/lib/../lib64/libnacl.a(nacl_irt_6de1d53f.o)
__libnacl_irt_dev_filename
                    0x40              /Users/stevefar/nacl_sdk/pepper_45/toolchain/mac_x86_newlib/bin/../lib/gcc/x86_64-nacl/4.4.3/../../../../x86_64-nacl/lib/../lib64/libnacl.a(nacl_irt_6de1d53f.o)
__nc_thread_initialized
                    0x4               /Users/stevefar/nacl_sdk/pepper_45/toolchain/mac_x86_newlib/bin/../lib/gcc/x86_64-nacl/4.4.3/../../../../x86_64-nacl/lib/../lib64/libpthread.a(nc_thread_7e478b15.o)
__libnacl_irt_clock
                    0x8               /Users/stevefar/nacl_sdk/pepper_45/toolchain/mac_x86_newlib/bin/../lib/gcc/x86_64-nacl/4.4.3/../../../../x86_64-nacl/lib/../lib64/libnacl.a(nacl_irt_6de1d53f.o)
__nc_thread_management_lock
                    0x14              /Users/stevefar/nacl_sdk/pepper_45/toolchain/mac_x86_newlib/bin/../lib/gcc/x86_64-nacl/4.4.3/../../../../x86_64-nacl/lib/../lib64/libpthread.a(nc_thread_7e478b15.o)
__libnacl_irt_futex
                    0x8               /Users/stevefar/nacl_sdk/pepper_45/toolchain/mac_x86_newlib/bin/../lib/gcc/x86_64-nacl/4.4.3/../../../../x86_64-nacl/lib/../lib64/libpthread.a(nc_init_irt_d3daafc0.o)
__nc_memory_block_counter
                    0x8               /Users/stevefar/nacl_sdk/pepper_45/toolchain/mac_x86_newlib/bin/../lib/gcc/x86_64-nacl/4.4.3/../../../../x86_64-nacl/lib/../lib64/libpthread.a(nc_thread_7e478b15.o)
__nacl_initial_thread_stack_end
                    0x4               /Users/stevefar/nacl_sdk/pepper_45/toolchain/mac_x86_newlib/bin/../lib/gcc/x86_64-nacl/4.4.3/../../../../x86_64-nacl/lib/../lib64/libnacl.a(start_fa9ef7de.o)
__libnacl_irt_memory
                    0xc               /Users/stevefar/nacl_sdk/pepper_45/toolchain/mac_x86_newlib/bin/../lib/gcc/x86_64-nacl/4.4.3/../../../../x86_64-nacl/lib/../lib64/libnacl.a(nacl_irt_6de1d53f.o)
__nc_initial_thread_id
                    0x4               /Users/stevefar/nacl_sdk/pepper_45/toolchain/mac_x86_newlib/bin/../lib/gcc/x86_64-nacl/4.4.3/../../../../x86_64-nacl/lib/../lib64/libpthread.a(nc_thread_7e478b15.o)
__libnacl_irt_dev_fdio
                    0x38              /Users/stevefar/nacl_sdk/pepper_45/toolchain/mac_x86_newlib/bin/../lib/gcc/x86_64-nacl/4.4.3/../../../../x86_64-nacl/lib/../lib64/libnacl.a(nacl_irt_6de1d53f.o)
__libnacl_irt_basic
                    0x18              /Users/stevefar/nacl_sdk/pepper_45/toolchain/mac_x86_newlib/bin/../lib/gcc/x86_64-nacl/4.4.3/../../../../x86_64-nacl/lib/../lib64/libnacl.a(nacl_irt_6de1d53f.o)
__nc_thread_memory_blocks
                    0x10              /Users/stevefar/nacl_sdk/pepper_45/toolchain/mac_x86_newlib/bin/../lib/gcc/x86_64-nacl/4.4.3/../../../../x86_64-nacl/lib/../lib64/libpthread.a(nc_thread_7e478b15.o)
__libnacl_irt_thread
                    0xc               /Users/stevefar/nacl_sdk/pepper_45/toolchain/mac_x86_newlib/bin/../lib/gcc/x86_64-nacl/4.4.3/../../../../x86_64-nacl/lib/../lib64/libpthread.a(nc_thread_7e478b15.o)
__libnacl_irt_tls   0x8               /Users/stevefar/nacl_sdk/pepper_45/toolchain/mac_x86_newlib/bin/../lib/gcc/x86_64-nacl/4.4.3/../../../../x86_64-nacl/lib/../lib64/libnacl.a(nacl_irt_6de1d53f.o)
__libnacl_irt_dev_getpid
                    0x4               /Users/stevefar/nacl_sdk/pepper_45/toolchain/mac_x86_newlib/bin/../lib/gcc/x86_64-nacl/4.4.3/../../../../x86_64-nacl/lib/../lib64/libnacl.a(nacl_irt_6de1d53f.o)

Discarded input sections

 .note.GNU-stack
                0x0000000000000000        0x0 /Users/stevefar/nacl_sdk/pepper_45/toolchain/mac_x86_newlib/bin/../lib/gcc/x86_64-nacl/4.4.3/crtbegin.o
 .group         0x0000000000000000        0x8 newlib/Release/multi_platform_x86_64.o
 .group         0x0000000000000000        0x8 newlib/Release/multi_platform_x86_64.o
 .group         0x0000000000000000        0x8 newlib/Release/multi_platform_x86_64.o
 .group         0x0000000000000000        0x8 newlib/Release/multi_platform_x86_64.o
 .group         0x0000000000000000        0x8 newlib/Release/multi_platform_x86_64.o
 .group         0x0000000000000000        0x8 newlib/Release/multi_platform_x86_64.o
 .group         0x0000000000000000        0x8 newlib/Release/multi_platform_x86_64.o
 .group         0x0000000000000000        0x8 newlib/Release/multi_platform_x86_64.o
 .group         0x0000000000000000        0x8 newlib/Release/multi_platform_x86_64.o
 .group         0x0000000000000000        0x8 newlib/Release/multi_platform_x86_64.o
 .group         0x0000000000000000        0x8 newlib/Release/multi_platform_x86_64.o
 .group         0x0000000000000000        0x8 newlib/Release/multi_platform_x86_64.o
 .note.GNU-stack
                0x0000000000000000        0x0 newlib/Release/multi_platform_x86_64.o
 .group         0x0000000000000000        0x8 /Users/stevefar/nacl_sdk/pepper_45/lib/newlib_x86_64/Release/libppapi_cpp.a(instance_x86_64.o)
 .group         0x0000000000000000        0x8 /Users/stevefar/nacl_sdk/pepper_45/lib/newlib_x86_64/Release/libppapi_cpp.a(instance_x86_64.o)
 .group         0x0000000000000000        0x8 /Users/stevefar/nacl_sdk/pepper_45/lib/newlib_x86_64/Release/libppapi_cpp.a(instance_x86_64.o)
 .group         0x0000000000000000        0x8 /Users/stevefar/nacl_sdk/pepper_45/lib/newlib_x86_64/Release/libppapi_cpp.a(instance_x86_64.o)
 .group         0x0000000000000000        0x8 /Users/stevefar/nacl_sdk/pepper_45/lib/newlib_x86_64/Release/libppapi_cpp.a(instance_x86_64.o)
 .group         0x0000000000000000        0x8 /Users/stevefar/nacl_sdk/pepper_45/lib/newlib_x86_64/Release/libppapi_cpp.a(instance_x86_64.o)
 .group         0x0000000000000000        0x8 /Users/stevefar/nacl_sdk/pepper_45/lib/newlib_x86_64/Release/libppapi_cpp.a(instance_x86_64.o)
 .note.GNU-stack
                0x0000000000000000        0x0 /Users/stevefar/nacl_sdk/pepper_45/lib/newlib_x86_64/Release/libppapi_cpp.a(instance_x86_64.o)
 .group         0x0000000000000000        0x8 /Users/stevefar/nacl_sdk/pepper_45/lib/newlib_x86_64/Release/libppapi_cpp.a(module_x86_64.o)
 .group         0x0000000000000000        0x8 /Users/stevefar/nacl_sdk/pepper_45/lib/newlib_x86_64/Release/libppapi_cpp.a(module_x86_64.o)
 .group         0x0000000000000000        0x8 /Users/stevefar/nacl_sdk/pepper_45/lib/newlib_x86_64/Release/libppapi_cpp.a(module_x86_64.o)
 .group         0x0000000000000000        0x8 /Users/stevefar/nacl_sdk/pepper_45/lib/newlib_x86_64/Release/libppapi_cpp.a(module_x86_64.o)
 .group         0x0000000000000000        0x8 /Users/stevefar/nacl_sdk/pepper_45/lib/newlib_x86_64/Release/libppapi_cpp.a(module_x86_64.o)
 .group         0x0000000000000000        0x8 /Users/stevefar/nacl_sdk/pepper_45/lib/newlib_x86_64/Release/libppapi_cpp.a(module_x86_64.o)
 .group         0x0000000000000000        0x8 /Users/stevefar/nacl_sdk/pepper_45/lib/newlib_x86_64/Release/libppapi_cpp.a(module_x86_64.o)
 .group         0x0000000000000000        0x8 /Users/stevefar/nacl_sdk/pepper_45/lib/newlib_x86_64/Release/libppapi_cpp.a(module_x86_64.o)
 .group         0x0000000000000000        0x8 /Users/stevefar/nacl_sdk/pepper_45/lib/newlib_x86_64/Release/libppapi_cpp.a(module_x86_64.o)
 .group         0x0000000000000000        0x8 /Users/stevefar/nacl_sdk/pepper_45/lib/newlib_x86_64/Release/libppapi_cpp.a(module_x86_64.o)
 .group         0x0000000000000000        0x8 /Users/stevefar/nacl_sdk/pepper_45/lib/newlib_x86_64/Release/libppapi_cpp.a(module_x86_64.o)
 .group         0x0000000000000000        0x8 /Users/stevefar/nacl_sdk/pepper_45/lib/newlib_x86_64/Release/libppapi_cpp.a(module_x86_64.o)
 .group         0x0000000000000000        0x8 /Users/stevefar/nacl_sdk/pepper_45/lib/newlib_x86_64/Release/libppapi_cpp.a(module_x86_64.o)
 .group         0x0000000000000000        0x8 /Users/stevefar/nacl_sdk/pepper_45/lib/newlib_x86_64/Release/libppapi_cpp.a(module_x86_64.o)
 .group         0x0000000000000000        0x8 /Users/stevefar/nacl_sdk/pepper_45/lib/newlib_x86_64/Release/libppapi_cpp.a(module_x86_64.o)
 .group         0x0000000000000000        0x8 /Users/stevefar/nacl_sdk/pepper_45/lib/newlib_x86_64/Release/libppapi_cpp.a(module_x86_64.o)
 .group         0x0000000000000000        0x8 /Users/stevefar/nacl_sdk/pepper_45/lib/newlib_x86_64/Release/libppapi_cpp.a(module_x86_64.o)
 .group         0x0000000000000000        0x8 /Users/stevefar/nacl_sdk/pepper_45/lib/newlib_x86_64/Release/libppapi_cpp.a(module_x86_64.o)
 .group         0x0000000000000000        0x8 /Users/stevefar/nacl_sdk/pepper_45/lib/newlib_x86_64/Release/libppapi_cpp.a(module_x86_64.o)
 .group         0x0000000000000000        0x8 /Users/stevefar/nacl_sdk/pepper_45/lib/newlib_x86_64/Release/libppapi_cpp.a(module_x86_64.o)
 .group         0x0000000000000000        0x8 /Users/stevefar/nacl_sdk/pepper_45/lib/newlib_x86_64/Release/libppapi_cpp.a(module_x86_64.o)
 .note.GNU-stack
                0x0000000000000000        0x0 /Users/stevefar/nacl_sdk/pepper_45/lib/newlib_x86_64/Release/libppapi_cpp.a(module_x86_64.o)
 .note.GNU-stack
                0x0000000000000000        0x0 /Users/stevefar/nacl_sdk/pepper_45/lib/newlib_x86_64/Release/libppapi_cpp.a(ppp_entrypoints_x86_64.o)
 .group         0x0000000000000000        0x8 /Users/stevefar/nacl_sdk/pepper_45/lib/newlib_x86_64/Release/libppapi_cpp.a(resource_x86_64.o)
 .group         0x0000000000000000        0x8 /Users/stevefar/nacl_sdk/pepper_45/lib/newlib_x86_64/Release/libppapi_cpp.a(resource_x86_64.o)
 .group         0x0000000000000000        0x8 /Users/stevefar/nacl_sdk/pepper_45/lib/newlib_x86_64/Release/libppapi_cpp.a(resource_x86_64.o)
 .note.GNU-stack
                0x0000000000000000        0x0 /Users/stevefar/nacl_sdk/pepper_45/lib/newlib_x86_64/Release/libppapi_cpp.a(resource_x86_64.o)
 .group         0x0000000000000000        0x8 /Users/stevefar/nacl_sdk/pepper_45/lib/newlib_x86_64/Release/libppapi_cpp.a(url_loader_x86_64.o)
 .group         0x0000000000000000        0x8 /Users/stevefar/nacl_sdk/pepper_45/lib/newlib_x86_64/Release/libppapi_cpp.a(url_loader_x86_64.o)
 .group         0x0000000000000000        0x8 /Users/stevefar/nacl_sdk/pepper_45/lib/newlib_x86_64/Release/libppapi_cpp.a(url_loader_x86_64.o)
 .group         0x0000000000000000        0x8 /Users/stevefar/nacl_sdk/pepper_45/lib/newlib_x86_64/Release/libppapi_cpp.a(url_loader_x86_64.o)
 .group         0x0000000000000000        0x8 /Users/stevefar/nacl_sdk/pepper_45/lib/newlib_x86_64/Release/libppapi_cpp.a(url_loader_x86_64.o)
 .group         0x0000000000000000        0x8 /Users/stevefar/nacl_sdk/pepper_45/lib/newlib_x86_64/Release/libppapi_cpp.a(url_loader_x86_64.o)
 .group         0x0000000000000000        0x8 /Users/stevefar/nacl_sdk/pepper_45/lib/newlib_x86_64/Release/libppapi_cpp.a(url_loader_x86_64.o)
 .group         0x0000000000000000        0x8 /Users/stevefar/nacl_sdk/pepper_45/lib/newlib_x86_64/Release/libppapi_cpp.a(url_loader_x86_64.o)
 .group         0x0000000000000000        0x8 /Users/stevefar/nacl_sdk/pepper_45/lib/newlib_x86_64/Release/libppapi_cpp.a(url_loader_x86_64.o)
 .group         0x0000000000000000        0x8 /Users/stevefar/nacl_sdk/pepper_45/lib/newlib_x86_64/Release/libppapi_cpp.a(url_loader_x86_64.o)
 .text._ZN2pp9URLLoaderD1Ev
                0x0000000000000000       0x20 /Users/stevefar/nacl_sdk/pepper_45/lib/newlib_x86_64/Release/libppapi_cpp.a(url_loader_x86_64.o)
 .text._ZN2pp9URLLoaderD0Ev
                0x0000000000000000       0x40 /Users/stevefar/nacl_sdk/pepper_45/lib/newlib_x86_64/Release/libppapi_cpp.a(url_loader_x86_64.o)
 .rodata._ZTVN2pp9URLLoaderE
                0x0000000000000000       0x10 /Users/stevefar/nacl_sdk/pepper_45/lib/newlib_x86_64/Release/libppapi_cpp.a(url_loader_x86_64.o)
 .rodata._ZTIN2pp9URLLoaderE
                0x0000000000000000        0xc /Users/stevefar/nacl_sdk/pepper_45/lib/newlib_x86_64/Release/libppapi_cpp.a(url_loader_x86_64.o)
 .rodata._ZTSN2pp9URLLoaderE
                0x0000000000000000       0x10 /Users/stevefar/nacl_sdk/pepper_45/lib/newlib_x86_64/Release/libppapi_cpp.a(url_loader_x86_64.o)
 .note.GNU-stack
                0x0000000000000000        0x0 /Users/stevefar/nacl_sdk/pepper_45/lib/newlib_x86_64/Release/libppapi_cpp.a(url_loader_x86_64.o)
 .group         0x0000000000000000        0x8 /Users/stevefar/nacl_sdk/pepper_45/lib/newlib_x86_64/Release/libppapi_cpp.a(url_response_info_x86_64.o)
 .group         0x0000000000000000        0x8 /Users/stevefar/nacl_sdk/pepper_45/lib/newlib_x86_64/Release/libppapi_cpp.a(url_response_info_x86_64.o)
 .group         0x0000000000000000        0x8 /Users/stevefar/nacl_sdk/pepper_45/lib/newlib_x86_64/Release/libppapi_cpp.a(url_response_info_x86_64.o)
 .group         0x0000000000000000        0x8 /Users/stevefar/nacl_sdk/pepper_45/lib/newlib_x86_64/Release/libppapi_cpp.a(url_response_info_x86_64.o)
 .group         0x0000000000000000        0x8 /Users/stevefar/nacl_sdk/pepper_45/lib/newlib_x86_64/Release/libppapi_cpp.a(url_response_info_x86_64.o)
 .group         0x0000000000000000        0x8 /Users/stevefar/nacl_sdk/pepper_45/lib/newlib_x86_64/Release/libppapi_cpp.a(url_response_info_x86_64.o)
 .group         0x0000000000000000        0x8 /Users/stevefar/nacl_sdk/pepper_45/lib/newlib_x86_64/Release/libppapi_cpp.a(url_response_info_x86_64.o)
 .group         0x0000000000000000        0x8 /Users/stevefar/nacl_sdk/pepper_45/lib/newlib_x86_64/Release/libppapi_cpp.a(url_response_info_x86_64.o)
 .group         0x0000000000000000        0x8 /Users/stevefar/nacl_sdk/pepper_45/lib/newlib_x86_64/Release/libppapi_cpp.a(url_response_info_x86_64.o)
 .group         0x0000000000000000        0x8 /Users/stevefar/nacl_sdk/pepper_45/lib/newlib_x86_64/Release/libppapi_cpp.a(url_response_info_x86_64.o)
 .text._ZN2pp15URLResponseInfoD1Ev
                0x0000000000000000       0x20 /Users/stevefar/nacl_sdk/pepper_45/lib/newlib_x86_64/Release/libppapi_cpp.a(url_response_info_x86_64.o)
 .text._ZN2pp15URLResponseInfoD0Ev
                0x0000000000000000       0x40 /Users/stevefar/nacl_sdk/pepper_45/lib/newlib_x86_64/Release/libppapi_cpp.a(url_response_info_x86_64.o)
 .rodata._ZTVN2pp15URLResponseInfoE
                0x0000000000000000       0x10 /Users/stevefar/nacl_sdk/pepper_45/lib/newlib_x86_64/Release/libppapi_cpp.a(url_response_info_x86_64.o)
 .rodata._ZTIN2pp15URLResponseInfoE
                0x0000000000000000        0xc /Users/stevefar/nacl_sdk/pepper_45/lib/newlib_x86_64/Release/libppapi_cpp.a(url_response_info_x86_64.o)
 .rodata._ZTSN2pp15URLResponseInfoE
                0x0000000000000000       0x17 /Users/stevefar/nacl_sdk/pepper_45/lib/newlib_x86_64/Release/libppapi_cpp.a(url_response_info_x86_64.o)
 .note.GNU-stack
                0x0000000000000000        0x0 /Users/stevefar/nacl_sdk/pepper_45/lib/newlib_x86_64/Release/libppapi_cpp.a(url_response_info_x86_64.o)
 .group         0x0000000000000000        0x8 /Users/stevefar/nacl_sdk/pepper_45/lib/newlib_x86_64/Release/libppapi_cpp.a(var_x86_64.o)
 .group         0x0000000000000000        0x8 /Users/stevefar/nacl_sdk/pepper_45/lib/newlib_x86_64/Release/libppapi_cpp.a(var_x86_64.o)
 .group         0x0000000000000000        0x8 /Users/stevefar/nacl_sdk/pepper_45/lib/newlib_x86_64/Release/libppapi_cpp.a(var_x86_64.o)
 .note.GNU-stack
                0x0000000000000000        0x0 /Users/stevefar/nacl_sdk/pepper_45/lib/newlib_x86_64/Release/libppapi_cpp.a(var_x86_64.o)
 .group         0x0000000000000000        0x8 /Users/stevefar/nacl_sdk/pepper_45/lib/newlib_x86_64/Release/libppapi_cpp.a(view_x86_64.o)
 .group         0x0000000000000000        0x8 /Users/stevefar/nacl_sdk/pepper_45/lib/newlib_x86_64/Release/libppapi_cpp.a(view_x86_64.o)
 .group         0x0000000000000000        0x8 /Users/stevefar/nacl_sdk/pepper_45/lib/newlib_x86_64/Release/libppapi_cpp.a(view_x86_64.o)
 .group         0x0000000000000000        0x8 /Users/stevefar/nacl_sdk/pepper_45/lib/newlib_x86_64/Release/libppapi_cpp.a(view_x86_64.o)
 .group         0x0000000000000000        0x8 /Users/stevefar/nacl_sdk/pepper_45/lib/newlib_x86_64/Release/libppapi_cpp.a(view_x86_64.o)
 .text._ZN2pp4ViewD1Ev
                0x0000000000000000       0x20 /Users/stevefar/nacl_sdk/pepper_45/lib/newlib_x86_64/Release/libppapi_cpp.a(view_x86_64.o)
 .text._ZN2pp4ViewD0Ev
                0x0000000000000000       0x40 /Users/stevefar/nacl_sdk/pepper_45/lib/newlib_x86_64/Release/libppapi_cpp.a(view_x86_64.o)
 .rodata._ZTVN2pp4ViewE
                0x0000000000000000       0x10 /Users/stevefar/nacl_sdk/pepper_45/lib/newlib_x86_64/Release/libppapi_cpp.a(view_x86_64.o)
 .rodata._ZTIN2pp4ViewE
                0x0000000000000000        0xc /Users/stevefar/nacl_sdk/pepper_45/lib/newlib_x86_64/Release/libppapi_cpp.a(view_x86_64.o)
 .rodata._ZTSN2pp4ViewE
                0x0000000000000000        0xb /Users/stevefar/nacl_sdk/pepper_45/lib/newlib_x86_64/Release/libppapi_cpp.a(view_x86_64.o)
 .note.GNU-stack
                0x0000000000000000        0x0 /Users/stevefar/nacl_sdk/pepper_45/lib/newlib_x86_64/Release/libppapi_cpp.a(view_x86_64.o)
 .note.GNU-stack
                0x0000000000000000        0x0 /Users/stevefar/nacl_sdk/pepper_45/lib/newlib_x86_64/Release/libppapi_cpp.a(core_x86_64.o)
 .group         0x0000000000000000        0x8 /Users/stevefar/nacl_sdk/pepper_45/lib/newlib_x86_64/Release/libppapi_cpp.a(file_ref_x86_64.o)
 .group         0x0000000000000000        0x8 /Users/stevefar/nacl_sdk/pepper_45/lib/newlib_x86_64/Release/libppapi_cpp.a(file_ref_x86_64.o)
 .group         0x0000000000000000        0x8 /Users/stevefar/nacl_sdk/pepper_45/lib/newlib_x86_64/Release/libppapi_cpp.a(file_ref_x86_64.o)
 .group         0x0000000000000000        0x8 /Users/stevefar/nacl_sdk/pepper_45/lib/newlib_x86_64/Release/libppapi_cpp.a(file_ref_x86_64.o)
 .group         0x0000000000000000        0x8 /Users/stevefar/nacl_sdk/pepper_45/lib/newlib_x86_64/Release/libppapi_cpp.a(file_ref_x86_64.o)
 .group         0x0000000000000000        0x8 /Users/stevefar/nacl_sdk/pepper_45/lib/newlib_x86_64/Release/libppapi_cpp.a(file_ref_x86_64.o)
 .text._ZN2pp7FileRefD1Ev
                0x0000000000000000       0x20 /Users/stevefar/nacl_sdk/pepper_45/lib/newlib_x86_64/Release/libppapi_cpp.a(file_ref_x86_64.o)
 .text._ZN2pp7FileRefD0Ev
                0x0000000000000000       0x40 /Users/stevefar/nacl_sdk/pepper_45/lib/newlib_x86_64/Release/libppapi_cpp.a(file_ref_x86_64.o)
 .rodata._ZTVN2pp7FileRefE
                0x0000000000000000       0x10 /Users/stevefar/nacl_sdk/pepper_45/lib/newlib_x86_64/Release/libppapi_cpp.a(file_ref_x86_64.o)
 .rodata._ZTIN2pp7FileRefE
                0x0000000000000000        0xc /Users/stevefar/nacl_sdk/pepper_45/lib/newlib_x86_64/Release/libppapi_cpp.a(file_ref_x86_64.o)
 .rodata._ZTSN2pp7FileRefE
                0x0000000000000000        0xe /Users/stevefar/nacl_sdk/pepper_45/lib/newlib_x86_64/Release/libppapi_cpp.a(file_ref_x86_64.o)
 .note.GNU-stack
                0x0000000000000000        0x0 /Users/stevefar/nacl_sdk/pepper_45/lib/newlib_x86_64/Release/libppapi_cpp.a(file_ref_x86_64.o)
 .group         0x0000000000000000        0x8 /Users/stevefar/nacl_sdk/pepper_45/lib/newlib_x86_64/Release/libppapi_cpp.a(input_event_x86_64.o)
 .group         0x0000000000000000        0x8 /Users/stevefar/nacl_sdk/pepper_45/lib/newlib_x86_64/Release/libppapi_cpp.a(input_event_x86_64.o)
 .group         0x0000000000000000        0x8 /Users/stevefar/nacl_sdk/pepper_45/lib/newlib_x86_64/Release/libppapi_cpp.a(input_event_x86_64.o)
 .group         0x0000000000000000        0x8 /Users/stevefar/nacl_sdk/pepper_45/lib/newlib_x86_64/Release/libppapi_cpp.a(input_event_x86_64.o)
 .group         0x0000000000000000        0x8 /Users/stevefar/nacl_sdk/pepper_45/lib/newlib_x86_64/Release/libppapi_cpp.a(input_event_x86_64.o)
 .group         0x0000000000000000        0x8 /Users/stevefar/nacl_sdk/pepper_45/lib/newlib_x86_64/Release/libppapi_cpp.a(input_event_x86_64.o)
 .group         0x0000000000000000        0x8 /Users/stevefar/nacl_sdk/pepper_45/lib/newlib_x86_64/Release/libppapi_cpp.a(input_event_x86_64.o)
 .group         0x0000000000000000        0x8 /Users/stevefar/nacl_sdk/pepper_45/lib/newlib_x86_64/Release/libppapi_cpp.a(input_event_x86_64.o)
 .group         0x0000000000000000        0x8 /Users/stevefar/nacl_sdk/pepper_45/lib/newlib_x86_64/Release/libppapi_cpp.a(input_event_x86_64.o)
 .group         0x0000000000000000        0x8 /Users/stevefar/nacl_sdk/pepper_45/lib/newlib_x86_64/Release/libppapi_cpp.a(input_event_x86_64.o)
 .group         0x0000000000000000        0x8 /Users/stevefar/nacl_sdk/pepper_45/lib/newlib_x86_64/Release/libppapi_cpp.a(input_event_x86_64.o)
 .group         0x0000000000000000        0x8 /Users/stevefar/nacl_sdk/pepper_45/lib/newlib_x86_64/Release/libppapi_cpp.a(input_event_x86_64.o)
 .group         0x0000000000000000        0x8 /Users/stevefar/nacl_sdk/pepper_45/lib/newlib_x86_64/Release/libppapi_cpp.a(input_event_x86_64.o)
 .group         0x0000000000000000        0x8 /Users/stevefar/nacl_sdk/pepper_45/lib/newlib_x86_64/Release/libppapi_cpp.a(input_event_x86_64.o)
 .group         0x0000000000000000        0x8 /Users/stevefar/nacl_sdk/pepper_45/lib/newlib_x86_64/Release/libppapi_cpp.a(input_event_x86_64.o)
 .group         0x0000000000000000        0x8 /Users/stevefar/nacl_sdk/pepper_45/lib/newlib_x86_64/Release/libppapi_cpp.a(input_event_x86_64.o)
 .group         0x0000000000000000        0x8 /Users/stevefar/nacl_sdk/pepper_45/lib/newlib_x86_64/Release/libppapi_cpp.a(input_event_x86_64.o)
 .group         0x0000000000000000        0x8 /Users/stevefar/nacl_sdk/pepper_45/lib/newlib_x86_64/Release/libppapi_cpp.a(input_event_x86_64.o)
 .group         0x0000000000000000        0x8 /Users/stevefar/nacl_sdk/pepper_45/lib/newlib_x86_64/Release/libppapi_cpp.a(input_event_x86_64.o)
 .group         0x0000000000000000        0x8 /Users/stevefar/nacl_sdk/pepper_45/lib/newlib_x86_64/Release/libppapi_cpp.a(input_event_x86_64.o)
 .group         0x0000000000000000        0x8 /Users/stevefar/nacl_sdk/pepper_45/lib/newlib_x86_64/Release/libppapi_cpp.a(input_event_x86_64.o)
 .group         0x0000000000000000        0x8 /Users/stevefar/nacl_sdk/pepper_45/lib/newlib_x86_64/Release/libppapi_cpp.a(input_event_x86_64.o)
 .group         0x0000000000000000        0x8 /Users/stevefar/nacl_sdk/pepper_45/lib/newlib_x86_64/Release/libppapi_cpp.a(input_event_x86_64.o)
 .group         0x0000000000000000        0x8 /Users/stevefar/nacl_sdk/pepper_45/lib/newlib_x86_64/Release/libppapi_cpp.a(input_event_x86_64.o)
 .group         0x0000000000000000        0x8 /Users/stevefar/nacl_sdk/pepper_45/lib/newlib_x86_64/Release/libppapi_cpp.a(input_event_x86_64.o)
 .group         0x0000000000000000        0x8 /Users/stevefar/nacl_sdk/pepper_45/lib/newlib_x86_64/Release/libppapi_cpp.a(input_event_x86_64.o)
 .group         0x0000000000000000        0x8 /Users/stevefar/nacl_sdk/pepper_45/lib/newlib_x86_64/Release/libppapi_cpp.a(input_event_x86_64.o)
 .group         0x0000000000000000        0x8 /Users/stevefar/nacl_sdk/pepper_45/lib/newlib_x86_64/Release/libppapi_cpp.a(input_event_x86_64.o)
 .note.GNU-stack
                0x0000000000000000        0x0 /Users/stevefar/nacl_sdk/pepper_45/lib/newlib_x86_64/Release/libppapi_cpp.a(input_event_x86_64.o)
 .note.GNU-stack
                0x0000000000000000        0x0 /Users/stevefar/nacl_sdk/pepper_45/toolchain/mac_x86_newlib/bin/../lib/gcc/x86_64-nacl/4.4.3/../../../../x86_64-nacl/lib/../lib64/libppapi_stub.a(plugin_main_irt_21ce9d26.o)
 .note.GNU-stack
                0x0000000000000000        0x0 /Users/stevefar/nacl_sdk/pepper_45/toolchain/mac_x86_newlib/bin/../lib/gcc/x86_64-nacl/4.4.3/../../../../x86_64-nacl/lib/../lib64/libppapi_stub.a(ppapi_plugin_main_399d0cf7.o)
 .note.GNU-stack
                0x0000000000000000        0x0 /Users/stevefar/nacl_sdk/pepper_45/toolchain/mac_x86_newlib/bin/../lib/gcc/x86_64-nacl/4.4.3/../../../../x86_64-nacl/lib/../lib64/libppapi_stub.a(ppapi_plugin_start_8da67623.o)
 .note.GNU-stack
                0x0000000000000000        0x0 /Users/stevefar/nacl_sdk/pepper_45/toolchain/mac_x86_newlib/bin/../lib/gcc/x86_64-nacl/4.4.3/../../../../x86_64-nacl/lib/../lib64/libppapi_stub.a(thread_creator_ccf263e1.o)
 .note.GNU-stack
                0x0000000000000000        0x0 /Users/stevefar/nacl_sdk/pepper_45/toolchain/mac_x86_newlib/bin/../lib/gcc/x86_64-nacl/4.4.3/../../../../x86_64-nacl/lib/../lib64/libpthread.a(nc_thread_7e478b15.o)
 .note.GNU-stack
                0x0000000000000000        0x0 /Users/stevefar/nacl_sdk/pepper_45/toolchain/mac_x86_newlib/bin/../lib/gcc/x86_64-nacl/4.4.3/../../../../x86_64-nacl/lib/../lib64/libpthread.a(nc_condvar_305aa45a.o)
 .note.GNU-stack
                0x0000000000000000        0x0 /Users/stevefar/nacl_sdk/pepper_45/toolchain/mac_x86_newlib/bin/../lib/gcc/x86_64-nacl/4.4.3/../../../../x86_64-nacl/lib/../lib64/libpthread.a(dynamic_annotations_33ba59cc.o)
 .note.GNU-stack
                0x0000000000000000        0x0 /Users/stevefar/nacl_sdk/pepper_45/toolchain/mac_x86_newlib/bin/../lib/gcc/x86_64-nacl/4.4.3/../../../../x86_64-nacl/lib/../lib64/libpthread.a(nc_mutex_86341ae1.o)
 .note.GNU-stack
                0x0000000000000000        0x0 /Users/stevefar/nacl_sdk/pepper_45/toolchain/mac_x86_newlib/bin/../lib/gcc/x86_64-nacl/4.4.3/../../../../x86_64-nacl/lib/../lib64/libpthread.a(nc_init_irt_d3daafc0.o)
 .note.GNU-stack
                0x0000000000000000        0x0 /Users/stevefar/nacl_sdk/pepper_45/toolchain/mac_x86_newlib/bin/../lib/gcc/x86_64-nacl/4.4.3/../../../../x86_64-nacl/lib/../lib64/libstdc++.a(tree.o)
 .group         0x0000000000000000        0x8 /Users/stevefar/nacl_sdk/pepper_45/toolchain/mac_x86_newlib/bin/../lib/gcc/x86_64-nacl/4.4.3/../../../../x86_64-nacl/lib/../lib64/libstdc++.a(string-inst.o)
 .group         0x0000000000000000        0x8 /Users/stevefar/nacl_sdk/pepper_45/toolchain/mac_x86_newlib/bin/../lib/gcc/x86_64-nacl/4.4.3/../../../../x86_64-nacl/lib/../lib64/libstdc++.a(string-inst.o)
 .group         0x0000000000000000        0x8 /Users/stevefar/nacl_sdk/pepper_45/toolchain/mac_x86_newlib/bin/../lib/gcc/x86_64-nacl/4.4.3/../../../../x86_64-nacl/lib/../lib64/libstdc++.a(string-inst.o)
 .group         0x0000000000000000        0x8 /Users/stevefar/nacl_sdk/pepper_45/toolchain/mac_x86_newlib/bin/../lib/gcc/x86_64-nacl/4.4.3/../../../../x86_64-nacl/lib/../lib64/libstdc++.a(string-inst.o)
 .group         0x0000000000000000        0x8 /Users/stevefar/nacl_sdk/pepper_45/toolchain/mac_x86_newlib/bin/../lib/gcc/x86_64-nacl/4.4.3/../../../../x86_64-nacl/lib/../lib64/libstdc++.a(string-inst.o)
 .group         0x0000000000000000        0x8 /Users/stevefar/nacl_sdk/pepper_45/toolchain/mac_x86_newlib/bin/../lib/gcc/x86_64-nacl/4.4.3/../../../../x86_64-nacl/lib/../lib64/libstdc++.a(string-inst.o)
 .group         0x0000000000000000        0x8 /Users/stevefar/nacl_sdk/pepper_45/toolchain/mac_x86_newlib/bin/../lib/gcc/x86_64-nacl/4.4.3/../../../../x86_64-nacl/lib/../lib64/libstdc++.a(string-inst.o)
 .group         0x0000000000000000        0x8 /Users/stevefar/nacl_sdk/pepper_45/toolchain/mac_x86_newlib/bin/../lib/gcc/x86_64-nacl/4.4.3/../../../../x86_64-nacl/lib/../lib64/libstdc++.a(string-inst.o)
 .group         0x0000000000000000        0x8 /Users/stevefar/nacl_sdk/pepper_45/toolchain/mac_x86_newlib/bin/../lib/gcc/x86_64-nacl/4.4.3/../../../../x86_64-nacl/lib/../lib64/libstdc++.a(string-inst.o)
 .group         0x0000000000000000        0x8 /Users/stevefar/nacl_sdk/pepper_45/toolchain/mac_x86_newlib/bin/../lib/gcc/x86_64-nacl/4.4.3/../../../../x86_64-nacl/lib/../lib64/libstdc++.a(string-inst.o)
 .group         0x0000000000000000        0x8 /Users/stevefar/nacl_sdk/pepper_45/toolchain/mac_x86_newlib/bin/../lib/gcc/x86_64-nacl/4.4.3/../../../../x86_64-nacl/lib/../lib64/libstdc++.a(string-inst.o)
 .group         0x0000000000000000        0x8 /Users/stevefar/nacl_sdk/pepper_45/toolchain/mac_x86_newlib/bin/../lib/gcc/x86_64-nacl/4.4.3/../../../../x86_64-nacl/lib/../lib64/libstdc++.a(string-inst.o)
 .group         0x0000000000000000        0x8 /Users/stevefar/nacl_sdk/pepper_45/toolchain/mac_x86_newlib/bin/../lib/gcc/x86_64-nacl/4.4.3/../../../../x86_64-nacl/lib/../lib64/libstdc++.a(string-inst.o)
 .group         0x0000000000000000        0x8 /Users/stevefar/nacl_sdk/pepper_45/toolchain/mac_x86_newlib/bin/../lib/gcc/x86_64-nacl/4.4.3/../../../../x86_64-nacl/lib/../lib64/libstdc++.a(string-inst.o)
 .group         0x0000000000000000        0x8 /Users/stevefar/nacl_sdk/pepper_45/toolchain/mac_x86_newlib/bin/../lib/gcc/x86_64-nacl/4.4.3/../../../../x86_64-nacl/lib/../lib64/libstdc++.a(string-inst.o)
 .group         0x0000000000000000        0x8 /Users/stevefar/nacl_sdk/pepper_45/toolchain/mac_x86_newlib/bin/../lib/gcc/x86_64-nacl/4.4.3/../../../../x86_64-nacl/lib/../lib64/libstdc++.a(string-inst.o)
 .group         0x0000000000000000        0x8 /Users/stevefar/nacl_sdk/pepper_45/toolchain/mac_x86_newlib/bin/../lib/gcc/x86_64-nacl/4.4.3/../../../../x86_64-nacl/lib/../lib64/libstdc++.a(string-inst.o)
 .group         0x0000000000000000        0x8 /Users/stevefar/nacl_sdk/pepper_45/toolchain/mac_x86_newlib/bin/../lib/gcc/x86_64-nacl/4.4.3/../../../../x86_64-nacl/lib/../lib64/libstdc++.a(string-inst.o)
 .group         0x0000000000000000        0x8 /Users/stevefar/nacl_sdk/pepper_45/toolchain/mac_x86_newlib/bin/../lib/gcc/x86_64-nacl/4.4.3/../../../../x86_64-nacl/lib/../lib64/libstdc++.a(string-inst.o)
 .group         0x0000000000000000        0x8 /Users/stevefar/nacl_sdk/pepper_45/toolchain/mac_x86_newlib/bin/../lib/gcc/x86_64-nacl/4.4.3/../../../../x86_64-nacl/lib/../lib64/libstdc++.a(string-inst.o)
 .group         0x0000000000000000        0x8 /Users/stevefar/nacl_sdk/pepper_45/toolchain/mac_x86_newlib/bin/../lib/gcc/x86_64-nacl/4.4.3/../../../../x86_64-nacl/lib/../lib64/libstdc++.a(string-inst.o)
 .group         0x0000000000000000        0x8 /Users/stevefar/nacl_sdk/pepper_45/toolchain/mac_x86_newlib/bin/../lib/gcc/x86_64-nacl/4.4.3/../../../../x86_64-nacl/lib/../lib64/libstdc++.a(string-inst.o)
 .group         0x0000000000000000        0x8 /Users/stevefar/nacl_sdk/pepper_45/toolchain/mac_x86_newlib/bin/../lib/gcc/x86_64-nacl/4.4.3/../../../../x86_64-nacl/lib/../lib64/libstdc++.a(string-inst.o)
 .group         0x0000000000000000        0x8 /Users/stevefar/nacl_sdk/pepper_45/toolchain/mac_x86_newlib/bin/../lib/gcc/x86_64-nacl/4.4.3/../../../../x86_64-nacl/lib/../lib64/libstdc++.a(string-inst.o)
 .group         0x0000000000000000        0x8 /Users/stevefar/nacl_sdk/pepper_45/toolchain/mac_x86_newlib/bin/../lib/gcc/x86_64-nacl/4.4.3/../../../../x86_64-nacl/lib/../lib64/libstdc++.a(string-inst.o)
 .group         0x0000000000000000        0x8 /Users/stevefar/nacl_sdk/pepper_45/toolchain/mac_x86_newlib/bin/../lib/gcc/x86_64-nacl/4.4.3/../../../../x86_64-nacl/lib/../lib64/libstdc++.a(string-inst.o)
 .group         0x0000000000000000        0x8 /Users/stevefar/nacl_sdk/pepper_45/toolchain/mac_x86_newlib/bin/../lib/gcc/x86_64-nacl/4.4.3/../../../../x86_64-nacl/lib/../lib64/libstdc++.a(string-inst.o)
 .group         0x0000000000000000        0x8 /Users/stevefar/nacl_sdk/pepper_45/toolchain/mac_x86_newlib/bin/../lib/gcc/x86_64-nacl/4.4.3/../../../../x86_64-nacl/lib/../lib64/libstdc++.a(string-inst.o)
 .group         0x0000000000000000        0x8 /Users/stevefar/nacl_sdk/pepper_45/toolchain/mac_x86_newlib/bin/../lib/gcc/x86_64-nacl/4.4.3/../../../../x86_64-nacl/lib/../lib64/libstdc++.a(string-inst.o)
 .group         0x0000000000000000        0x8 /Users/stevefar/nacl_sdk/pepper_45/toolchain/mac_x86_newlib/bin/../lib/gcc/x86_64-nacl/4.4.3/../../../../x86_64-nacl/lib/../lib64/libstdc++.a(string-inst.o)
 .group         0x0000000000000000        0x8 /Users/stevefar/nacl_sdk/pepper_45/toolchain/mac_x86_newlib/bin/../lib/gcc/x86_64-nacl/4.4.3/../../../../x86_64-nacl/lib/../lib64/libstdc++.a(string-inst.o)
 .group         0x0000000000000000        0x8 /Users/stevefar/nacl_sdk/pepper_45/toolchain/mac_x86_newlib/bin/../lib/gcc/x86_64-nacl/4.4.3/../../../../x86_64-nacl/lib/../lib64/libstdc++.a(string-inst.o)
 .group         0x0000000000000000        0x8 /Users/stevefar/nacl_sdk/pepper_45/toolchain/mac_x86_newlib/bin/../lib/gcc/x86_64-nacl/4.4.3/../../../../x86_64-nacl/lib/../lib64/libstdc++.a(string-inst.o)
 .group         0x0000000000000000        0x8 /Users/stevefar/nacl_sdk/pepper_45/toolchain/mac_x86_newlib/bin/../lib/gcc/x86_64-nacl/4.4.3/../../../../x86_64-nacl/lib/../lib64/libstdc++.a(string-inst.o)
 .group         0x0000000000000000        0x8 /Users/stevefar/nacl_sdk/pepper_45/toolchain/mac_x86_newlib/bin/../lib/gcc/x86_64-nacl/4.4.3/../../../../x86_64-nacl/lib/../lib64/libstdc++.a(string-inst.o)
 .group         0x0000000000000000        0x8 /Users/stevefar/nacl_sdk/pepper_45/toolchain/mac_x86_newlib/bin/../lib/gcc/x86_64-nacl/4.4.3/../../../../x86_64-nacl/lib/../lib64/libstdc++.a(string-inst.o)
 .group         0x0000000000000000        0x8 /Users/stevefar/nacl_sdk/pepper_45/toolchain/mac_x86_newlib/bin/../lib/gcc/x86_64-nacl/4.4.3/../../../../x86_64-nacl/lib/../lib64/libstdc++.a(string-inst.o)
 .group         0x0000000000000000        0x8 /Users/stevefar/nacl_sdk/pepper_45/toolchain/mac_x86_newlib/bin/../lib/gcc/x86_64-nacl/4.4.3/../../../../x86_64-nacl/lib/../lib64/libstdc++.a(string-inst.o)
 .group         0x0000000000000000        0x8 /Users/stevefar/nacl_sdk/pepper_45/toolchain/mac_x86_newlib/bin/../lib/gcc/x86_64-nacl/4.4.3/../../../../x86_64-nacl/lib/../lib64/libstdc++.a(string-inst.o)
 .group         0x0000000000000000        0x8 /Users/stevefar/nacl_sdk/pepper_45/toolchain/mac_x86_newlib/bin/../lib/gcc/x86_64-nacl/4.4.3/../../../../x86_64-nacl/lib/../lib64/libstdc++.a(string-inst.o)
 .group         0x0000000000000000        0x8 /Users/stevefar/nacl_sdk/pepper_45/toolchain/mac_x86_newlib/bin/../lib/gcc/x86_64-nacl/4.4.3/../../../../x86_64-nacl/lib/../lib64/libstdc++.a(string-inst.o)
 .group         0x0000000000000000        0x8 /Users/stevefar/nacl_sdk/pepper_45/toolchain/mac_x86_newlib/bin/../lib/gcc/x86_64-nacl/4.4.3/../../../../x86_64-nacl/lib/../lib64/libstdc++.a(string-inst.o)
 .group         0x0000000000000000        0x8 /Users/stevefar/nacl_sdk/pepper_45/toolchain/mac_x86_newlib/bin/../lib/gcc/x86_64-nacl/4.4.3/../../../../x86_64-nacl/lib/../lib64/libstdc++.a(string-inst.o)
 .group         0x0000000000000000        0x8 /Users/stevefar/nacl_sdk/pepper_45/toolchain/mac_x86_newlib/bin/../lib/gcc/x86_64-nacl/4.4.3/../../../../x86_64-nacl/lib/../lib64/libstdc++.a(string-inst.o)
 .group         0x0000000000000000        0x8 /Users/stevefar/nacl_sdk/pepper_45/toolchain/mac_x86_newlib/bin/../lib/gcc/x86_64-nacl/4.4.3/../../../../x86_64-nacl/lib/../lib64/libstdc++.a(string-inst.o)
 .group         0x0000000000000000        0x8 /Users/stevefar/nacl_sdk/pepper_45/toolchain/mac_x86_newlib/bin/../lib/gcc/x86_64-nacl/4.4.3/../../../../x86_64-nacl/lib/../lib64/libstdc++.a(string-inst.o)
 .group         0x0000000000000000        0x8 /Users/stevefar/nacl_sdk/pepper_45/toolchain/mac_x86_newlib/bin/../lib/gcc/x86_64-nacl/4.4.3/../../../../x86_64-nacl/lib/../lib64/libstdc++.a(string-inst.o)
 .group         0x0000000000000000        0x8 /Users/stevefar/nacl_sdk/pepper_45/toolchain/mac_x86_newlib/bin/../lib/gcc/x86_64-nacl/4.4.3/../../../../x86_64-nacl/lib/../lib64/libstdc++.a(string-inst.o)
 .group         0x0000000000000000        0x8 /Users/stevefar/nacl_sdk/pepper_45/toolchain/mac_x86_newlib/bin/../lib/gcc/x86_64-nacl/4.4.3/../../../../x86_64-nacl/lib/../lib64/libstdc++.a(string-inst.o)
 .group         0x0000000000000000        0x8 /Users/stevefar/nacl_sdk/pepper_45/toolchain/mac_x86_newlib/bin/../lib/gcc/x86_64-nacl/4.4.3/../../../../x86_64-nacl/lib/../lib64/libstdc++.a(string-inst.o)
 .group         0x0000000000000000        0x8 /Users/stevefar/nacl_sdk/pepper_45/toolchain/mac_x86_newlib/bin/../lib/gcc/x86_64-nacl/4.4.3/../../../../x86_64-nacl/lib/../lib64/libstdc++.a(string-inst.o)
 .group         0x0000000000000000        0x8 /Users/stevefar/nacl_sdk/pepper_45/toolchain/mac_x86_newlib/bin/../lib/gcc/x86_64-nacl/4.4.3/../../../../x86_64-nacl/lib/../lib64/libstdc++.a(string-inst.o)
 .group         0x0000000000000000        0x8 /Users/stevefar/nacl_sdk/pepper_45/toolchain/mac_x86_newlib/bin/../lib/gcc/x86_64-nacl/4.4.3/../../../../x86_64-nacl/lib/../lib64/libstdc++.a(string-inst.o)
 .group         0x0000000000000000        0x8 /Users/stevefar/nacl_sdk/pepper_45/toolchain/mac_x86_newlib/bin/../lib/gcc/x86_64-nacl/4.4.3/../../../../x86_64-nacl/lib/../lib64/libstdc++.a(string-inst.o)
 .group         0x0000000000000000        0x8 /Users/stevefar/nacl_sdk/pepper_45/toolchain/mac_x86_newlib/bin/../lib/gcc/x86_64-nacl/4.4.3/../../../../x86_64-nacl/lib/../lib64/libstdc++.a(string-inst.o)
 .group         0x0000000000000000        0x8 /Users/stevefar/nacl_sdk/pepper_45/toolchain/mac_x86_newlib/bin/../lib/gcc/x86_64-nacl/4.4.3/../../../../x86_64-nacl/lib/../lib64/libstdc++.a(string-inst.o)
 .group         0x0000000000000000        0x8 /Users/stevefar/nacl_sdk/pepper_45/toolchain/mac_x86_newlib/bin/../lib/gcc/x86_64-nacl/4.4.3/../../../../x86_64-nacl/lib/../lib64/libstdc++.a(string-inst.o)
 .group         0x0000000000000000        0x8 /Users/stevefar/nacl_sdk/pepper_45/toolchain/mac_x86_newlib/bin/../lib/gcc/x86_64-nacl/4.4.3/../../../../x86_64-nacl/lib/../lib64/libstdc++.a(string-inst.o)
 .group         0x0000000000000000        0x8 /Users/stevefar/nacl_sdk/pepper_45/toolchain/mac_x86_newlib/bin/../lib/gcc/x86_64-nacl/4.4.3/../../../../x86_64-nacl/lib/../lib64/libstdc++.a(string-inst.o)
 .group         0x0000000000000000        0x8 /Users/stevefar/nacl_sdk/pepper_45/toolchain/mac_x86_newlib/bin/../lib/gcc/x86_64-nacl/4.4.3/../../../../x86_64-nacl/lib/../lib64/libstdc++.a(string-inst.o)
 .group         0x0000000000000000        0x8 /Users/stevefar/nacl_sdk/pepper_45/toolchain/mac_x86_newlib/bin/../lib/gcc/x86_64-nacl/4.4.3/../../../../x86_64-nacl/lib/../lib64/libstdc++.a(string-inst.o)
 .group         0x0000000000000000        0x8 /Users/stevefar/nacl_sdk/pepper_45/toolchain/mac_x86_newlib/bin/../lib/gcc/x86_64-nacl/4.4.3/../../../../x86_64-nacl/lib/../lib64/libstdc++.a(string-inst.o)
 .group         0x0000000000000000        0x8 /Users/stevefar/nacl_sdk/pepper_45/toolchain/mac_x86_newlib/bin/../lib/gcc/x86_64-nacl/4.4.3/../../../../x86_64-nacl/lib/../lib64/libstdc++.a(string-inst.o)
 .group         0x0000000000000000        0x8 /Users/stevefar/nacl_sdk/pepper_45/toolchain/mac_x86_newlib/bin/../lib/gcc/x86_64-nacl/4.4.3/../../../../x86_64-nacl/lib/../lib64/libstdc++.a(string-inst.o)
 .group         0x0000000000000000        0x8 /Users/stevefar/nacl_sdk/pepper_45/toolchain/mac_x86_newlib/bin/../lib/gcc/x86_64-nacl/4.4.3/../../../../x86_64-nacl/lib/../lib64/libstdc++.a(string-inst.o)
 .group         0x0000000000000000        0x8 /Users/stevefar/nacl_sdk/pepper_45/toolchain/mac_x86_newlib/bin/../lib/gcc/x86_64-nacl/4.4.3/../../../../x86_64-nacl/lib/../lib64/libstdc++.a(string-inst.o)
 .group         0x0000000000000000        0x8 /Users/stevefar/nacl_sdk/pepper_45/toolchain/mac_x86_newlib/bin/../lib/gcc/x86_64-nacl/4.4.3/../../../../x86_64-nacl/lib/../lib64/libstdc++.a(string-inst.o)
 .group         0x0000000000000000        0x8 /Users/stevefar/nacl_sdk/pepper_45/toolchain/mac_x86_newlib/bin/../lib/gcc/x86_64-nacl/4.4.3/../../../../x86_64-nacl/lib/../lib64/libstdc++.a(string-inst.o)
 .group         0x0000000000000000        0x8 /Users/stevefar/nacl_sdk/pepper_45/toolchain/mac_x86_newlib/bin/../lib/gcc/x86_64-nacl/4.4.3/../../../../x86_64-nacl/lib/../lib64/libstdc++.a(string-inst.o)
 .group         0x0000000000000000        0x8 /Users/stevefar/nacl_sdk/pepper_45/toolchain/mac_x86_newlib/bin/../lib/gcc/x86_64-nacl/4.4.3/../../../../x86_64-nacl/lib/../lib64/libstdc++.a(string-inst.o)
 .group         0x0000000000000000        0x8 /Users/stevefar/nacl_sdk/pepper_45/toolchain/mac_x86_newlib/bin/../lib/gcc/x86_64-nacl/4.4.3/../../../../x86_64-nacl/lib/../lib64/libstdc++.a(string-inst.o)
 .group         0x0000000000000000        0x8 /Users/stevefar/nacl_sdk/pepper_45/toolchain/mac_x86_newlib/bin/../lib/gcc/x86_64-nacl/4.4.3/../../../../x86_64-nacl/lib/../lib64/libstdc++.a(string-inst.o)
 .group         0x0000000000000000        0x8 /Users/stevefar/nacl_sdk/pepper_45/toolchain/mac_x86_newlib/bin/../lib/gcc/x86_64-nacl/4.4.3/../../../../x86_64-nacl/lib/../lib64/libstdc++.a(string-inst.o)
 .group         0x0000000000000000        0x8 /Users/stevefar/nacl_sdk/pepper_45/toolchain/mac_x86_newlib/bin/../lib/gcc/x86_64-nacl/4.4.3/../../../../x86_64-nacl/lib/../lib64/libstdc++.a(string-inst.o)
 .group         0x0000000000000000        0x8 /Users/stevefar/nacl_sdk/pepper_45/toolchain/mac_x86_newlib/bin/../lib/gcc/x86_64-nacl/4.4.3/../../../../x86_64-nacl/lib/../lib64/libstdc++.a(string-inst.o)
 .group         0x0000000000000000        0x8 /Users/stevefar/nacl_sdk/pepper_45/toolchain/mac_x86_newlib/bin/../lib/gcc/x86_64-nacl/4.4.3/../../../../x86_64-nacl/lib/../lib64/libstdc++.a(string-inst.o)
 .group         0x0000000000000000        0x8 /Users/stevefar/nacl_sdk/pepper_45/toolchain/mac_x86_newlib/bin/../lib/gcc/x86_64-nacl/4.4.3/../../../../x86_64-nacl/lib/../lib64/libstdc++.a(string-inst.o)
 .group         0x0000000000000000        0x8 /Users/stevefar/nacl_sdk/pepper_45/toolchain/mac_x86_newlib/bin/../lib/gcc/x86_64-nacl/4.4.3/../../../../x86_64-nacl/lib/../lib64/libstdc++.a(string-inst.o)
 .group         0x0000000000000000        0x8 /Users/stevefar/nacl_sdk/pepper_45/toolchain/mac_x86_newlib/bin/../lib/gcc/x86_64-nacl/4.4.3/../../../../x86_64-nacl/lib/../lib64/libstdc++.a(string-inst.o)
 .group         0x0000000000000000        0x8 /Users/stevefar/nacl_sdk/pepper_45/toolchain/mac_x86_newlib/bin/../lib/gcc/x86_64-nacl/4.4.3/../../../../x86_64-nacl/lib/../lib64/libstdc++.a(string-inst.o)
 .group         0x0000000000000000        0x8 /Users/stevefar/nacl_sdk/pepper_45/toolchain/mac_x86_newlib/bin/../lib/gcc/x86_64-nacl/4.4.3/../../../../x86_64-nacl/lib/../lib64/libstdc++.a(string-inst.o)
 .group         0x0000000000000000        0x8 /Users/stevefar/nacl_sdk/pepper_45/toolchain/mac_x86_newlib/bin/../lib/gcc/x86_64-nacl/4.4.3/../../../../x86_64-nacl/lib/../lib64/libstdc++.a(string-inst.o)
 .group         0x0000000000000000        0x8 /Users/stevefar/nacl_sdk/pepper_45/toolchain/mac_x86_newlib/bin/../lib/gcc/x86_64-nacl/4.4.3/../../../../x86_64-nacl/lib/../lib64/libstdc++.a(string-inst.o)
 .group         0x0000000000000000        0x8 /Users/stevefar/nacl_sdk/pepper_45/toolchain/mac_x86_newlib/bin/../lib/gcc/x86_64-nacl/4.4.3/../../../../x86_64-nacl/lib/../lib64/libstdc++.a(string-inst.o)
 .group         0x0000000000000000        0x8 /Users/stevefar/nacl_sdk/pepper_45/toolchain/mac_x86_newlib/bin/../lib/gcc/x86_64-nacl/4.4.3/../../../../x86_64-nacl/lib/../lib64/libstdc++.a(string-inst.o)
 .group         0x0000000000000000        0x8 /Users/stevefar/nacl_sdk/pepper_45/toolchain/mac_x86_newlib/bin/../lib/gcc/x86_64-nacl/4.4.3/../../../../x86_64-nacl/lib/../lib64/libstdc++.a(string-inst.o)
 .group         0x0000000000000000        0x8 /Users/stevefar/nacl_sdk/pepper_45/toolchain/mac_x86_newlib/bin/../lib/gcc/x86_64-nacl/4.4.3/../../../../x86_64-nacl/lib/../lib64/libstdc++.a(string-inst.o)
 .group         0x0000000000000000        0x8 /Users/stevefar/nacl_sdk/pepper_45/toolchain/mac_x86_newlib/bin/../lib/gcc/x86_64-nacl/4.4.3/../../../../x86_64-nacl/lib/../lib64/libstdc++.a(string-inst.o)
 .group         0x0000000000000000        0x8 /Users/stevefar/nacl_sdk/pepper_45/toolchain/mac_x86_newlib/bin/../lib/gcc/x86_64-nacl/4.4.3/../../../../x86_64-nacl/lib/../lib64/libstdc++.a(string-inst.o)
 .group         0x0000000000000000        0x8 /Users/stevefar/nacl_sdk/pepper_45/toolchain/mac_x86_newlib/bin/../lib/gcc/x86_64-nacl/4.4.3/../../../../x86_64-nacl/lib/../lib64/libstdc++.a(string-inst.o)
 .group         0x0000000000000000        0x8 /Users/stevefar/nacl_sdk/pepper_45/toolchain/mac_x86_newlib/bin/../lib/gcc/x86_64-nacl/4.4.3/../../../../x86_64-nacl/lib/../lib64/libstdc++.a(string-inst.o)
 .group         0x0000000000000000        0x8 /Users/stevefar/nacl_sdk/pepper_45/toolchain/mac_x86_newlib/bin/../lib/gcc/x86_64-nacl/4.4.3/../../../../x86_64-nacl/lib/../lib64/libstdc++.a(string-inst.o)
 .group         0x0000000000000000        0x8 /Users/stevefar/nacl_sdk/pepper_45/toolchain/mac_x86_newlib/bin/../lib/gcc/x86_64-nacl/4.4.3/../../../../x86_64-nacl/lib/../lib64/libstdc++.a(string-inst.o)
 .group         0x0000000000000000        0x8 /Users/stevefar/nacl_sdk/pepper_45/toolchain/mac_x86_newlib/bin/../lib/gcc/x86_64-nacl/4.4.3/../../../../x86_64-nacl/lib/../lib64/libstdc++.a(string-inst.o)
 .group         0x0000000000000000        0x8 /Users/stevefar/nacl_sdk/pepper_45/toolchain/mac_x86_newlib/bin/../lib/gcc/x86_64-nacl/4.4.3/../../../../x86_64-nacl/lib/../lib64/libstdc++.a(string-inst.o)
 .group         0x0000000000000000        0x8 /Users/stevefar/nacl_sdk/pepper_45/toolchain/mac_x86_newlib/bin/../lib/gcc/x86_64-nacl/4.4.3/../../../../x86_64-nacl/lib/../lib64/libstdc++.a(string-inst.o)
 .group         0x0000000000000000        0x8 /Users/stevefar/nacl_sdk/pepper_45/toolchain/mac_x86_newlib/bin/../lib/gcc/x86_64-nacl/4.4.3/../../../../x86_64-nacl/lib/../lib64/libstdc++.a(string-inst.o)
 .group         0x0000000000000000        0x8 /Users/stevefar/nacl_sdk/pepper_45/toolchain/mac_x86_newlib/bin/../lib/gcc/x86_64-nacl/4.4.3/../../../../x86_64-nacl/lib/../lib64/libstdc++.a(string-inst.o)
 .group         0x0000000000000000        0x8 /Users/stevefar/nacl_sdk/pepper_45/toolchain/mac_x86_newlib/bin/../lib/gcc/x86_64-nacl/4.4.3/../../../../x86_64-nacl/lib/../lib64/libstdc++.a(string-inst.o)
 .group         0x0000000000000000        0x8 /Users/stevefar/nacl_sdk/pepper_45/toolchain/mac_x86_newlib/bin/../lib/gcc/x86_64-nacl/4.4.3/../../../../x86_64-nacl/lib/../lib64/libstdc++.a(string-inst.o)
 .group         0x0000000000000000        0x8 /Users/stevefar/nacl_sdk/pepper_45/toolchain/mac_x86_newlib/bin/../lib/gcc/x86_64-nacl/4.4.3/../../../../x86_64-nacl/lib/../lib64/libstdc++.a(string-inst.o)
 .group         0x0000000000000000        0x8 /Users/stevefar/nacl_sdk/pepper_45/toolchain/mac_x86_newlib/bin/../lib/gcc/x86_64-nacl/4.4.3/../../../../x86_64-nacl/lib/../lib64/libstdc++.a(string-inst.o)
 .group         0x0000000000000000        0x8 /Users/stevefar/nacl_sdk/pepper_45/toolchain/mac_x86_newlib/bin/../lib/gcc/x86_64-nacl/4.4.3/../../../../x86_64-nacl/lib/../lib64/libstdc++.a(string-inst.o)
 .group         0x0000000000000000        0x8 /Users/stevefar/nacl_sdk/pepper_45/toolchain/mac_x86_newlib/bin/../lib/gcc/x86_64-nacl/4.4.3/../../../../x86_64-nacl/lib/../lib64/libstdc++.a(string-inst.o)
 .group         0x0000000000000000        0x8 /Users/stevefar/nacl_sdk/pepper_45/toolchain/mac_x86_newlib/bin/../lib/gcc/x86_64-nacl/4.4.3/../../../../x86_64-nacl/lib/../lib64/libstdc++.a(string-inst.o)
 .group         0x0000000000000000        0x8 /Users/stevefar/nacl_sdk/pepper_45/toolchain/mac_x86_newlib/bin/../lib/gcc/x86_64-nacl/4.4.3/../../../../x86_64-nacl/lib/../lib64/libstdc++.a(string-inst.o)
 .group         0x0000000000000000        0x8 /Users/stevefar/nacl_sdk/pepper_45/toolchain/mac_x86_newlib/bin/../lib/gcc/x86_64-nacl/4.4.3/../../../../x86_64-nacl/lib/../lib64/libstdc++.a(string-inst.o)
 .group         0x0000000000000000        0x8 /Users/stevefar/nacl_sdk/pepper_45/toolchain/mac_x86_newlib/bin/../lib/gcc/x86_64-nacl/4.4.3/../../../../x86_64-nacl/lib/../lib64/libstdc++.a(string-inst.o)
 .group         0x0000000000000000        0x8 /Users/stevefar/nacl_sdk/pepper_45/toolchain/mac_x86_newlib/bin/../lib/gcc/x86_64-nacl/4.4.3/../../../../x86_64-nacl/lib/../lib64/libstdc++.a(string-inst.o)
 .group         0x0000000000000000        0x8 /Users/stevefar/nacl_sdk/pepper_45/toolchain/mac_x86_newlib/bin/../lib/gcc/x86_64-nacl/4.4.3/../../../../x86_64-nacl/lib/../lib64/libstdc++.a(string-inst.o)
 .group         0x0000000000000000        0x8 /Users/stevefar/nacl_sdk/pepper_45/toolchain/mac_x86_newlib/bin/../lib/gcc/x86_64-nacl/4.4.3/../../../../x86_64-nacl/lib/../lib64/libstdc++.a(string-inst.o)
 .group         0x0000000000000000        0x8 /Users/stevefar/nacl_sdk/pepper_45/toolchain/mac_x86_newlib/bin/../lib/gcc/x86_64-nacl/4.4.3/../../../../x86_64-nacl/lib/../lib64/libstdc++.a(string-inst.o)
 .group         0x0000000000000000        0x8 /Users/stevefar/nacl_sdk/pepper_45/toolchain/mac_x86_newlib/bin/../lib/gcc/x86_64-nacl/4.4.3/../../../../x86_64-nacl/lib/../lib64/libstdc++.a(string-inst.o)
 .group         0x0000000000000000        0x8 /Users/stevefar/nacl_sdk/pepper_45/toolchain/mac_x86_newlib/bin/../lib/gcc/x86_64-nacl/4.4.3/../../../../x86_64-nacl/lib/../lib64/libstdc++.a(string-inst.o)
 .group         0x0000000000000000        0x8 /Users/stevefar/nacl_sdk/pepper_45/toolchain/mac_x86_newlib/bin/../lib/gcc/x86_64-nacl/4.4.3/../../../../x86_64-nacl/lib/../lib64/libstdc++.a(string-inst.o)
 .group         0x0000000000000000        0x8 /Users/stevefar/nacl_sdk/pepper_45/toolchain/mac_x86_newlib/bin/../lib/gcc/x86_64-nacl/4.4.3/../../../../x86_64-nacl/lib/../lib64/libstdc++.a(string-inst.o)
 .group         0x0000000000000000        0x8 /Users/stevefar/nacl_sdk/pepper_45/toolchain/mac_x86_newlib/bin/../lib/gcc/x86_64-nacl/4.4.3/../../../../x86_64-nacl/lib/../lib64/libstdc++.a(string-inst.o)
 .group         0x0000000000000000        0x8 /Users/stevefar/nacl_sdk/pepper_45/toolchain/mac_x86_newlib/bin/../lib/gcc/x86_64-nacl/4.4.3/../../../../x86_64-nacl/lib/../lib64/libstdc++.a(string-inst.o)
 .group         0x0000000000000000        0x8 /Users/stevefar/nacl_sdk/pepper_45/toolchain/mac_x86_newlib/bin/../lib/gcc/x86_64-nacl/4.4.3/../../../../x86_64-nacl/lib/../lib64/libstdc++.a(string-inst.o)
 .group         0x0000000000000000        0x8 /Users/stevefar/nacl_sdk/pepper_45/toolchain/mac_x86_newlib/bin/../lib/gcc/x86_64-nacl/4.4.3/../../../../x86_64-nacl/lib/../lib64/libstdc++.a(string-inst.o)
 .group         0x0000000000000000        0x8 /Users/stevefar/nacl_sdk/pepper_45/toolchain/mac_x86_newlib/bin/../lib/gcc/x86_64-nacl/4.4.3/../../../../x86_64-nacl/lib/../lib64/libstdc++.a(string-inst.o)
 .group         0x0000000000000000        0x8 /Users/stevefar/nacl_sdk/pepper_45/toolchain/mac_x86_newlib/bin/../lib/gcc/x86_64-nacl/4.4.3/../../../../x86_64-nacl/lib/../lib64/libstdc++.a(string-inst.o)
 .group         0x0000000000000000        0x8 /Users/stevefar/nacl_sdk/pepper_45/toolchain/mac_x86_newlib/bin/../lib/gcc/x86_64-nacl/4.4.3/../../../../x86_64-nacl/lib/../lib64/libstdc++.a(string-inst.o)
 .group         0x0000000000000000        0x8 /Users/stevefar/nacl_sdk/pepper_45/toolchain/mac_x86_newlib/bin/../lib/gcc/x86_64-nacl/4.4.3/../../../../x86_64-nacl/lib/../lib64/libstdc++.a(string-inst.o)
 .group         0x0000000000000000        0x8 /Users/stevefar/nacl_sdk/pepper_45/toolchain/mac_x86_newlib/bin/../lib/gcc/x86_64-nacl/4.4.3/../../../../x86_64-nacl/lib/../lib64/libstdc++.a(string-inst.o)
 .group         0x0000000000000000        0x8 /Users/stevefar/nacl_sdk/pepper_45/toolchain/mac_x86_newlib/bin/../lib/gcc/x86_64-nacl/4.4.3/../../../../x86_64-nacl/lib/../lib64/libstdc++.a(string-inst.o)
 .group         0x0000000000000000        0x8 /Users/stevefar/nacl_sdk/pepper_45/toolchain/mac_x86_newlib/bin/../lib/gcc/x86_64-nacl/4.4.3/../../../../x86_64-nacl/lib/../lib64/libstdc++.a(string-inst.o)
 .group         0x0000000000000000        0x8 /Users/stevefar/nacl_sdk/pepper_45/toolchain/mac_x86_newlib/bin/../lib/gcc/x86_64-nacl/4.4.3/../../../../x86_64-nacl/lib/../lib64/libstdc++.a(string-inst.o)
 .group         0x0000000000000000        0x8 /Users/stevefar/nacl_sdk/pepper_45/toolchain/mac_x86_newlib/bin/../lib/gcc/x86_64-nacl/4.4.3/../../../../x86_64-nacl/lib/../lib64/libstdc++.a(string-inst.o)
 .group         0x0000000000000000        0x8 /Users/stevefar/nacl_sdk/pepper_45/toolchain/mac_x86_newlib/bin/../lib/gcc/x86_64-nacl/4.4.3/../../../../x86_64-nacl/lib/../lib64/libstdc++.a(string-inst.o)
 .group         0x0000000000000000        0x8 /Users/stevefar/nacl_sdk/pepper_45/toolchain/mac_x86_newlib/bin/../lib/gcc/x86_64-nacl/4.4.3/../../../../x86_64-nacl/lib/../lib64/libstdc++.a(string-inst.o)
 .group         0x0000000000000000        0x8 /Users/stevefar/nacl_sdk/pepper_45/toolchain/mac_x86_newlib/bin/../lib/gcc/x86_64-nacl/4.4.3/../../../../x86_64-nacl/lib/../lib64/libstdc++.a(string-inst.o)
 .group         0x0000000000000000        0x8 /Users/stevefar/nacl_sdk/pepper_45/toolchain/mac_x86_newlib/bin/../lib/gcc/x86_64-nacl/4.4.3/../../../../x86_64-nacl/lib/../lib64/libstdc++.a(string-inst.o)
 .group         0x0000000000000000        0x8 /Users/stevefar/nacl_sdk/pepper_45/toolchain/mac_x86_newlib/bin/../lib/gcc/x86_64-nacl/4.4.3/../../../../x86_64-nacl/lib/../lib64/libstdc++.a(string-inst.o)
 .group         0x0000000000000000        0x8 /Users/stevefar/nacl_sdk/pepper_45/toolchain/mac_x86_newlib/bin/../lib/gcc/x86_64-nacl/4.4.3/../../../../x86_64-nacl/lib/../lib64/libstdc++.a(string-inst.o)
 .group         0x0000000000000000        0x8 /Users/stevefar/nacl_sdk/pepper_45/toolchain/mac_x86_newlib/bin/../lib/gcc/x86_64-nacl/4.4.3/../../../../x86_64-nacl/lib/../lib64/libstdc++.a(string-inst.o)
 .group         0x0000000000000000        0x8 /Users/stevefar/nacl_sdk/pepper_45/toolchain/mac_x86_newlib/bin/../lib/gcc/x86_64-nacl/4.4.3/../../../../x86_64-nacl/lib/../lib64/libstdc++.a(string-inst.o)
 .group         0x0000000000000000        0x8 /Users/stevefar/nacl_sdk/pepper_45/toolchain/mac_x86_newlib/bin/../lib/gcc/x86_64-nacl/4.4.3/../../../../x86_64-nacl/lib/../lib64/libstdc++.a(string-inst.o)
 .group         0x0000000000000000        0x8 /Users/stevefar/nacl_sdk/pepper_45/toolchain/mac_x86_newlib/bin/../lib/gcc/x86_64-nacl/4.4.3/../../../../x86_64-nacl/lib/../lib64/libstdc++.a(string-inst.o)
 .group         0x0000000000000000        0x8 /Users/stevefar/nacl_sdk/pepper_45/toolchain/mac_x86_newlib/bin/../lib/gcc/x86_64-nacl/4.4.3/../../../../x86_64-nacl/lib/../lib64/libstdc++.a(string-inst.o)
 .group         0x0000000000000000        0x8 /Users/stevefar/nacl_sdk/pepper_45/toolchain/mac_x86_newlib/bin/../lib/gcc/x86_64-nacl/4.4.3/../../../../x86_64-nacl/lib/../lib64/libstdc++.a(string-inst.o)
 .group         0x0000000000000000        0x8 /Users/stevefar/nacl_sdk/pepper_45/toolchain/mac_x86_newlib/bin/../lib/gcc/x86_64-nacl/4.4.3/../../../../x86_64-nacl/lib/../lib64/libstdc++.a(string-inst.o)
 .group         0x0000000000000000        0x8 /Users/stevefar/nacl_sdk/pepper_45/toolchain/mac_x86_newlib/bin/../lib/gcc/x86_64-nacl/4.4.3/../../../../x86_64-nacl/lib/../lib64/libstdc++.a(string-inst.o)
 .group         0x0000000000000000        0x8 /Users/stevefar/nacl_sdk/pepper_45/toolchain/mac_x86_newlib/bin/../lib/gcc/x86_64-nacl/4.4.3/../../../../x86_64-nacl/lib/../lib64/libstdc++.a(string-inst.o)
 .group         0x0000000000000000        0x8 /Users/stevefar/nacl_sdk/pepper_45/toolchain/mac_x86_newlib/bin/../lib/gcc/x86_64-nacl/4.4.3/../../../../x86_64-nacl/lib/../lib64/libstdc++.a(string-inst.o)
 .group         0x0000000000000000        0x8 /Users/stevefar/nacl_sdk/pepper_45/toolchain/mac_x86_newlib/bin/../lib/gcc/x86_64-nacl/4.4.3/../../../../x86_64-nacl/lib/../lib64/libstdc++.a(string-inst.o)
 .group         0x0000000000000000        0x8 /Users/stevefar/nacl_sdk/pepper_45/toolchain/mac_x86_newlib/bin/../lib/gcc/x86_64-nacl/4.4.3/../../../../x86_64-nacl/lib/../lib64/libstdc++.a(string-inst.o)
 .group         0x0000000000000000        0x8 /Users/stevefar/nacl_sdk/pepper_45/toolchain/mac_x86_newlib/bin/../lib/gcc/x86_64-nacl/4.4.3/../../../../x86_64-nacl/lib/../lib64/libstdc++.a(string-inst.o)
 .group         0x0000000000000000        0x8 /Users/stevefar/nacl_sdk/pepper_45/toolchain/mac_x86_newlib/bin/../lib/gcc/x86_64-nacl/4.4.3/../../../../x86_64-nacl/lib/../lib64/libstdc++.a(string-inst.o)
 .group         0x0000000000000000        0x8 /Users/stevefar/nacl_sdk/pepper_45/toolchain/mac_x86_newlib/bin/../lib/gcc/x86_64-nacl/4.4.3/../../../../x86_64-nacl/lib/../lib64/libstdc++.a(string-inst.o)
 .group         0x0000000000000000        0x8 /Users/stevefar/nacl_sdk/pepper_45/toolchain/mac_x86_newlib/bin/../lib/gcc/x86_64-nacl/4.4.3/../../../../x86_64-nacl/lib/../lib64/libstdc++.a(string-inst.o)
 .group         0x0000000000000000        0x8 /Users/stevefar/nacl_sdk/pepper_45/toolchain/mac_x86_newlib/bin/../lib/gcc/x86_64-nacl/4.4.3/../../../../x86_64-nacl/lib/../lib64/libstdc++.a(string-inst.o)
 .group         0x0000000000000000        0x8 /Users/stevefar/nacl_sdk/pepper_45/toolchain/mac_x86_newlib/bin/../lib/gcc/x86_64-nacl/4.4.3/../../../../x86_64-nacl/lib/../lib64/libstdc++.a(string-inst.o)
 .group         0x0000000000000000        0x8 /Users/stevefar/nacl_sdk/pepper_45/toolchain/mac_x86_newlib/bin/../lib/gcc/x86_64-nacl/4.4.3/../../../../x86_64-nacl/lib/../lib64/libstdc++.a(string-inst.o)
 .group         0x0000000000000000        0x8 /Users/stevefar/nacl_sdk/pepper_45/toolchain/mac_x86_newlib/bin/../lib/gcc/x86_64-nacl/4.4.3/../../../../x86_64-nacl/lib/../lib64/libstdc++.a(string-inst.o)
 .group         0x0000000000000000        0x8 /Users/stevefar/nacl_sdk/pepper_45/toolchain/mac_x86_newlib/bin/../lib/gcc/x86_64-nacl/4.4.3/../../../../x86_64-nacl/lib/../lib64/libstdc++.a(string-inst.o)
 .group         0x0000000000000000        0x8 /Users/stevefar/nacl_sdk/pepper_45/toolchain/mac_x86_newlib/bin/../lib/gcc/x86_64-nacl/4.4.3/../../../../x86_64-nacl/lib/../lib64/libstdc++.a(string-inst.o)
 .group         0x0000000000000000        0x8 /Users/stevefar/nacl_sdk/pepper_45/toolchain/mac_x86_newlib/bin/../lib/gcc/x86_64-nacl/4.4.3/../../../../x86_64-nacl/lib/../lib64/libstdc++.a(string-inst.o)
 .group         0x0000000000000000        0x8 /Users/stevefar/nacl_sdk/pepper_45/toolchain/mac_x86_newlib/bin/../lib/gcc/x86_64-nacl/4.4.3/../../../../x86_64-nacl/lib/../lib64/libstdc++.a(string-inst.o)
 .group         0x0000000000000000        0x8 /Users/stevefar/nacl_sdk/pepper_45/toolchain/mac_x86_newlib/bin/../lib/gcc/x86_64-nacl/4.4.3/../../../../x86_64-nacl/lib/../lib64/libstdc++.a(string-inst.o)
 .group         0x0000000000000000        0x8 /Users/stevefar/nacl_sdk/pepper_45/toolchain/mac_x86_newlib/bin/../lib/gcc/x86_64-nacl/4.4.3/../../../../x86_64-nacl/lib/../lib64/libstdc++.a(string-inst.o)
 .group         0x0000000000000000        0x8 /Users/stevefar/nacl_sdk/pepper_45/toolchain/mac_x86_newlib/bin/../lib/gcc/x86_64-nacl/4.4.3/../../../../x86_64-nacl/lib/../lib64/libstdc++.a(string-inst.o)
 .group         0x0000000000000000        0x8 /Users/stevefar/nacl_sdk/pepper_45/toolchain/mac_x86_newlib/bin/../lib/gcc/x86_64-nacl/4.4.3/../../../../x86_64-nacl/lib/../lib64/libstdc++.a(string-inst.o)
 .group         0x0000000000000000        0x8 /Users/stevefar/nacl_sdk/pepper_45/toolchain/mac_x86_newlib/bin/../lib/gcc/x86_64-nacl/4.4.3/../../../../x86_64-nacl/lib/../lib64/libstdc++.a(string-inst.o)
 .group         0x0000000000000000        0x8 /Users/stevefar/nacl_sdk/pepper_45/toolchain/mac_x86_newlib/bin/../lib/gcc/x86_64-nacl/4.4.3/../../../../x86_64-nacl/lib/../lib64/libstdc++.a(string-inst.o)
 .group         0x0000000000000000        0x8 /Users/stevefar/nacl_sdk/pepper_45/toolchain/mac_x86_newlib/bin/../lib/gcc/x86_64-nacl/4.4.3/../../../../x86_64-nacl/lib/../lib64/libstdc++.a(string-inst.o)
 .group         0x0000000000000000        0x8 /Users/stevefar/nacl_sdk/pepper_45/toolchain/mac_x86_newlib/bin/../lib/gcc/x86_64-nacl/4.4.3/../../../../x86_64-nacl/lib/../lib64/libstdc++.a(string-inst.o)
 .group         0x0000000000000000        0x8 /Users/stevefar/nacl_sdk/pepper_45/toolchain/mac_x86_newlib/bin/../lib/gcc/x86_64-nacl/4.4.3/../../../../x86_64-nacl/lib/../lib64/libstdc++.a(string-inst.o)
 .group         0x0000000000000000        0x8 /Users/stevefar/nacl_sdk/pepper_45/toolchain/mac_x86_newlib/bin/../lib/gcc/x86_64-nacl/4.4.3/../../../../x86_64-nacl/lib/../lib64/libstdc++.a(string-inst.o)
 .group         0x0000000000000000        0x8 /Users/stevefar/nacl_sdk/pepper_45/toolchain/mac_x86_newlib/bin/../lib/gcc/x86_64-nacl/4.4.3/../../../../x86_64-nacl/lib/../lib64/libstdc++.a(string-inst.o)
 .group         0x0000000000000000        0x8 /Users/stevefar/nacl_sdk/pepper_45/toolchain/mac_x86_newlib/bin/../lib/gcc/x86_64-nacl/4.4.3/../../../../x86_64-nacl/lib/../lib64/libstdc++.a(string-inst.o)
 .group         0x0000000000000000        0x8 /Users/stevefar/nacl_sdk/pepper_45/toolchain/mac_x86_newlib/bin/../lib/gcc/x86_64-nacl/4.4.3/../../../../x86_64-nacl/lib/../lib64/libstdc++.a(string-inst.o)
 .group         0x0000000000000000        0x8 /Users/stevefar/nacl_sdk/pepper_45/toolchain/mac_x86_newlib/bin/../lib/gcc/x86_64-nacl/4.4.3/../../../../x86_64-nacl/lib/../lib64/libstdc++.a(string-inst.o)
 .group         0x0000000000000000        0x8 /Users/stevefar/nacl_sdk/pepper_45/toolchain/mac_x86_newlib/bin/../lib/gcc/x86_64-nacl/4.4.3/../../../../x86_64-nacl/lib/../lib64/libstdc++.a(string-inst.o)
 .group         0x0000000000000000        0x8 /Users/stevefar/nacl_sdk/pepper_45/toolchain/mac_x86_newlib/bin/../lib/gcc/x86_64-nacl/4.4.3/../../../../x86_64-nacl/lib/../lib64/libstdc++.a(string-inst.o)
 .group         0x0000000000000000        0x8 /Users/stevefar/nacl_sdk/pepper_45/toolchain/mac_x86_newlib/bin/../lib/gcc/x86_64-nacl/4.4.3/../../../../x86_64-nacl/lib/../lib64/libstdc++.a(string-inst.o)
 .group         0x0000000000000000        0x8 /Users/stevefar/nacl_sdk/pepper_45/toolchain/mac_x86_newlib/bin/../lib/gcc/x86_64-nacl/4.4.3/../../../../x86_64-nacl/lib/../lib64/libstdc++.a(string-inst.o)
 .group         0x0000000000000000        0x8 /Users/stevefar/nacl_sdk/pepper_45/toolchain/mac_x86_newlib/bin/../lib/gcc/x86_64-nacl/4.4.3/../../../../x86_64-nacl/lib/../lib64/libstdc++.a(string-inst.o)
 .group         0x0000000000000000        0x8 /Users/stevefar/nacl_sdk/pepper_45/toolchain/mac_x86_newlib/bin/../lib/gcc/x86_64-nacl/4.4.3/../../../../x86_64-nacl/lib/../lib64/libstdc++.a(string-inst.o)
 .group         0x0000000000000000        0x8 /Users/stevefar/nacl_sdk/pepper_45/toolchain/mac_x86_newlib/bin/../lib/gcc/x86_64-nacl/4.4.3/../../../../x86_64-nacl/lib/../lib64/libstdc++.a(string-inst.o)
 .note.GNU-stack
                0x0000000000000000        0x0 /Users/stevefar/nacl_sdk/pepper_45/toolchain/mac_x86_newlib/bin/../lib/gcc/x86_64-nacl/4.4.3/../../../../x86_64-nacl/lib/../lib64/libstdc++.a(string-inst.o)
 .group         0x0000000000000000        0x8 /Users/stevefar/nacl_sdk/pepper_45/toolchain/mac_x86_newlib/bin/../lib/gcc/x86_64-nacl/4.4.3/../../../../x86_64-nacl/lib/../lib64/libstdc++.a(class_type_info.o)
 .group         0x0000000000000000        0x8 /Users/stevefar/nacl_sdk/pepper_45/toolchain/mac_x86_newlib/bin/../lib/gcc/x86_64-nacl/4.4.3/../../../../x86_64-nacl/lib/../lib64/libstdc++.a(class_type_info.o)
 .group         0x0000000000000000        0x8 /Users/stevefar/nacl_sdk/pepper_45/toolchain/mac_x86_newlib/bin/../lib/gcc/x86_64-nacl/4.4.3/../../../../x86_64-nacl/lib/../lib64/libstdc++.a(class_type_info.o)
 .note.GNU-stack
                0x0000000000000000        0x0 /Users/stevefar/nacl_sdk/pepper_45/toolchain/mac_x86_newlib/bin/../lib/gcc/x86_64-nacl/4.4.3/../../../../x86_64-nacl/lib/../lib64/libstdc++.a(class_type_info.o)
 .note.GNU-stack
                0x0000000000000000        0x0 /Users/stevefar/nacl_sdk/pepper_45/toolchain/mac_x86_newlib/bin/../lib/gcc/x86_64-nacl/4.4.3/../../../../x86_64-nacl/lib/../lib64/libstdc++.a(del_op.o)
 .note.GNU-stack
                0x0000000000000000        0x0 /Users/stevefar/nacl_sdk/pepper_45/toolchain/mac_x86_newlib/bin/../lib/gcc/x86_64-nacl/4.4.3/../../../../x86_64-nacl/lib/../lib64/libstdc++.a(eh_catch.o)
 .group         0x0000000000000000        0x8 /Users/stevefar/nacl_sdk/pepper_45/toolchain/mac_x86_newlib/bin/../lib/gcc/x86_64-nacl/4.4.3/../../../../x86_64-nacl/lib/../lib64/libstdc++.a(eh_globals.o)
 .note.GNU-stack
                0x0000000000000000        0x0 /Users/stevefar/nacl_sdk/pepper_45/toolchain/mac_x86_newlib/bin/../lib/gcc/x86_64-nacl/4.4.3/../../../../x86_64-nacl/lib/../lib64/libstdc++.a(eh_globals.o)
 .note.GNU-stack
                0x0000000000000000        0x0 /Users/stevefar/nacl_sdk/pepper_45/toolchain/mac_x86_newlib/bin/../lib/gcc/x86_64-nacl/4.4.3/../../../../x86_64-nacl/lib/../lib64/libstdc++.a(eh_personality.o)
 .note.GNU-stack
                0x0000000000000000        0x0 /Users/stevefar/nacl_sdk/pepper_45/toolchain/mac_x86_newlib/bin/../lib/gcc/x86_64-nacl/4.4.3/../../../../x86_64-nacl/lib/../lib64/libstdc++.a(eh_terminate.o)
 .note.GNU-stack
                0x0000000000000000        0x0 /Users/stevefar/nacl_sdk/pepper_45/toolchain/mac_x86_newlib/bin/../lib/gcc/x86_64-nacl/4.4.3/../../../../x86_64-nacl/lib/../lib64/libstdc++.a(eh_throw.o)
 .note.GNU-stack
                0x0000000000000000        0x0 /Users/stevefar/nacl_sdk/pepper_45/toolchain/mac_x86_newlib/bin/../lib/gcc/x86_64-nacl/4.4.3/../../../../x86_64-nacl/lib/../lib64/libstdc++.a(eh_unex_handler.o)
 .group         0x0000000000000000        0x8 /Users/stevefar/nacl_sdk/pepper_45/toolchain/mac_x86_newlib/bin/../lib/gcc/x86_64-nacl/4.4.3/../../../../x86_64-nacl/lib/../lib64/libstdc++.a(guard.o)
 .group         0x0000000000000000        0x8 /Users/stevefar/nacl_sdk/pepper_45/toolchain/mac_x86_newlib/bin/../lib/gcc/x86_64-nacl/4.4.3/../../../../x86_64-nacl/lib/../lib64/libstdc++.a(guard.o)
 .group         0x0000000000000000        0x8 /Users/stevefar/nacl_sdk/pepper_45/toolchain/mac_x86_newlib/bin/../lib/gcc/x86_64-nacl/4.4.3/../../../../x86_64-nacl/lib/../lib64/libstdc++.a(guard.o)
 .group         0x0000000000000000        0x8 /Users/stevefar/nacl_sdk/pepper_45/toolchain/mac_x86_newlib/bin/../lib/gcc/x86_64-nacl/4.4.3/../../../../x86_64-nacl/lib/../lib64/libstdc++.a(guard.o)
 .group         0x0000000000000000        0x8 /Users/stevefar/nacl_sdk/pepper_45/toolchain/mac_x86_newlib/bin/../lib/gcc/x86_64-nacl/4.4.3/../../../../x86_64-nacl/lib/../lib64/libstdc++.a(guard.o)
 .group         0x0000000000000000        0x8 /Users/stevefar/nacl_sdk/pepper_45/toolchain/mac_x86_newlib/bin/../lib/gcc/x86_64-nacl/4.4.3/../../../../x86_64-nacl/lib/../lib64/libstdc++.a(guard.o)
 .group         0x0000000000000000        0x8 /Users/stevefar/nacl_sdk/pepper_45/toolchain/mac_x86_newlib/bin/../lib/gcc/x86_64-nacl/4.4.3/../../../../x86_64-nacl/lib/../lib64/libstdc++.a(guard.o)
 .group         0x0000000000000000        0x8 /Users/stevefar/nacl_sdk/pepper_45/toolchain/mac_x86_newlib/bin/../lib/gcc/x86_64-nacl/4.4.3/../../../../x86_64-nacl/lib/../lib64/libstdc++.a(guard.o)
 .group         0x0000000000000000        0x8 /Users/stevefar/nacl_sdk/pepper_45/toolchain/mac_x86_newlib/bin/../lib/gcc/x86_64-nacl/4.4.3/../../../../x86_64-nacl/lib/../lib64/libstdc++.a(guard.o)
 .group         0x0000000000000000        0x8 /Users/stevefar/nacl_sdk/pepper_45/toolchain/mac_x86_newlib/bin/../lib/gcc/x86_64-nacl/4.4.3/../../../../x86_64-nacl/lib/../lib64/libstdc++.a(guard.o)
 .group         0x0000000000000000        0x8 /Users/stevefar/nacl_sdk/pepper_45/toolchain/mac_x86_newlib/bin/../lib/gcc/x86_64-nacl/4.4.3/../../../../x86_64-nacl/lib/../lib64/libstdc++.a(guard.o)
 .group         0x0000000000000000        0x8 /Users/stevefar/nacl_sdk/pepper_45/toolchain/mac_x86_newlib/bin/../lib/gcc/x86_64-nacl/4.4.3/../../../../x86_64-nacl/lib/../lib64/libstdc++.a(guard.o)
 .group         0x0000000000000000        0x8 /Users/stevefar/nacl_sdk/pepper_45/toolchain/mac_x86_newlib/bin/../lib/gcc/x86_64-nacl/4.4.3/../../../../x86_64-nacl/lib/../lib64/libstdc++.a(guard.o)
 .group         0x0000000000000000        0x8 /Users/stevefar/nacl_sdk/pepper_45/toolchain/mac_x86_newlib/bin/../lib/gcc/x86_64-nacl/4.4.3/../../../../x86_64-nacl/lib/../lib64/libstdc++.a(guard.o)
 .group         0x0000000000000000        0x8 /Users/stevefar/nacl_sdk/pepper_45/toolchain/mac_x86_newlib/bin/../lib/gcc/x86_64-nacl/4.4.3/../../../../x86_64-nacl/lib/../lib64/libstdc++.a(guard.o)
 .note.GNU-stack
                0x0000000000000000        0x0 /Users/stevefar/nacl_sdk/pepper_45/toolchain/mac_x86_newlib/bin/../lib/gcc/x86_64-nacl/4.4.3/../../../../x86_64-nacl/lib/../lib64/libstdc++.a(guard.o)
 .note.GNU-stack
                0x0000000000000000        0x0 /Users/stevefar/nacl_sdk/pepper_45/toolchain/mac_x86_newlib/bin/../lib/gcc/x86_64-nacl/4.4.3/../../../../x86_64-nacl/lib/../lib64/libstdc++.a(new_op.o)
 .note.GNU-stack
                0x0000000000000000        0x0 /Users/stevefar/nacl_sdk/pepper_45/toolchain/mac_x86_newlib/bin/../lib/gcc/x86_64-nacl/4.4.3/../../../../x86_64-nacl/lib/../lib64/libstdc++.a(pure.o)
 .group         0x0000000000000000        0x8 /Users/stevefar/nacl_sdk/pepper_45/toolchain/mac_x86_newlib/bin/../lib/gcc/x86_64-nacl/4.4.3/../../../../x86_64-nacl/lib/../lib64/libstdc++.a(si_class_type_info.o)
 .group         0x0000000000000000        0x8 /Users/stevefar/nacl_sdk/pepper_45/toolchain/mac_x86_newlib/bin/../lib/gcc/x86_64-nacl/4.4.3/../../../../x86_64-nacl/lib/../lib64/libstdc++.a(si_class_type_info.o)
 .group         0x0000000000000000        0x8 /Users/stevefar/nacl_sdk/pepper_45/toolchain/mac_x86_newlib/bin/../lib/gcc/x86_64-nacl/4.4.3/../../../../x86_64-nacl/lib/../lib64/libstdc++.a(si_class_type_info.o)
 .note.GNU-stack
                0x0000000000000000        0x0 /Users/stevefar/nacl_sdk/pepper_45/toolchain/mac_x86_newlib/bin/../lib/gcc/x86_64-nacl/4.4.3/../../../../x86_64-nacl/lib/../lib64/libstdc++.a(si_class_type_info.o)
 .group         0x0000000000000000        0x8 /Users/stevefar/nacl_sdk/pepper_45/toolchain/mac_x86_newlib/bin/../lib/gcc/x86_64-nacl/4.4.3/../../../../x86_64-nacl/lib/../lib64/libstdc++.a(tinfo.o)
 .group         0x0000000000000000        0x8 /Users/stevefar/nacl_sdk/pepper_45/toolchain/mac_x86_newlib/bin/../lib/gcc/x86_64-nacl/4.4.3/../../../../x86_64-nacl/lib/../lib64/libstdc++.a(tinfo.o)
 .group         0x0000000000000000        0x8 /Users/stevefar/nacl_sdk/pepper_45/toolchain/mac_x86_newlib/bin/../lib/gcc/x86_64-nacl/4.4.3/../../../../x86_64-nacl/lib/../lib64/libstdc++.a(tinfo.o)
 .note.GNU-stack
                0x0000000000000000        0x0 /Users/stevefar/nacl_sdk/pepper_45/toolchain/mac_x86_newlib/bin/../lib/gcc/x86_64-nacl/4.4.3/../../../../x86_64-nacl/lib/../lib64/libstdc++.a(tinfo.o)
 .group         0x0000000000000000        0x8 /Users/stevefar/nacl_sdk/pepper_45/toolchain/mac_x86_newlib/bin/../lib/gcc/x86_64-nacl/4.4.3/../../../../x86_64-nacl/lib/../lib64/libstdc++.a(functexcept.o)
 .group         0x0000000000000000        0x8 /Users/stevefar/nacl_sdk/pepper_45/toolchain/mac_x86_newlib/bin/../lib/gcc/x86_64-nacl/4.4.3/../../../../x86_64-nacl/lib/../lib64/libstdc++.a(functexcept.o)
 .group         0x0000000000000000        0x8 /Users/stevefar/nacl_sdk/pepper_45/toolchain/mac_x86_newlib/bin/../lib/gcc/x86_64-nacl/4.4.3/../../../../x86_64-nacl/lib/../lib64/libstdc++.a(functexcept.o)
 .group         0x0000000000000000        0x8 /Users/stevefar/nacl_sdk/pepper_45/toolchain/mac_x86_newlib/bin/../lib/gcc/x86_64-nacl/4.4.3/../../../../x86_64-nacl/lib/../lib64/libstdc++.a(functexcept.o)
 .group         0x0000000000000000        0x8 /Users/stevefar/nacl_sdk/pepper_45/toolchain/mac_x86_newlib/bin/../lib/gcc/x86_64-nacl/4.4.3/../../../../x86_64-nacl/lib/../lib64/libstdc++.a(functexcept.o)
 .group         0x0000000000000000        0x8 /Users/stevefar/nacl_sdk/pepper_45/toolchain/mac_x86_newlib/bin/../lib/gcc/x86_64-nacl/4.4.3/../../../../x86_64-nacl/lib/../lib64/libstdc++.a(functexcept.o)
 .group         0x0000000000000000        0x8 /Users/stevefar/nacl_sdk/pepper_45/toolchain/mac_x86_newlib/bin/../lib/gcc/x86_64-nacl/4.4.3/../../../../x86_64-nacl/lib/../lib64/libstdc++.a(functexcept.o)
 .group         0x0000000000000000        0x8 /Users/stevefar/nacl_sdk/pepper_45/toolchain/mac_x86_newlib/bin/../lib/gcc/x86_64-nacl/4.4.3/../../../../x86_64-nacl/lib/../lib64/libstdc++.a(functexcept.o)
 .group         0x0000000000000000        0x8 /Users/stevefar/nacl_sdk/pepper_45/toolchain/mac_x86_newlib/bin/../lib/gcc/x86_64-nacl/4.4.3/../../../../x86_64-nacl/lib/../lib64/libstdc++.a(functexcept.o)
 .group         0x0000000000000000        0x8 /Users/stevefar/nacl_sdk/pepper_45/toolchain/mac_x86_newlib/bin/../lib/gcc/x86_64-nacl/4.4.3/../../../../x86_64-nacl/lib/../lib64/libstdc++.a(functexcept.o)
 .group         0x0000000000000000        0x8 /Users/stevefar/nacl_sdk/pepper_45/toolchain/mac_x86_newlib/bin/../lib/gcc/x86_64-nacl/4.4.3/../../../../x86_64-nacl/lib/../lib64/libstdc++.a(functexcept.o)
 .group         0x0000000000000000        0x8 /Users/stevefar/nacl_sdk/pepper_45/toolchain/mac_x86_newlib/bin/../lib/gcc/x86_64-nacl/4.4.3/../../../../x86_64-nacl/lib/../lib64/libstdc++.a(functexcept.o)
 .group         0x0000000000000000        0x8 /Users/stevefar/nacl_sdk/pepper_45/toolchain/mac_x86_newlib/bin/../lib/gcc/x86_64-nacl/4.4.3/../../../../x86_64-nacl/lib/../lib64/libstdc++.a(functexcept.o)
 .group         0x0000000000000000        0x8 /Users/stevefar/nacl_sdk/pepper_45/toolchain/mac_x86_newlib/bin/../lib/gcc/x86_64-nacl/4.4.3/../../../../x86_64-nacl/lib/../lib64/libstdc++.a(functexcept.o)
 .group         0x0000000000000000        0x8 /Users/stevefar/nacl_sdk/pepper_45/toolchain/mac_x86_newlib/bin/../lib/gcc/x86_64-nacl/4.4.3/../../../../x86_64-nacl/lib/../lib64/libstdc++.a(functexcept.o)
 .group         0x0000000000000000        0x8 /Users/stevefar/nacl_sdk/pepper_45/toolchain/mac_x86_newlib/bin/../lib/gcc/x86_64-nacl/4.4.3/../../../../x86_64-nacl/lib/../lib64/libstdc++.a(functexcept.o)
 .group         0x0000000000000000        0x8 /Users/stevefar/nacl_sdk/pepper_45/toolchain/mac_x86_newlib/bin/../lib/gcc/x86_64-nacl/4.4.3/../../../../x86_64-nacl/lib/../lib64/libstdc++.a(functexcept.o)
 .group         0x0000000000000000        0x8 /Users/stevefar/nacl_sdk/pepper_45/toolchain/mac_x86_newlib/bin/../lib/gcc/x86_64-nacl/4.4.3/../../../../x86_64-nacl/lib/../lib64/libstdc++.a(functexcept.o)
 .group         0x0000000000000000        0x8 /Users/stevefar/nacl_sdk/pepper_45/toolchain/mac_x86_newlib/bin/../lib/gcc/x86_64-nacl/4.4.3/../../../../x86_64-nacl/lib/../lib64/libstdc++.a(functexcept.o)
 .group         0x0000000000000000        0x8 /Users/stevefar/nacl_sdk/pepper_45/toolchain/mac_x86_newlib/bin/../lib/gcc/x86_64-nacl/4.4.3/../../../../x86_64-nacl/lib/../lib64/libstdc++.a(functexcept.o)
 .group         0x0000000000000000        0x8 /Users/stevefar/nacl_sdk/pepper_45/toolchain/mac_x86_newlib/bin/../lib/gcc/x86_64-nacl/4.4.3/../../../../x86_64-nacl/lib/../lib64/libstdc++.a(functexcept.o)
 .group         0x0000000000000000        0x8 /Users/stevefar/nacl_sdk/pepper_45/toolchain/mac_x86_newlib/bin/../lib/gcc/x86_64-nacl/4.4.3/../../../../x86_64-nacl/lib/../lib64/libstdc++.a(functexcept.o)
 .group         0x0000000000000000        0x8 /Users/stevefar/nacl_sdk/pepper_45/toolchain/mac_x86_newlib/bin/../lib/gcc/x86_64-nacl/4.4.3/../../../../x86_64-nacl/lib/../lib64/libstdc++.a(functexcept.o)
 .group         0x0000000000000000        0x8 /Users/stevefar/nacl_sdk/pepper_45/toolchain/mac_x86_newlib/bin/../lib/gcc/x86_64-nacl/4.4.3/../../../../x86_64-nacl/lib/../lib64/libstdc++.a(functexcept.o)
 .group         0x0000000000000000        0x8 /Users/stevefar/nacl_sdk/pepper_45/toolchain/mac_x86_newlib/bin/../lib/gcc/x86_64-nacl/4.4.3/../../../../x86_64-nacl/lib/../lib64/libstdc++.a(functexcept.o)
 .group         0x0000000000000000        0x8 /Users/stevefar/nacl_sdk/pepper_45/toolchain/mac_x86_newlib/bin/../lib/gcc/x86_64-nacl/4.4.3/../../../../x86_64-nacl/lib/../lib64/libstdc++.a(functexcept.o)
 .group         0x0000000000000000        0x8 /Users/stevefar/nacl_sdk/pepper_45/toolchain/mac_x86_newlib/bin/../lib/gcc/x86_64-nacl/4.4.3/../../../../x86_64-nacl/lib/../lib64/libstdc++.a(functexcept.o)
 .group         0x0000000000000000        0x8 /Users/stevefar/nacl_sdk/pepper_45/toolchain/mac_x86_newlib/bin/../lib/gcc/x86_64-nacl/4.4.3/../../../../x86_64-nacl/lib/../lib64/libstdc++.a(functexcept.o)
 .group         0x0000000000000000        0x8 /Users/stevefar/nacl_sdk/pepper_45/toolchain/mac_x86_newlib/bin/../lib/gcc/x86_64-nacl/4.4.3/../../../../x86_64-nacl/lib/../lib64/libstdc++.a(functexcept.o)
 .group         0x0000000000000000        0x8 /Users/stevefar/nacl_sdk/pepper_45/toolchain/mac_x86_newlib/bin/../lib/gcc/x86_64-nacl/4.4.3/../../../../x86_64-nacl/lib/../lib64/libstdc++.a(functexcept.o)
 .group         0x0000000000000000        0x8 /Users/stevefar/nacl_sdk/pepper_45/toolchain/mac_x86_newlib/bin/../lib/gcc/x86_64-nacl/4.4.3/../../../../x86_64-nacl/lib/../lib64/libstdc++.a(functexcept.o)
 .group         0x0000000000000000        0x8 /Users/stevefar/nacl_sdk/pepper_45/toolchain/mac_x86_newlib/bin/../lib/gcc/x86_64-nacl/4.4.3/../../../../x86_64-nacl/lib/../lib64/libstdc++.a(functexcept.o)
 .group         0x0000000000000000        0x8 /Users/stevefar/nacl_sdk/pepper_45/toolchain/mac_x86_newlib/bin/../lib/gcc/x86_64-nacl/4.4.3/../../../../x86_64-nacl/lib/../lib64/libstdc++.a(functexcept.o)
 .group         0x0000000000000000        0x8 /Users/stevefar/nacl_sdk/pepper_45/toolchain/mac_x86_newlib/bin/../lib/gcc/x86_64-nacl/4.4.3/../../../../x86_64-nacl/lib/../lib64/libstdc++.a(functexcept.o)
 .group         0x0000000000000000        0x8 /Users/stevefar/nacl_sdk/pepper_45/toolchain/mac_x86_newlib/bin/../lib/gcc/x86_64-nacl/4.4.3/../../../../x86_64-nacl/lib/../lib64/libstdc++.a(functexcept.o)
 .note.GNU-stack
                0x0000000000000000        0x0 /Users/stevefar/nacl_sdk/pepper_45/toolchain/mac_x86_newlib/bin/../lib/gcc/x86_64-nacl/4.4.3/../../../../x86_64-nacl/lib/../lib64/libstdc++.a(functexcept.o)
 .group         0x0000000000000000        0x8 /Users/stevefar/nacl_sdk/pepper_45/toolchain/mac_x86_newlib/bin/../lib/gcc/x86_64-nacl/4.4.3/../../../../x86_64-nacl/lib/../lib64/libstdc++.a(ios_failure.o)
 .group         0x0000000000000000        0x8 /Users/stevefar/nacl_sdk/pepper_45/toolchain/mac_x86_newlib/bin/../lib/gcc/x86_64-nacl/4.4.3/../../../../x86_64-nacl/lib/../lib64/libstdc++.a(ios_failure.o)
 .group         0x0000000000000000        0x8 /Users/stevefar/nacl_sdk/pepper_45/toolchain/mac_x86_newlib/bin/../lib/gcc/x86_64-nacl/4.4.3/../../../../x86_64-nacl/lib/../lib64/libstdc++.a(ios_failure.o)
 .note.GNU-stack
                0x0000000000000000        0x0 /Users/stevefar/nacl_sdk/pepper_45/toolchain/mac_x86_newlib/bin/../lib/gcc/x86_64-nacl/4.4.3/../../../../x86_64-nacl/lib/../lib64/libstdc++.a(ios_failure.o)
 .group         0x0000000000000000        0x8 /Users/stevefar/nacl_sdk/pepper_45/toolchain/mac_x86_newlib/bin/../lib/gcc/x86_64-nacl/4.4.3/../../../../x86_64-nacl/lib/../lib64/libstdc++.a(stdexcept.o)
 .group         0x0000000000000000        0x8 /Users/stevefar/nacl_sdk/pepper_45/toolchain/mac_x86_newlib/bin/../lib/gcc/x86_64-nacl/4.4.3/../../../../x86_64-nacl/lib/../lib64/libstdc++.a(stdexcept.o)
 .group         0x0000000000000000        0x8 /Users/stevefar/nacl_sdk/pepper_45/toolchain/mac_x86_newlib/bin/../lib/gcc/x86_64-nacl/4.4.3/../../../../x86_64-nacl/lib/../lib64/libstdc++.a(stdexcept.o)
 .group         0x0000000000000000        0x8 /Users/stevefar/nacl_sdk/pepper_45/toolchain/mac_x86_newlib/bin/../lib/gcc/x86_64-nacl/4.4.3/../../../../x86_64-nacl/lib/../lib64/libstdc++.a(stdexcept.o)
 .group         0x0000000000000000        0x8 /Users/stevefar/nacl_sdk/pepper_45/toolchain/mac_x86_newlib/bin/../lib/gcc/x86_64-nacl/4.4.3/../../../../x86_64-nacl/lib/../lib64/libstdc++.a(stdexcept.o)
 .group         0x0000000000000000        0x8 /Users/stevefar/nacl_sdk/pepper_45/toolchain/mac_x86_newlib/bin/../lib/gcc/x86_64-nacl/4.4.3/../../../../x86_64-nacl/lib/../lib64/libstdc++.a(stdexcept.o)
 .group         0x0000000000000000        0x8 /Users/stevefar/nacl_sdk/pepper_45/toolchain/mac_x86_newlib/bin/../lib/gcc/x86_64-nacl/4.4.3/../../../../x86_64-nacl/lib/../lib64/libstdc++.a(stdexcept.o)
 .group         0x0000000000000000        0x8 /Users/stevefar/nacl_sdk/pepper_45/toolchain/mac_x86_newlib/bin/../lib/gcc/x86_64-nacl/4.4.3/../../../../x86_64-nacl/lib/../lib64/libstdc++.a(stdexcept.o)
 .group         0x0000000000000000        0x8 /Users/stevefar/nacl_sdk/pepper_45/toolchain/mac_x86_newlib/bin/../lib/gcc/x86_64-nacl/4.4.3/../../../../x86_64-nacl/lib/../lib64/libstdc++.a(stdexcept.o)
 .group         0x0000000000000000        0x8 /Users/stevefar/nacl_sdk/pepper_45/toolchain/mac_x86_newlib/bin/../lib/gcc/x86_64-nacl/4.4.3/../../../../x86_64-nacl/lib/../lib64/libstdc++.a(stdexcept.o)
 .group         0x0000000000000000        0x8 /Users/stevefar/nacl_sdk/pepper_45/toolchain/mac_x86_newlib/bin/../lib/gcc/x86_64-nacl/4.4.3/../../../../x86_64-nacl/lib/../lib64/libstdc++.a(stdexcept.o)
 .group         0x0000000000000000        0x8 /Users/stevefar/nacl_sdk/pepper_45/toolchain/mac_x86_newlib/bin/../lib/gcc/x86_64-nacl/4.4.3/../../../../x86_64-nacl/lib/../lib64/libstdc++.a(stdexcept.o)
 .group         0x0000000000000000        0x8 /Users/stevefar/nacl_sdk/pepper_45/toolchain/mac_x86_newlib/bin/../lib/gcc/x86_64-nacl/4.4.3/../../../../x86_64-nacl/lib/../lib64/libstdc++.a(stdexcept.o)
 .group         0x0000000000000000        0x8 /Users/stevefar/nacl_sdk/pepper_45/toolchain/mac_x86_newlib/bin/../lib/gcc/x86_64-nacl/4.4.3/../../../../x86_64-nacl/lib/../lib64/libstdc++.a(stdexcept.o)
 .group         0x0000000000000000        0x8 /Users/stevefar/nacl_sdk/pepper_45/toolchain/mac_x86_newlib/bin/../lib/gcc/x86_64-nacl/4.4.3/../../../../x86_64-nacl/lib/../lib64/libstdc++.a(stdexcept.o)
 .group         0x0000000000000000        0x8 /Users/stevefar/nacl_sdk/pepper_45/toolchain/mac_x86_newlib/bin/../lib/gcc/x86_64-nacl/4.4.3/../../../../x86_64-nacl/lib/../lib64/libstdc++.a(stdexcept.o)
 .group         0x0000000000000000        0x8 /Users/stevefar/nacl_sdk/pepper_45/toolchain/mac_x86_newlib/bin/../lib/gcc/x86_64-nacl/4.4.3/../../../../x86_64-nacl/lib/../lib64/libstdc++.a(stdexcept.o)
 .group         0x0000000000000000        0x8 /Users/stevefar/nacl_sdk/pepper_45/toolchain/mac_x86_newlib/bin/../lib/gcc/x86_64-nacl/4.4.3/../../../../x86_64-nacl/lib/../lib64/libstdc++.a(stdexcept.o)
 .group         0x0000000000000000        0x8 /Users/stevefar/nacl_sdk/pepper_45/toolchain/mac_x86_newlib/bin/../lib/gcc/x86_64-nacl/4.4.3/../../../../x86_64-nacl/lib/../lib64/libstdc++.a(stdexcept.o)
 .group         0x0000000000000000        0x8 /Users/stevefar/nacl_sdk/pepper_45/toolchain/mac_x86_newlib/bin/../lib/gcc/x86_64-nacl/4.4.3/../../../../x86_64-nacl/lib/../lib64/libstdc++.a(stdexcept.o)
 .group         0x0000000000000000        0x8 /Users/stevefar/nacl_sdk/pepper_45/toolchain/mac_x86_newlib/bin/../lib/gcc/x86_64-nacl/4.4.3/../../../../x86_64-nacl/lib/../lib64/libstdc++.a(stdexcept.o)
 .group         0x0000000000000000        0x8 /Users/stevefar/nacl_sdk/pepper_45/toolchain/mac_x86_newlib/bin/../lib/gcc/x86_64-nacl/4.4.3/../../../../x86_64-nacl/lib/../lib64/libstdc++.a(stdexcept.o)
 .group         0x0000000000000000        0x8 /Users/stevefar/nacl_sdk/pepper_45/toolchain/mac_x86_newlib/bin/../lib/gcc/x86_64-nacl/4.4.3/../../../../x86_64-nacl/lib/../lib64/libstdc++.a(stdexcept.o)
 .group         0x0000000000000000        0x8 /Users/stevefar/nacl_sdk/pepper_45/toolchain/mac_x86_newlib/bin/../lib/gcc/x86_64-nacl/4.4.3/../../../../x86_64-nacl/lib/../lib64/libstdc++.a(stdexcept.o)
 .group         0x0000000000000000        0x8 /Users/stevefar/nacl_sdk/pepper_45/toolchain/mac_x86_newlib/bin/../lib/gcc/x86_64-nacl/4.4.3/../../../../x86_64-nacl/lib/../lib64/libstdc++.a(stdexcept.o)
 .group         0x0000000000000000        0x8 /Users/stevefar/nacl_sdk/pepper_45/toolchain/mac_x86_newlib/bin/../lib/gcc/x86_64-nacl/4.4.3/../../../../x86_64-nacl/lib/../lib64/libstdc++.a(stdexcept.o)
 .group         0x0000000000000000        0x8 /Users/stevefar/nacl_sdk/pepper_45/toolchain/mac_x86_newlib/bin/../lib/gcc/x86_64-nacl/4.4.3/../../../../x86_64-nacl/lib/../lib64/libstdc++.a(stdexcept.o)
 .group         0x0000000000000000        0x8 /Users/stevefar/nacl_sdk/pepper_45/toolchain/mac_x86_newlib/bin/../lib/gcc/x86_64-nacl/4.4.3/../../../../x86_64-nacl/lib/../lib64/libstdc++.a(stdexcept.o)
 .group         0x0000000000000000        0x8 /Users/stevefar/nacl_sdk/pepper_45/toolchain/mac_x86_newlib/bin/../lib/gcc/x86_64-nacl/4.4.3/../../../../x86_64-nacl/lib/../lib64/libstdc++.a(stdexcept.o)
 .group         0x0000000000000000        0x8 /Users/stevefar/nacl_sdk/pepper_45/toolchain/mac_x86_newlib/bin/../lib/gcc/x86_64-nacl/4.4.3/../../../../x86_64-nacl/lib/../lib64/libstdc++.a(stdexcept.o)
 .group         0x0000000000000000        0x8 /Users/stevefar/nacl_sdk/pepper_45/toolchain/mac_x86_newlib/bin/../lib/gcc/x86_64-nacl/4.4.3/../../../../x86_64-nacl/lib/../lib64/libstdc++.a(stdexcept.o)
 .group         0x0000000000000000        0x8 /Users/stevefar/nacl_sdk/pepper_45/toolchain/mac_x86_newlib/bin/../lib/gcc/x86_64-nacl/4.4.3/../../../../x86_64-nacl/lib/../lib64/libstdc++.a(stdexcept.o)
 .group         0x0000000000000000        0x8 /Users/stevefar/nacl_sdk/pepper_45/toolchain/mac_x86_newlib/bin/../lib/gcc/x86_64-nacl/4.4.3/../../../../x86_64-nacl/lib/../lib64/libstdc++.a(stdexcept.o)
 .group         0x0000000000000000        0x8 /Users/stevefar/nacl_sdk/pepper_45/toolchain/mac_x86_newlib/bin/../lib/gcc/x86_64-nacl/4.4.3/../../../../x86_64-nacl/lib/../lib64/libstdc++.a(stdexcept.o)
 .group         0x0000000000000000        0x8 /Users/stevefar/nacl_sdk/pepper_45/toolchain/mac_x86_newlib/bin/../lib/gcc/x86_64-nacl/4.4.3/../../../../x86_64-nacl/lib/../lib64/libstdc++.a(stdexcept.o)
 .group         0x0000000000000000        0x8 /Users/stevefar/nacl_sdk/pepper_45/toolchain/mac_x86_newlib/bin/../lib/gcc/x86_64-nacl/4.4.3/../../../../x86_64-nacl/lib/../lib64/libstdc++.a(stdexcept.o)
 .group         0x0000000000000000        0x8 /Users/stevefar/nacl_sdk/pepper_45/toolchain/mac_x86_newlib/bin/../lib/gcc/x86_64-nacl/4.4.3/../../../../x86_64-nacl/lib/../lib64/libstdc++.a(stdexcept.o)
 .group         0x0000000000000000        0x8 /Users/stevefar/nacl_sdk/pepper_45/toolchain/mac_x86_newlib/bin/../lib/gcc/x86_64-nacl/4.4.3/../../../../x86_64-nacl/lib/../lib64/libstdc++.a(stdexcept.o)
 .group         0x0000000000000000        0x8 /Users/stevefar/nacl_sdk/pepper_45/toolchain/mac_x86_newlib/bin/../lib/gcc/x86_64-nacl/4.4.3/../../../../x86_64-nacl/lib/../lib64/libstdc++.a(stdexcept.o)
 .group         0x0000000000000000        0x8 /Users/stevefar/nacl_sdk/pepper_45/toolchain/mac_x86_newlib/bin/../lib/gcc/x86_64-nacl/4.4.3/../../../../x86_64-nacl/lib/../lib64/libstdc++.a(stdexcept.o)
 .group         0x0000000000000000        0x8 /Users/stevefar/nacl_sdk/pepper_45/toolchain/mac_x86_newlib/bin/../lib/gcc/x86_64-nacl/4.4.3/../../../../x86_64-nacl/lib/../lib64/libstdc++.a(stdexcept.o)
 .text._ZNSt15underflow_errorD0Ev
                0x0000000000000000       0x40 /Users/stevefar/nacl_sdk/pepper_45/toolchain/mac_x86_newlib/bin/../lib/gcc/x86_64-nacl/4.4.3/../../../../x86_64-nacl/lib/../lib64/libstdc++.a(stdexcept.o)
 .text._ZNSt15underflow_errorD1Ev
                0x0000000000000000       0x20 /Users/stevefar/nacl_sdk/pepper_45/toolchain/mac_x86_newlib/bin/../lib/gcc/x86_64-nacl/4.4.3/../../../../x86_64-nacl/lib/../lib64/libstdc++.a(stdexcept.o)
 .text._ZNSt14overflow_errorD0Ev
                0x0000000000000000       0x40 /Users/stevefar/nacl_sdk/pepper_45/toolchain/mac_x86_newlib/bin/../lib/gcc/x86_64-nacl/4.4.3/../../../../x86_64-nacl/lib/../lib64/libstdc++.a(stdexcept.o)
 .text._ZNSt14overflow_errorD1Ev
                0x0000000000000000       0x20 /Users/stevefar/nacl_sdk/pepper_45/toolchain/mac_x86_newlib/bin/../lib/gcc/x86_64-nacl/4.4.3/../../../../x86_64-nacl/lib/../lib64/libstdc++.a(stdexcept.o)
 .text._ZNSt11range_errorD0Ev
                0x0000000000000000       0x40 /Users/stevefar/nacl_sdk/pepper_45/toolchain/mac_x86_newlib/bin/../lib/gcc/x86_64-nacl/4.4.3/../../../../x86_64-nacl/lib/../lib64/libstdc++.a(stdexcept.o)
 .text._ZNSt11range_errorD1Ev
                0x0000000000000000       0x20 /Users/stevefar/nacl_sdk/pepper_45/toolchain/mac_x86_newlib/bin/../lib/gcc/x86_64-nacl/4.4.3/../../../../x86_64-nacl/lib/../lib64/libstdc++.a(stdexcept.o)
 .text._ZNSt12out_of_rangeD0Ev
                0x0000000000000000       0x40 /Users/stevefar/nacl_sdk/pepper_45/toolchain/mac_x86_newlib/bin/../lib/gcc/x86_64-nacl/4.4.3/../../../../x86_64-nacl/lib/../lib64/libstdc++.a(stdexcept.o)
 .text._ZNSt12out_of_rangeD1Ev
                0x0000000000000000       0x20 /Users/stevefar/nacl_sdk/pepper_45/toolchain/mac_x86_newlib/bin/../lib/gcc/x86_64-nacl/4.4.3/../../../../x86_64-nacl/lib/../lib64/libstdc++.a(stdexcept.o)
 .text._ZNSt12length_errorD0Ev
                0x0000000000000000       0x40 /Users/stevefar/nacl_sdk/pepper_45/toolchain/mac_x86_newlib/bin/../lib/gcc/x86_64-nacl/4.4.3/../../../../x86_64-nacl/lib/../lib64/libstdc++.a(stdexcept.o)
 .text._ZNSt12length_errorD1Ev
                0x0000000000000000       0x20 /Users/stevefar/nacl_sdk/pepper_45/toolchain/mac_x86_newlib/bin/../lib/gcc/x86_64-nacl/4.4.3/../../../../x86_64-nacl/lib/../lib64/libstdc++.a(stdexcept.o)
 .text._ZNSt16invalid_argumentD0Ev
                0x0000000000000000       0x40 /Users/stevefar/nacl_sdk/pepper_45/toolchain/mac_x86_newlib/bin/../lib/gcc/x86_64-nacl/4.4.3/../../../../x86_64-nacl/lib/../lib64/libstdc++.a(stdexcept.o)
 .text._ZNSt16invalid_argumentD1Ev
                0x0000000000000000       0x20 /Users/stevefar/nacl_sdk/pepper_45/toolchain/mac_x86_newlib/bin/../lib/gcc/x86_64-nacl/4.4.3/../../../../x86_64-nacl/lib/../lib64/libstdc++.a(stdexcept.o)
 .text._ZNSt12domain_errorD0Ev
                0x0000000000000000       0x40 /Users/stevefar/nacl_sdk/pepper_45/toolchain/mac_x86_newlib/bin/../lib/gcc/x86_64-nacl/4.4.3/../../../../x86_64-nacl/lib/../lib64/libstdc++.a(stdexcept.o)
 .text._ZNSt12domain_errorD1Ev
                0x0000000000000000       0x20 /Users/stevefar/nacl_sdk/pepper_45/toolchain/mac_x86_newlib/bin/../lib/gcc/x86_64-nacl/4.4.3/../../../../x86_64-nacl/lib/../lib64/libstdc++.a(stdexcept.o)
 .rodata._ZTVSt15underflow_error
                0x0000000000000000       0x14 /Users/stevefar/nacl_sdk/pepper_45/toolchain/mac_x86_newlib/bin/../lib/gcc/x86_64-nacl/4.4.3/../../../../x86_64-nacl/lib/../lib64/libstdc++.a(stdexcept.o)
 .rodata._ZTISt15underflow_error
                0x0000000000000000        0xc /Users/stevefar/nacl_sdk/pepper_45/toolchain/mac_x86_newlib/bin/../lib/gcc/x86_64-nacl/4.4.3/../../../../x86_64-nacl/lib/../lib64/libstdc++.a(stdexcept.o)
 .rodata._ZTSSt15underflow_error
                0x0000000000000000       0x14 /Users/stevefar/nacl_sdk/pepper_45/toolchain/mac_x86_newlib/bin/../lib/gcc/x86_64-nacl/4.4.3/../../../../x86_64-nacl/lib/../lib64/libstdc++.a(stdexcept.o)
 .rodata._ZTVSt14overflow_error
                0x0000000000000000       0x14 /Users/stevefar/nacl_sdk/pepper_45/toolchain/mac_x86_newlib/bin/../lib/gcc/x86_64-nacl/4.4.3/../../../../x86_64-nacl/lib/../lib64/libstdc++.a(stdexcept.o)
 .rodata._ZTISt14overflow_error
                0x0000000000000000        0xc /Users/stevefar/nacl_sdk/pepper_45/toolchain/mac_x86_newlib/bin/../lib/gcc/x86_64-nacl/4.4.3/../../../../x86_64-nacl/lib/../lib64/libstdc++.a(stdexcept.o)
 .rodata._ZTSSt14overflow_error
                0x0000000000000000       0x13 /Users/stevefar/nacl_sdk/pepper_45/toolchain/mac_x86_newlib/bin/../lib/gcc/x86_64-nacl/4.4.3/../../../../x86_64-nacl/lib/../lib64/libstdc++.a(stdexcept.o)
 .rodata._ZTVSt11range_error
                0x0000000000000000       0x14 /Users/stevefar/nacl_sdk/pepper_45/toolchain/mac_x86_newlib/bin/../lib/gcc/x86_64-nacl/4.4.3/../../../../x86_64-nacl/lib/../lib64/libstdc++.a(stdexcept.o)
 .rodata._ZTISt11range_error
                0x0000000000000000        0xc /Users/stevefar/nacl_sdk/pepper_45/toolchain/mac_x86_newlib/bin/../lib/gcc/x86_64-nacl/4.4.3/../../../../x86_64-nacl/lib/../lib64/libstdc++.a(stdexcept.o)
 .rodata._ZTSSt11range_error
                0x0000000000000000       0x10 /Users/stevefar/nacl_sdk/pepper_45/toolchain/mac_x86_newlib/bin/../lib/gcc/x86_64-nacl/4.4.3/../../../../x86_64-nacl/lib/../lib64/libstdc++.a(stdexcept.o)
 .rodata._ZTVSt12out_of_range
                0x0000000000000000       0x14 /Users/stevefar/nacl_sdk/pepper_45/toolchain/mac_x86_newlib/bin/../lib/gcc/x86_64-nacl/4.4.3/../../../../x86_64-nacl/lib/../lib64/libstdc++.a(stdexcept.o)
 .rodata._ZTISt12out_of_range
                0x0000000000000000        0xc /Users/stevefar/nacl_sdk/pepper_45/toolchain/mac_x86_newlib/bin/../lib/gcc/x86_64-nacl/4.4.3/../../../../x86_64-nacl/lib/../lib64/libstdc++.a(stdexcept.o)
 .rodata._ZTSSt12out_of_range
                0x0000000000000000       0x11 /Users/stevefar/nacl_sdk/pepper_45/toolchain/mac_x86_newlib/bin/../lib/gcc/x86_64-nacl/4.4.3/../../../../x86_64-nacl/lib/../lib64/libstdc++.a(stdexcept.o)
 .rodata._ZTVSt12length_error
                0x0000000000000000       0x14 /Users/stevefar/nacl_sdk/pepper_45/toolchain/mac_x86_newlib/bin/../lib/gcc/x86_64-nacl/4.4.3/../../../../x86_64-nacl/lib/../lib64/libstdc++.a(stdexcept.o)
 .rodata._ZTISt12length_error
                0x0000000000000000        0xc /Users/stevefar/nacl_sdk/pepper_45/toolchain/mac_x86_newlib/bin/../lib/gcc/x86_64-nacl/4.4.3/../../../../x86_64-nacl/lib/../lib64/libstdc++.a(stdexcept.o)
 .rodata._ZTSSt12length_error
                0x0000000000000000       0x11 /Users/stevefar/nacl_sdk/pepper_45/toolchain/mac_x86_newlib/bin/../lib/gcc/x86_64-nacl/4.4.3/../../../../x86_64-nacl/lib/../lib64/libstdc++.a(stdexcept.o)
 .rodata._ZTVSt16invalid_argument
                0x0000000000000000       0x14 /Users/stevefar/nacl_sdk/pepper_45/toolchain/mac_x86_newlib/bin/../lib/gcc/x86_64-nacl/4.4.3/../../../../x86_64-nacl/lib/../lib64/libstdc++.a(stdexcept.o)
 .rodata._ZTISt16invalid_argument
                0x0000000000000000        0xc /Users/stevefar/nacl_sdk/pepper_45/toolchain/mac_x86_newlib/bin/../lib/gcc/x86_64-nacl/4.4.3/../../../../x86_64-nacl/lib/../lib64/libstdc++.a(stdexcept.o)
 .rodata._ZTSSt16invalid_argument
                0x0000000000000000       0x15 /Users/stevefar/nacl_sdk/pepper_45/toolchain/mac_x86_newlib/bin/../lib/gcc/x86_64-nacl/4.4.3/../../../../x86_64-nacl/lib/../lib64/libstdc++.a(stdexcept.o)
 .rodata._ZTVSt12domain_error
                0x0000000000000000       0x14 /Users/stevefar/nacl_sdk/pepper_45/toolchain/mac_x86_newlib/bin/../lib/gcc/x86_64-nacl/4.4.3/../../../../x86_64-nacl/lib/../lib64/libstdc++.a(stdexcept.o)
 .rodata._ZTISt12domain_error
                0x0000000000000000        0xc /Users/stevefar/nacl_sdk/pepper_45/toolchain/mac_x86_newlib/bin/../lib/gcc/x86_64-nacl/4.4.3/../../../../x86_64-nacl/lib/../lib64/libstdc++.a(stdexcept.o)
 .rodata._ZTSSt12domain_error
                0x0000000000000000       0x11 /Users/stevefar/nacl_sdk/pepper_45/toolchain/mac_x86_newlib/bin/../lib/gcc/x86_64-nacl/4.4.3/../../../../x86_64-nacl/lib/../lib64/libstdc++.a(stdexcept.o)
 .note.GNU-stack
                0x0000000000000000        0x0 /Users/stevefar/nacl_sdk/pepper_45/toolchain/mac_x86_newlib/bin/../lib/gcc/x86_64-nacl/4.4.3/../../../../x86_64-nacl/lib/../lib64/libstdc++.a(stdexcept.o)
 .group         0x0000000000000000        0x8 /Users/stevefar/nacl_sdk/pepper_45/toolchain/mac_x86_newlib/bin/../lib/gcc/x86_64-nacl/4.4.3/../../../../x86_64-nacl/lib/../lib64/libstdc++.a(system_error.o)
 .group         0x0000000000000000        0x8 /Users/stevefar/nacl_sdk/pepper_45/toolchain/mac_x86_newlib/bin/../lib/gcc/x86_64-nacl/4.4.3/../../../../x86_64-nacl/lib/../lib64/libstdc++.a(system_error.o)
 .group         0x0000000000000000        0x8 /Users/stevefar/nacl_sdk/pepper_45/toolchain/mac_x86_newlib/bin/../lib/gcc/x86_64-nacl/4.4.3/../../../../x86_64-nacl/lib/../lib64/libstdc++.a(system_error.o)
 .group         0x0000000000000000        0x8 /Users/stevefar/nacl_sdk/pepper_45/toolchain/mac_x86_newlib/bin/../lib/gcc/x86_64-nacl/4.4.3/../../../../x86_64-nacl/lib/../lib64/libstdc++.a(system_error.o)
 .group         0x0000000000000000        0x8 /Users/stevefar/nacl_sdk/pepper_45/toolchain/mac_x86_newlib/bin/../lib/gcc/x86_64-nacl/4.4.3/../../../../x86_64-nacl/lib/../lib64/libstdc++.a(system_error.o)
 .group         0x0000000000000000        0x8 /Users/stevefar/nacl_sdk/pepper_45/toolchain/mac_x86_newlib/bin/../lib/gcc/x86_64-nacl/4.4.3/../../../../x86_64-nacl/lib/../lib64/libstdc++.a(system_error.o)
 .group         0x0000000000000000        0x8 /Users/stevefar/nacl_sdk/pepper_45/toolchain/mac_x86_newlib/bin/../lib/gcc/x86_64-nacl/4.4.3/../../../../x86_64-nacl/lib/../lib64/libstdc++.a(system_error.o)
 .group         0x0000000000000000        0x8 /Users/stevefar/nacl_sdk/pepper_45/toolchain/mac_x86_newlib/bin/../lib/gcc/x86_64-nacl/4.4.3/../../../../x86_64-nacl/lib/../lib64/libstdc++.a(system_error.o)
 .note.GNU-stack
                0x0000000000000000        0x0 /Users/stevefar/nacl_sdk/pepper_45/toolchain/mac_x86_newlib/bin/../lib/gcc/x86_64-nacl/4.4.3/../../../../x86_64-nacl/lib/../lib64/libstdc++.a(system_error.o)
 .group         0x0000000000000000        0x8 /Users/stevefar/nacl_sdk/pepper_45/toolchain/mac_x86_newlib/bin/../lib/gcc/x86_64-nacl/4.4.3/../../../../x86_64-nacl/lib/../lib64/libstdc++.a(bad_cast.o)
 .group         0x0000000000000000        0x8 /Users/stevefar/nacl_sdk/pepper_45/toolchain/mac_x86_newlib/bin/../lib/gcc/x86_64-nacl/4.4.3/../../../../x86_64-nacl/lib/../lib64/libstdc++.a(bad_cast.o)
 .group         0x0000000000000000        0x8 /Users/stevefar/nacl_sdk/pepper_45/toolchain/mac_x86_newlib/bin/../lib/gcc/x86_64-nacl/4.4.3/../../../../x86_64-nacl/lib/../lib64/libstdc++.a(bad_cast.o)
 .note.GNU-stack
                0x0000000000000000        0x0 /Users/stevefar/nacl_sdk/pepper_45/toolchain/mac_x86_newlib/bin/../lib/gcc/x86_64-nacl/4.4.3/../../../../x86_64-nacl/lib/../lib64/libstdc++.a(bad_cast.o)
 .group         0x0000000000000000        0x8 /Users/stevefar/nacl_sdk/pepper_45/toolchain/mac_x86_newlib/bin/../lib/gcc/x86_64-nacl/4.4.3/../../../../x86_64-nacl/lib/../lib64/libstdc++.a(bad_typeid.o)
 .group         0x0000000000000000        0x8 /Users/stevefar/nacl_sdk/pepper_45/toolchain/mac_x86_newlib/bin/../lib/gcc/x86_64-nacl/4.4.3/../../../../x86_64-nacl/lib/../lib64/libstdc++.a(bad_typeid.o)
 .group         0x0000000000000000        0x8 /Users/stevefar/nacl_sdk/pepper_45/toolchain/mac_x86_newlib/bin/../lib/gcc/x86_64-nacl/4.4.3/../../../../x86_64-nacl/lib/../lib64/libstdc++.a(bad_typeid.o)
 .note.GNU-stack
                0x0000000000000000        0x0 /Users/stevefar/nacl_sdk/pepper_45/toolchain/mac_x86_newlib/bin/../lib/gcc/x86_64-nacl/4.4.3/../../../../x86_64-nacl/lib/../lib64/libstdc++.a(bad_typeid.o)
 .group         0x0000000000000000        0x8 /Users/stevefar/nacl_sdk/pepper_45/toolchain/mac_x86_newlib/bin/../lib/gcc/x86_64-nacl/4.4.3/../../../../x86_64-nacl/lib/../lib64/libstdc++.a(eh_alloc.o)
 .group         0x0000000000000000        0x8 /Users/stevefar/nacl_sdk/pepper_45/toolchain/mac_x86_newlib/bin/../lib/gcc/x86_64-nacl/4.4.3/../../../../x86_64-nacl/lib/../lib64/libstdc++.a(eh_alloc.o)
 .group         0x0000000000000000        0x8 /Users/stevefar/nacl_sdk/pepper_45/toolchain/mac_x86_newlib/bin/../lib/gcc/x86_64-nacl/4.4.3/../../../../x86_64-nacl/lib/../lib64/libstdc++.a(eh_alloc.o)
 .group         0x0000000000000000        0x8 /Users/stevefar/nacl_sdk/pepper_45/toolchain/mac_x86_newlib/bin/../lib/gcc/x86_64-nacl/4.4.3/../../../../x86_64-nacl/lib/../lib64/libstdc++.a(eh_alloc.o)
 .group         0x0000000000000000        0x8 /Users/stevefar/nacl_sdk/pepper_45/toolchain/mac_x86_newlib/bin/../lib/gcc/x86_64-nacl/4.4.3/../../../../x86_64-nacl/lib/../lib64/libstdc++.a(eh_alloc.o)
 .group         0x0000000000000000        0x8 /Users/stevefar/nacl_sdk/pepper_45/toolchain/mac_x86_newlib/bin/../lib/gcc/x86_64-nacl/4.4.3/../../../../x86_64-nacl/lib/../lib64/libstdc++.a(eh_alloc.o)
 .group         0x0000000000000000        0x8 /Users/stevefar/nacl_sdk/pepper_45/toolchain/mac_x86_newlib/bin/../lib/gcc/x86_64-nacl/4.4.3/../../../../x86_64-nacl/lib/../lib64/libstdc++.a(eh_alloc.o)
 .group         0x0000000000000000        0x8 /Users/stevefar/nacl_sdk/pepper_45/toolchain/mac_x86_newlib/bin/../lib/gcc/x86_64-nacl/4.4.3/../../../../x86_64-nacl/lib/../lib64/libstdc++.a(eh_alloc.o)
 .group         0x0000000000000000        0x8 /Users/stevefar/nacl_sdk/pepper_45/toolchain/mac_x86_newlib/bin/../lib/gcc/x86_64-nacl/4.4.3/../../../../x86_64-nacl/lib/../lib64/libstdc++.a(eh_alloc.o)
 .group         0x0000000000000000        0x8 /Users/stevefar/nacl_sdk/pepper_45/toolchain/mac_x86_newlib/bin/../lib/gcc/x86_64-nacl/4.4.3/../../../../x86_64-nacl/lib/../lib64/libstdc++.a(eh_alloc.o)
 .group         0x0000000000000000        0x8 /Users/stevefar/nacl_sdk/pepper_45/toolchain/mac_x86_newlib/bin/../lib/gcc/x86_64-nacl/4.4.3/../../../../x86_64-nacl/lib/../lib64/libstdc++.a(eh_alloc.o)
 .group         0x0000000000000000        0x8 /Users/stevefar/nacl_sdk/pepper_45/toolchain/mac_x86_newlib/bin/../lib/gcc/x86_64-nacl/4.4.3/../../../../x86_64-nacl/lib/../lib64/libstdc++.a(eh_alloc.o)
 .group         0x0000000000000000        0x8 /Users/stevefar/nacl_sdk/pepper_45/toolchain/mac_x86_newlib/bin/../lib/gcc/x86_64-nacl/4.4.3/../../../../x86_64-nacl/lib/../lib64/libstdc++.a(eh_alloc.o)
 .text._ZNK9__gnu_cxx24__concurrence_lock_error4whatEv
                0x0000000000000000       0x20 /Users/stevefar/nacl_sdk/pepper_45/toolchain/mac_x86_newlib/bin/../lib/gcc/x86_64-nacl/4.4.3/../../../../x86_64-nacl/lib/../lib64/libstdc++.a(eh_alloc.o)
 .text._ZNK9__gnu_cxx26__concurrence_unlock_error4whatEv
                0x0000000000000000       0x20 /Users/stevefar/nacl_sdk/pepper_45/toolchain/mac_x86_newlib/bin/../lib/gcc/x86_64-nacl/4.4.3/../../../../x86_64-nacl/lib/../lib64/libstdc++.a(eh_alloc.o)
 .text._ZN9__gnu_cxx24__concurrence_lock_errorD1Ev
                0x0000000000000000       0x20 /Users/stevefar/nacl_sdk/pepper_45/toolchain/mac_x86_newlib/bin/../lib/gcc/x86_64-nacl/4.4.3/../../../../x86_64-nacl/lib/../lib64/libstdc++.a(eh_alloc.o)
 .text._ZN9__gnu_cxx26__concurrence_unlock_errorD1Ev
                0x0000000000000000       0x20 /Users/stevefar/nacl_sdk/pepper_45/toolchain/mac_x86_newlib/bin/../lib/gcc/x86_64-nacl/4.4.3/../../../../x86_64-nacl/lib/../lib64/libstdc++.a(eh_alloc.o)
 .text._ZN9__gnu_cxx24__concurrence_lock_errorD0Ev
                0x0000000000000000       0x40 /Users/stevefar/nacl_sdk/pepper_45/toolchain/mac_x86_newlib/bin/../lib/gcc/x86_64-nacl/4.4.3/../../../../x86_64-nacl/lib/../lib64/libstdc++.a(eh_alloc.o)
 .text._ZN9__gnu_cxx26__concurrence_unlock_errorD0Ev
                0x0000000000000000       0x40 /Users/stevefar/nacl_sdk/pepper_45/toolchain/mac_x86_newlib/bin/../lib/gcc/x86_64-nacl/4.4.3/../../../../x86_64-nacl/lib/../lib64/libstdc++.a(eh_alloc.o)
 .rodata._ZTIN9__gnu_cxx24__concurrence_lock_errorE
                0x0000000000000000        0xc /Users/stevefar/nacl_sdk/pepper_45/toolchain/mac_x86_newlib/bin/../lib/gcc/x86_64-nacl/4.4.3/../../../../x86_64-nacl/lib/../lib64/libstdc++.a(eh_alloc.o)
 .rodata._ZTSN9__gnu_cxx24__concurrence_lock_errorE
                0x0000000000000000       0x27 /Users/stevefar/nacl_sdk/pepper_45/toolchain/mac_x86_newlib/bin/../lib/gcc/x86_64-nacl/4.4.3/../../../../x86_64-nacl/lib/../lib64/libstdc++.a(eh_alloc.o)
 .rodata._ZTVN9__gnu_cxx24__concurrence_lock_errorE
                0x0000000000000000       0x14 /Users/stevefar/nacl_sdk/pepper_45/toolchain/mac_x86_newlib/bin/../lib/gcc/x86_64-nacl/4.4.3/../../../../x86_64-nacl/lib/../lib64/libstdc++.a(eh_alloc.o)
 .rodata._ZTIN9__gnu_cxx26__concurrence_unlock_errorE
                0x0000000000000000        0xc /Users/stevefar/nacl_sdk/pepper_45/toolchain/mac_x86_newlib/bin/../lib/gcc/x86_64-nacl/4.4.3/../../../../x86_64-nacl/lib/../lib64/libstdc++.a(eh_alloc.o)
 .rodata._ZTSN9__gnu_cxx26__concurrence_unlock_errorE
                0x0000000000000000       0x29 /Users/stevefar/nacl_sdk/pepper_45/toolchain/mac_x86_newlib/bin/../lib/gcc/x86_64-nacl/4.4.3/../../../../x86_64-nacl/lib/../lib64/libstdc++.a(eh_alloc.o)
 .rodata._ZTVN9__gnu_cxx26__concurrence_unlock_errorE
                0x0000000000000000       0x14 /Users/stevefar/nacl_sdk/pepper_45/toolchain/mac_x86_newlib/bin/../lib/gcc/x86_64-nacl/4.4.3/../../../../x86_64-nacl/lib/../lib64/libstdc++.a(eh_alloc.o)
 .note.GNU-stack
                0x0000000000000000        0x0 /Users/stevefar/nacl_sdk/pepper_45/toolchain/mac_x86_newlib/bin/../lib/gcc/x86_64-nacl/4.4.3/../../../../x86_64-nacl/lib/../lib64/libstdc++.a(eh_alloc.o)
 .note.GNU-stack
                0x0000000000000000        0x0 /Users/stevefar/nacl_sdk/pepper_45/toolchain/mac_x86_newlib/bin/../lib/gcc/x86_64-nacl/4.4.3/../../../../x86_64-nacl/lib/../lib64/libstdc++.a(eh_call.o)
 .group         0x0000000000000000        0x8 /Users/stevefar/nacl_sdk/pepper_45/toolchain/mac_x86_newlib/bin/../lib/gcc/x86_64-nacl/4.4.3/../../../../x86_64-nacl/lib/../lib64/libstdc++.a(eh_exception.o)
 .group         0x0000000000000000        0x8 /Users/stevefar/nacl_sdk/pepper_45/toolchain/mac_x86_newlib/bin/../lib/gcc/x86_64-nacl/4.4.3/../../../../x86_64-nacl/lib/../lib64/libstdc++.a(eh_exception.o)
 .group         0x0000000000000000        0x8 /Users/stevefar/nacl_sdk/pepper_45/toolchain/mac_x86_newlib/bin/../lib/gcc/x86_64-nacl/4.4.3/../../../../x86_64-nacl/lib/../lib64/libstdc++.a(eh_exception.o)
 .group         0x0000000000000000        0x8 /Users/stevefar/nacl_sdk/pepper_45/toolchain/mac_x86_newlib/bin/../lib/gcc/x86_64-nacl/4.4.3/../../../../x86_64-nacl/lib/../lib64/libstdc++.a(eh_exception.o)
 .group         0x0000000000000000        0x8 /Users/stevefar/nacl_sdk/pepper_45/toolchain/mac_x86_newlib/bin/../lib/gcc/x86_64-nacl/4.4.3/../../../../x86_64-nacl/lib/../lib64/libstdc++.a(eh_exception.o)
 .group         0x0000000000000000        0x8 /Users/stevefar/nacl_sdk/pepper_45/toolchain/mac_x86_newlib/bin/../lib/gcc/x86_64-nacl/4.4.3/../../../../x86_64-nacl/lib/../lib64/libstdc++.a(eh_exception.o)
 .group         0x0000000000000000        0x8 /Users/stevefar/nacl_sdk/pepper_45/toolchain/mac_x86_newlib/bin/../lib/gcc/x86_64-nacl/4.4.3/../../../../x86_64-nacl/lib/../lib64/libstdc++.a(eh_exception.o)
 .group         0x0000000000000000        0x8 /Users/stevefar/nacl_sdk/pepper_45/toolchain/mac_x86_newlib/bin/../lib/gcc/x86_64-nacl/4.4.3/../../../../x86_64-nacl/lib/../lib64/libstdc++.a(eh_exception.o)
 .group         0x0000000000000000        0x8 /Users/stevefar/nacl_sdk/pepper_45/toolchain/mac_x86_newlib/bin/../lib/gcc/x86_64-nacl/4.4.3/../../../../x86_64-nacl/lib/../lib64/libstdc++.a(eh_exception.o)
 .group         0x0000000000000000        0x8 /Users/stevefar/nacl_sdk/pepper_45/toolchain/mac_x86_newlib/bin/../lib/gcc/x86_64-nacl/4.4.3/../../../../x86_64-nacl/lib/../lib64/libstdc++.a(eh_exception.o)
 .group         0x0000000000000000        0x8 /Users/stevefar/nacl_sdk/pepper_45/toolchain/mac_x86_newlib/bin/../lib/gcc/x86_64-nacl/4.4.3/../../../../x86_64-nacl/lib/../lib64/libstdc++.a(eh_exception.o)
 .group         0x0000000000000000        0x8 /Users/stevefar/nacl_sdk/pepper_45/toolchain/mac_x86_newlib/bin/../lib/gcc/x86_64-nacl/4.4.3/../../../../x86_64-nacl/lib/../lib64/libstdc++.a(eh_exception.o)
 .note.GNU-stack
                0x0000000000000000        0x0 /Users/stevefar/nacl_sdk/pepper_45/toolchain/mac_x86_newlib/bin/../lib/gcc/x86_64-nacl/4.4.3/../../../../x86_64-nacl/lib/../lib64/libstdc++.a(eh_exception.o)
 .note.GNU-stack
                0x0000000000000000        0x0 /Users/stevefar/nacl_sdk/pepper_45/toolchain/mac_x86_newlib/bin/../lib/gcc/x86_64-nacl/4.4.3/../../../../x86_64-nacl/lib/../lib64/libstdc++.a(eh_term_handler.o)
 .group         0x0000000000000000        0x8 /Users/stevefar/nacl_sdk/pepper_45/toolchain/mac_x86_newlib/bin/../lib/gcc/x86_64-nacl/4.4.3/../../../../x86_64-nacl/lib/../lib64/libstdc++.a(new_handler.o)
 .group         0x0000000000000000        0x8 /Users/stevefar/nacl_sdk/pepper_45/toolchain/mac_x86_newlib/bin/../lib/gcc/x86_64-nacl/4.4.3/../../../../x86_64-nacl/lib/../lib64/libstdc++.a(new_handler.o)
 .group         0x0000000000000000        0x8 /Users/stevefar/nacl_sdk/pepper_45/toolchain/mac_x86_newlib/bin/../lib/gcc/x86_64-nacl/4.4.3/../../../../x86_64-nacl/lib/../lib64/libstdc++.a(new_handler.o)
 .note.GNU-stack
                0x0000000000000000        0x0 /Users/stevefar/nacl_sdk/pepper_45/toolchain/mac_x86_newlib/bin/../lib/gcc/x86_64-nacl/4.4.3/../../../../x86_64-nacl/lib/../lib64/libstdc++.a(new_handler.o)
 .note.GNU-stack
                0x0000000000000000        0x0 /Users/stevefar/nacl_sdk/pepper_45/toolchain/mac_x86_newlib/bin/../lib/gcc/x86_64-nacl/4.4.3/../../../../x86_64-nacl/lib/../lib64/libstdc++.a(vterminate.o)
 .note.GNU-stack
                0x0000000000000000        0x0 /Users/stevefar/nacl_sdk/pepper_45/toolchain/mac_x86_newlib/bin/../lib/gcc/x86_64-nacl/4.4.3/../../../../x86_64-nacl/lib/../lib64/libstdc++.a(cp-demangle.o)
 .note.GNU-stack
                0x0000000000000000        0x0 /Users/stevefar/nacl_sdk/pepper_45/toolchain/mac_x86_newlib/bin/../lib/gcc/x86_64-nacl/4.4.3/../../../../x86_64-nacl/lib/../lib64/libstdc++.a(eh_type.o)
 .note.GNU-stack
                0x0000000000000000        0x0 /Users/stevefar/nacl_sdk/pepper_45/toolchain/mac_x86_newlib/bin/../lib/gcc/x86_64-nacl/4.4.3/libgcc.a(unwind-dw2.o)
 .note.GNU-stack
                0x0000000000000000        0x0 /Users/stevefar/nacl_sdk/pepper_45/toolchain/mac_x86_newlib/bin/../lib/gcc/x86_64-nacl/4.4.3/libgcc.a(unwind-dw2-fde-glibc.o)
 .note.GNU-stack
                0x0000000000000000        0x0 /Users/stevefar/nacl_sdk/pepper_45/toolchain/mac_x86_newlib/bin/../lib/gcc/x86_64-nacl/4.4.3/../../../../x86_64-nacl/lib/../lib64/libnacl.a(_exit_710c7d0d.o)
 .note.GNU-stack
                0x0000000000000000        0x0 /Users/stevefar/nacl_sdk/pepper_45/toolchain/mac_x86_newlib/bin/../lib/gcc/x86_64-nacl/4.4.3/../../../../x86_64-nacl/lib/../lib64/libnacl.a(abort_9f6b5845.o)
 .note.GNU-stack
                0x0000000000000000        0x0 /Users/stevefar/nacl_sdk/pepper_45/toolchain/mac_x86_newlib/bin/../lib/gcc/x86_64-nacl/4.4.3/../../../../x86_64-nacl/lib/../lib64/libnacl.a(environ_25cd24d8.o)
 .note.GNU-stack
                0x0000000000000000        0x0 /Users/stevefar/nacl_sdk/pepper_45/toolchain/mac_x86_newlib/bin/../lib/gcc/x86_64-nacl/4.4.3/../../../../x86_64-nacl/lib/../lib64/libnacl.a(malloc_222c4a1e.o)
 .note.GNU-stack
                0x0000000000000000        0x0 /Users/stevefar/nacl_sdk/pepper_45/toolchain/mac_x86_newlib/bin/../lib/gcc/x86_64-nacl/4.4.3/../../../../x86_64-nacl/lib/../lib64/libnacl.a(nacl_irt_6de1d53f.o)
 .note.GNU-stack
                0x0000000000000000        0x0 /Users/stevefar/nacl_sdk/pepper_45/toolchain/mac_x86_newlib/bin/../lib/gcc/x86_64-nacl/4.4.3/../../../../x86_64-nacl/lib/../lib64/libnacl.a(pthread_initialize_minimal_4b6e776b.o)
 .note.GNU-stack
                0x0000000000000000        0x0 /Users/stevefar/nacl_sdk/pepper_45/toolchain/mac_x86_newlib/bin/../lib/gcc/x86_64-nacl/4.4.3/../../../../x86_64-nacl/lib/../lib64/libnacl.a(nacl_read_tp_5748ac47.o)
 .note.GNU-stack
                0x0000000000000000        0x0 /Users/stevefar/nacl_sdk/pepper_45/toolchain/mac_x86_newlib/bin/../lib/gcc/x86_64-nacl/4.4.3/../../../../x86_64-nacl/lib/../lib64/libnacl.a(nacl_add_tp_7312c7c4.o)
 .note.GNU-stack
                0x0000000000000000        0x0 /Users/stevefar/nacl_sdk/pepper_45/toolchain/mac_x86_newlib/bin/../lib/gcc/x86_64-nacl/4.4.3/../../../../x86_64-nacl/lib/../lib64/libnacl.a(mmap_767fb080.o)
 .note.GNU-stack
                0x0000000000000000        0x0 /Users/stevefar/nacl_sdk/pepper_45/toolchain/mac_x86_newlib/bin/../lib/gcc/x86_64-nacl/4.4.3/../../../../x86_64-nacl/lib/../lib64/libnacl.a(sched_yield_56c375be.o)
 .note.GNU-stack
                0x0000000000000000        0x0 /Users/stevefar/nacl_sdk/pepper_45/toolchain/mac_x86_newlib/bin/../lib/gcc/x86_64-nacl/4.4.3/../../../../x86_64-nacl/lib/../lib64/libnacl.a(start_fa9ef7de.o)
 .note.GNU-stack
                0x0000000000000000        0x0 /Users/stevefar/nacl_sdk/pepper_45/toolchain/mac_x86_newlib/bin/../lib/gcc/x86_64-nacl/4.4.3/../../../../x86_64-nacl/lib/../lib64/libnacl.a(munmap_d4f09867.o)
 .note.GNU-stack
                0x0000000000000000        0x0 /Users/stevefar/nacl_sdk/pepper_45/toolchain/mac_x86_newlib/bin/../lib/gcc/x86_64-nacl/4.4.3/../../../../x86_64-nacl/lib/../lib64/libnacl.a(tls_bba1975b.o)
 .note.GNU-stack
                0x0000000000000000        0x0 /Users/stevefar/nacl_sdk/pepper_45/toolchain/mac_x86_newlib/bin/../lib/gcc/x86_64-nacl/4.4.3/../../../../x86_64-nacl/lib/../lib64/libnacl.a(write_fb49787f.o)
 .note.GNU-stack
                0x0000000000000000        0x0 /Users/stevefar/nacl_sdk/pepper_45/toolchain/mac_x86_newlib/bin/../lib/gcc/x86_64-nacl/4.4.3/../../../../x86_64-nacl/lib/../lib64/libnacl.a(nacl_tls_get_d2f842b5.o)
 .note.GNU-stack
                0x0000000000000000        0x0 /Users/stevefar/nacl_sdk/pepper_45/toolchain/mac_x86_newlib/bin/../lib/gcc/x86_64-nacl/4.4.3/../../../../x86_64-nacl/lib/../lib64/libnacl.a(nacl_irt_init_7b4f826e.o)
 .note.GNU-stack
                0x0000000000000000        0x0 /Users/stevefar/nacl_sdk/pepper_45/toolchain/mac_x86_newlib/bin/../lib/gcc/x86_64-nacl/4.4.3/../../../../x86_64-nacl/lib/../lib64/libnacl.a(sysconf_ad295ea2.o)
 .note.GNU-stack
                0x0000000000000000        0x0 /Users/stevefar/nacl_sdk/pepper_45/toolchain/mac_x86_newlib/bin/../lib/gcc/x86_64-nacl/4.4.3/../../../../x86_64-nacl/lib/../lib64/libnacl.a(nacl_tls_init_eb0cd232.o)
 .note.GNU-stack
                0x0000000000000000        0x0 /Users/stevefar/nacl_sdk/pepper_45/toolchain/mac_x86_newlib/bin/../lib/gcc/x86_64-nacl/4.4.3/../../../../x86_64-nacl/lib/../lib64/libcrt_common.a(lib_a-atexit.o)
 .note.GNU-stack
                0x0000000000000000        0x0 /Users/stevefar/nacl_sdk/pepper_45/toolchain/mac_x86_newlib/bin/../lib/gcc/x86_64-nacl/4.4.3/../../../../x86_64-nacl/lib/../lib64/libcrt_common.a(lib_a-cxa_atexit.o)
 .note.GNU-stack
                0x0000000000000000        0x0 /Users/stevefar/nacl_sdk/pepper_45/toolchain/mac_x86_newlib/bin/../lib/gcc/x86_64-nacl/4.4.3/../../../../x86_64-nacl/lib/../lib64/libcrt_common.a(lib_a-errno.o)
 .note.GNU-stack
                0x0000000000000000        0x0 /Users/stevefar/nacl_sdk/pepper_45/toolchain/mac_x86_newlib/bin/../lib/gcc/x86_64-nacl/4.4.3/../../../../x86_64-nacl/lib/../lib64/libcrt_common.a(lib_a-exit.o)
 .note.GNU-stack
                0x0000000000000000        0x0 /Users/stevefar/nacl_sdk/pepper_45/toolchain/mac_x86_newlib/bin/../lib/gcc/x86_64-nacl/4.4.3/../../../../x86_64-nacl/lib/../lib64/libcrt_common.a(lib_a-fini.o)
 .note.GNU-stack
                0x0000000000000000        0x0 /Users/stevefar/nacl_sdk/pepper_45/toolchain/mac_x86_newlib/bin/../lib/gcc/x86_64-nacl/4.4.3/../../../../x86_64-nacl/lib/../lib64/libcrt_common.a(lib_a-fprintf.o)
 .note.GNU-stack
                0x0000000000000000        0x0 /Users/stevefar/nacl_sdk/pepper_45/toolchain/mac_x86_newlib/bin/../lib/gcc/x86_64-nacl/4.4.3/../../../../x86_64-nacl/lib/../lib64/libcrt_common.a(lib_a-fputc.o)
 .note.GNU-stack
                0x0000000000000000        0x0 /Users/stevefar/nacl_sdk/pepper_45/toolchain/mac_x86_newlib/bin/../lib/gcc/x86_64-nacl/4.4.3/../../../../x86_64-nacl/lib/../lib64/libcrt_common.a(lib_a-fputs.o)
 .note.GNU-stack
                0x0000000000000000        0x0 /Users/stevefar/nacl_sdk/pepper_45/toolchain/mac_x86_newlib/bin/../lib/gcc/x86_64-nacl/4.4.3/../../../../x86_64-nacl/lib/../lib64/libcrt_common.a(lib_a-fvwrite.o)
 .note.GNU-stack
                0x0000000000000000        0x0 /Users/stevefar/nacl_sdk/pepper_45/toolchain/mac_x86_newlib/bin/../lib/gcc/x86_64-nacl/4.4.3/../../../../x86_64-nacl/lib/../lib64/libcrt_common.a(lib_a-fwrite.o)
 .note.GNU-stack
                0x0000000000000000        0x0 /Users/stevefar/nacl_sdk/pepper_45/toolchain/mac_x86_newlib/bin/../lib/gcc/x86_64-nacl/4.4.3/../../../../x86_64-nacl/lib/../lib64/libcrt_common.a(lib_a-getenv.o)
 .note.GNU-stack
                0x0000000000000000        0x0 /Users/stevefar/nacl_sdk/pepper_45/toolchain/mac_x86_newlib/bin/../lib/gcc/x86_64-nacl/4.4.3/../../../../x86_64-nacl/lib/../lib64/libcrt_common.a(lib_a-getenv_r.o)
 .note.GNU-stack
                0x0000000000000000        0x0 /Users/stevefar/nacl_sdk/pepper_45/toolchain/mac_x86_newlib/bin/../lib/gcc/x86_64-nacl/4.4.3/../../../../x86_64-nacl/lib/../lib64/libcrt_common.a(lib_a-impure.o)
 .note.GNU-stack
                0x0000000000000000        0x0 /Users/stevefar/nacl_sdk/pepper_45/toolchain/mac_x86_newlib/bin/../lib/gcc/x86_64-nacl/4.4.3/../../../../x86_64-nacl/lib/../lib64/libcrt_common.a(lib_a-init.o)
 .note.GNU-stack
                0x0000000000000000        0x0 /Users/stevefar/nacl_sdk/pepper_45/toolchain/mac_x86_newlib/bin/../lib/gcc/x86_64-nacl/4.4.3/../../../../x86_64-nacl/lib/../lib64/libcrt_common.a(lib_a-memchr.o)
 .note.GNU-stack
                0x0000000000000000        0x0 /Users/stevefar/nacl_sdk/pepper_45/toolchain/mac_x86_newlib/bin/../lib/gcc/x86_64-nacl/4.4.3/../../../../x86_64-nacl/lib/../lib64/libcrt_common.a(lib_a-memmove.o)
 .note.GNU-stack
                0x0000000000000000        0x0 /Users/stevefar/nacl_sdk/pepper_45/toolchain/mac_x86_newlib/bin/../lib/gcc/x86_64-nacl/4.4.3/../../../../x86_64-nacl/lib/../lib64/libcrt_common.a(lib_a-putc.o)
 .note.GNU-stack
                0x0000000000000000        0x0 /Users/stevefar/nacl_sdk/pepper_45/toolchain/mac_x86_newlib/bin/../lib/gcc/x86_64-nacl/4.4.3/../../../../x86_64-nacl/lib/../lib64/libcrt_common.a(lib_a-snprintf.o)
 .note.GNU-stack
                0x0000000000000000        0x0 /Users/stevefar/nacl_sdk/pepper_45/toolchain/mac_x86_newlib/bin/../lib/gcc/x86_64-nacl/4.4.3/../../../../x86_64-nacl/lib/../lib64/libcrt_common.a(lib_a-sprintf.o)
 .note.GNU-stack
                0x0000000000000000        0x0 /Users/stevefar/nacl_sdk/pepper_45/toolchain/mac_x86_newlib/bin/../lib/gcc/x86_64-nacl/4.4.3/../../../../x86_64-nacl/lib/../lib64/libcrt_common.a(lib_a-strcpy.o)
 .note.GNU-stack
                0x0000000000000000        0x0 /Users/stevefar/nacl_sdk/pepper_45/toolchain/mac_x86_newlib/bin/../lib/gcc/x86_64-nacl/4.4.3/../../../../x86_64-nacl/lib/../lib64/libcrt_common.a(lib_a-strerror.o)
 .note.GNU-stack
                0x0000000000000000        0x0 /Users/stevefar/nacl_sdk/pepper_45/toolchain/mac_x86_newlib/bin/../lib/gcc/x86_64-nacl/4.4.3/../../../../x86_64-nacl/lib/../lib64/libcrt_common.a(lib_a-strlen.o)
 .note.GNU-stack
                0x0000000000000000        0x0 /Users/stevefar/nacl_sdk/pepper_45/toolchain/mac_x86_newlib/bin/../lib/gcc/x86_64-nacl/4.4.3/../../../../x86_64-nacl/lib/../lib64/libcrt_common.a(lib_a-strncmp.o)
 .note.GNU-stack
                0x0000000000000000        0x0 /Users/stevefar/nacl_sdk/pepper_45/toolchain/mac_x86_newlib/bin/../lib/gcc/x86_64-nacl/4.4.3/../../../../x86_64-nacl/lib/../lib64/libcrt_common.a(lib_a-svfprintf.o)
 .note.GNU-stack
                0x0000000000000000        0x0 /Users/stevefar/nacl_sdk/pepper_45/toolchain/mac_x86_newlib/bin/../lib/gcc/x86_64-nacl/4.4.3/../../../../x86_64-nacl/lib/../lib64/libcrt_common.a(lib_a-u_strerr.o)
 .note.GNU-stack
                0x0000000000000000        0x0 /Users/stevefar/nacl_sdk/pepper_45/toolchain/mac_x86_newlib/bin/../lib/gcc/x86_64-nacl/4.4.3/../../../../x86_64-nacl/lib/../lib64/libcrt_common.a(lib_a-vfprintf.o)
 .note.GNU-stack
                0x0000000000000000        0x0 /Users/stevefar/nacl_sdk/pepper_45/toolchain/mac_x86_newlib/bin/../lib/gcc/x86_64-nacl/4.4.3/../../../../x86_64-nacl/lib/../lib64/libcrt_common.a(lib_a-wbuf.o)
 .note.GNU-stack
                0x0000000000000000        0x0 /Users/stevefar/nacl_sdk/pepper_45/toolchain/mac_x86_newlib/bin/../lib/gcc/x86_64-nacl/4.4.3/../../../../x86_64-nacl/lib/../lib64/libcrt_common.a(lib_a-wcrtomb.o)
 .note.GNU-stack
                0x0000000000000000        0x0 /Users/stevefar/nacl_sdk/pepper_45/toolchain/mac_x86_newlib/bin/../lib/gcc/x86_64-nacl/4.4.3/../../../../x86_64-nacl/lib/../lib64/libcrt_common.a(lib_a-wcsrtombs.o)
 .note.GNU-stack
                0x0000000000000000        0x0 /Users/stevefar/nacl_sdk/pepper_45/toolchain/mac_x86_newlib/bin/../lib/gcc/x86_64-nacl/4.4.3/../../../../x86_64-nacl/lib/../lib64/libcrt_common.a(lib_a-wctomb_r.o)
 .note.GNU-stack
                0x0000000000000000        0x0 /Users/stevefar/nacl_sdk/pepper_45/toolchain/mac_x86_newlib/bin/../lib/gcc/x86_64-nacl/4.4.3/../../../../x86_64-nacl/lib/../lib64/libcrt_common.a(lib_a-wsetup.o)
 .note.GNU-stack
                0x0000000000000000        0x0 /Users/stevefar/nacl_sdk/pepper_45/toolchain/mac_x86_newlib/bin/../lib/gcc/x86_64-nacl/4.4.3/../../../../x86_64-nacl/lib/../lib64/libcrt_common.a(lib_a-__atexit.o)
 .note.GNU-stack
                0x0000000000000000        0x0 /Users/stevefar/nacl_sdk/pepper_45/toolchain/mac_x86_newlib/bin/../lib/gcc/x86_64-nacl/4.4.3/../../../../x86_64-nacl/lib/../lib64/libcrt_common.a(lib_a-__call_atexit.o)
 .note.GNU-stack
                0x0000000000000000        0x0 /Users/stevefar/nacl_sdk/pepper_45/toolchain/mac_x86_newlib/bin/../lib/gcc/x86_64-nacl/4.4.3/../../../../x86_64-nacl/lib/../lib64/libcrt_common.a(lib_a-dtoa.o)
 .note.GNU-stack
                0x0000000000000000        0x0 /Users/stevefar/nacl_sdk/pepper_45/toolchain/mac_x86_newlib/bin/../lib/gcc/x86_64-nacl/4.4.3/../../../../x86_64-nacl/lib/../lib64/libcrt_common.a(lib_a-envlock.o)
 .note.GNU-stack
                0x0000000000000000        0x0 /Users/stevefar/nacl_sdk/pepper_45/toolchain/mac_x86_newlib/bin/../lib/gcc/x86_64-nacl/4.4.3/../../../../x86_64-nacl/lib/../lib64/libcrt_common.a(lib_a-fflush.o)
 .note.GNU-stack
                0x0000000000000000        0x0 /Users/stevefar/nacl_sdk/pepper_45/toolchain/mac_x86_newlib/bin/../lib/gcc/x86_64-nacl/4.4.3/../../../../x86_64-nacl/lib/../lib64/libcrt_common.a(lib_a-findfp.o)
 .note.GNU-stack
                0x0000000000000000        0x0 /Users/stevefar/nacl_sdk/pepper_45/toolchain/mac_x86_newlib/bin/../lib/gcc/x86_64-nacl/4.4.3/../../../../x86_64-nacl/lib/../lib64/libcrt_common.a(lib_a-fwalk.o)
 .note.GNU-stack
                0x0000000000000000        0x0 /Users/stevefar/nacl_sdk/pepper_45/toolchain/mac_x86_newlib/bin/../lib/gcc/x86_64-nacl/4.4.3/../../../../x86_64-nacl/lib/../lib64/libcrt_common.a(lib_a-locale.o)
 .note.GNU-stack
                0x0000000000000000        0x0 /Users/stevefar/nacl_sdk/pepper_45/toolchain/mac_x86_newlib/bin/../lib/gcc/x86_64-nacl/4.4.3/../../../../x86_64-nacl/lib/../lib64/libcrt_common.a(lib_a-makebuf.o)
 .note.GNU-stack
                0x0000000000000000        0x0 /Users/stevefar/nacl_sdk/pepper_45/toolchain/mac_x86_newlib/bin/../lib/gcc/x86_64-nacl/4.4.3/../../../../x86_64-nacl/lib/../lib64/libcrt_common.a(lib_a-mbtowc_r.o)
 .note.GNU-stack
                0x0000000000000000        0x0 /Users/stevefar/nacl_sdk/pepper_45/toolchain/mac_x86_newlib/bin/../lib/gcc/x86_64-nacl/4.4.3/../../../../x86_64-nacl/lib/../lib64/libcrt_common.a(lib_a-mprec.o)
 .note.GNU-stack
                0x0000000000000000        0x0 /Users/stevefar/nacl_sdk/pepper_45/toolchain/mac_x86_newlib/bin/../lib/gcc/x86_64-nacl/4.4.3/../../../../x86_64-nacl/lib/../lib64/libcrt_common.a(lib_a-s_fpclassify.o)
 .note.GNU-stack
                0x0000000000000000        0x0 /Users/stevefar/nacl_sdk/pepper_45/toolchain/mac_x86_newlib/bin/../lib/gcc/x86_64-nacl/4.4.3/../../../../x86_64-nacl/lib/../lib64/libcrt_common.a(lib_a-s_frexp.o)
 .note.GNU-stack
                0x0000000000000000        0x0 /Users/stevefar/nacl_sdk/pepper_45/toolchain/mac_x86_newlib/bin/../lib/gcc/x86_64-nacl/4.4.3/../../../../x86_64-nacl/lib/../lib64/libcrt_common.a(lib_a-stdio.o)
 .note.GNU-stack
                0x0000000000000000        0x0 /Users/stevefar/nacl_sdk/pepper_45/toolchain/mac_x86_newlib/bin/../lib/gcc/x86_64-nacl/4.4.3/../../../../x86_64-nacl/lib/../lib64/libcrt_common.a(lib_a-strcasecmp.o)
 .note.GNU-stack
                0x0000000000000000        0x0 /Users/stevefar/nacl_sdk/pepper_45/toolchain/mac_x86_newlib/bin/../lib/gcc/x86_64-nacl/4.4.3/../../../../x86_64-nacl/lib/../lib64/libcrt_common.a(lib_a-strcat.o)
 .note.GNU-stack
                0x0000000000000000        0x0 /Users/stevefar/nacl_sdk/pepper_45/toolchain/mac_x86_newlib/bin/../lib/gcc/x86_64-nacl/4.4.3/../../../../x86_64-nacl/lib/../lib64/libcrt_common.a(lib_a-strchr.o)
 .note.GNU-stack
                0x0000000000000000        0x0 /Users/stevefar/nacl_sdk/pepper_45/toolchain/mac_x86_newlib/bin/../lib/gcc/x86_64-nacl/4.4.3/../../../../x86_64-nacl/lib/../lib64/libcrt_common.a(lib_a-strcmp.o)
 .note.GNU-stack
                0x0000000000000000        0x0 /Users/stevefar/nacl_sdk/pepper_45/toolchain/mac_x86_newlib/bin/../lib/gcc/x86_64-nacl/4.4.3/../../../../x86_64-nacl/lib/../lib64/libcrt_common.a(lib_a-strlcpy.o)
 .note.GNU-stack
                0x0000000000000000        0x0 /Users/stevefar/nacl_sdk/pepper_45/toolchain/mac_x86_newlib/bin/../lib/gcc/x86_64-nacl/4.4.3/../../../../x86_64-nacl/lib/../lib64/libcrt_common.a(lib_a-strncasecmp.o)
 .note.GNU-stack
                0x0000000000000000        0x0 /Users/stevefar/nacl_sdk/pepper_45/toolchain/mac_x86_newlib/bin/../lib/gcc/x86_64-nacl/4.4.3/../../../../x86_64-nacl/lib/../lib64/libcrt_common.a(lib_a-strncpy.o)
 .note.GNU-stack
                0x0000000000000000        0x0 /Users/stevefar/nacl_sdk/pepper_45/toolchain/mac_x86_newlib/bin/../lib/gcc/x86_64-nacl/4.4.3/../../../../x86_64-nacl/lib/../lib64/libcrt_common.a(lib_a-strtol.o)
 .note.GNU-stack
                0x0000000000000000        0x0 /Users/stevefar/nacl_sdk/pepper_45/toolchain/mac_x86_newlib/bin/../lib/gcc/x86_64-nacl/4.4.3/../../../../x86_64-nacl/lib/../lib64/libcrt_common.a(lib_a-svfiprintf.o)
 .note.GNU-stack
                0x0000000000000000        0x0 /Users/stevefar/nacl_sdk/pepper_45/toolchain/mac_x86_newlib/bin/../lib/gcc/x86_64-nacl/4.4.3/../../../../x86_64-nacl/lib/../lib64/libcrt_common.a(lib_a-vfiprintf.o)
 .note.GNU-stack
                0x0000000000000000        0x0 /Users/stevefar/nacl_sdk/pepper_45/toolchain/mac_x86_newlib/bin/../lib/gcc/x86_64-nacl/4.4.3/../../../../x86_64-nacl/lib/../lib64/libcrt_common.a(lib_a-wcsnrtombs.o)
 .note.GNU-stack
                0x0000000000000000        0x0 /Users/stevefar/nacl_sdk/pepper_45/toolchain/mac_x86_newlib/bin/../lib/gcc/x86_64-nacl/4.4.3/../../../../x86_64-nacl/lib/../lib64/libcrt_common.a(lib_a-ctype_.o)
 .note.GNU-stack
                0x0000000000000000        0x0 /Users/stevefar/nacl_sdk/pepper_45/toolchain/mac_x86_newlib/bin/../lib/gcc/x86_64-nacl/4.4.3/../../../../x86_64-nacl/lib/../lib64/libcrt_common.a(lib_a-fclose.o)
 .note.GNU-stack
                0x0000000000000000        0x0 /Users/stevefar/nacl_sdk/pepper_45/toolchain/mac_x86_newlib/bin/../lib/gcc/x86_64-nacl/4.4.3/../../../../x86_64-nacl/lib/../lib64/libcrt_common.a(lib_a-fputwc.o)
 .note.GNU-stack
                0x0000000000000000        0x0 /Users/stevefar/nacl_sdk/pepper_45/toolchain/mac_x86_newlib/bin/../lib/gcc/x86_64-nacl/4.4.3/../../../../x86_64-nacl/lib/../lib64/libnacl.a(close_e9b92fbd.o)
 .note.GNU-stack
                0x0000000000000000        0x0 /Users/stevefar/nacl_sdk/pepper_45/toolchain/mac_x86_newlib/bin/../lib/gcc/x86_64-nacl/4.4.3/../../../../x86_64-nacl/lib/../lib64/libnacl.a(isatty_02f56e94.o)
 .note.GNU-stack
                0x0000000000000000        0x0 /Users/stevefar/nacl_sdk/pepper_45/toolchain/mac_x86_newlib/bin/../lib/gcc/x86_64-nacl/4.4.3/../../../../x86_64-nacl/lib/../lib64/libnacl.a(nacl_irt_fdio_b571b5e7.o)
 .note.GNU-stack
                0x0000000000000000        0x0 /Users/stevefar/nacl_sdk/pepper_45/toolchain/mac_x86_newlib/bin/../lib/gcc/x86_64-nacl/4.4.3/../../../../x86_64-nacl/lib/../lib64/libnacl.a(fstat_0540ff63.o)
 .note.GNU-stack
                0x0000000000000000        0x0 /Users/stevefar/nacl_sdk/pepper_45/toolchain/mac_x86_newlib/bin/../lib/gcc/x86_64-nacl/4.4.3/../../../../x86_64-nacl/lib/../lib64/libnacl.a(lseek_64d2d05c.o)
 .note.GNU-stack
                0x0000000000000000        0x0 /Users/stevefar/nacl_sdk/pepper_45/toolchain/mac_x86_newlib/bin/../lib/gcc/x86_64-nacl/4.4.3/../../../../x86_64-nacl/lib/../lib64/libnacl.a(read_df872e10.o)
 .note.GNU-stack
                0x0000000000000000        0x0 /Users/stevefar/nacl_sdk/pepper_45/toolchain/mac_x86_newlib/bin/../lib/gcc/x86_64-nacl/4.4.3/crtend.o

Memory Configuration

Name             Origin             Length             Attributes
*default*        0x0000000000000000 0xffffffffffffffff

Linker script and memory map

LOAD /Users/stevefar/nacl_sdk/pepper_45/toolchain/mac_x86_newlib/bin/../lib/gcc/x86_64-nacl/4.4.3/../../../../x86_64-nacl/lib/../lib64/crt1.o
LOAD /Users/stevefar/nacl_sdk/pepper_45/toolchain/mac_x86_newlib/bin/../lib/gcc/x86_64-nacl/4.4.3/../../../../x86_64-nacl/lib/../lib64/crti.o
LOAD /Users/stevefar/nacl_sdk/pepper_45/toolchain/mac_x86_newlib/bin/../lib/gcc/x86_64-nacl/4.4.3/crtbegin.o
LOAD newlib/Release/multi_platform_x86_64.o
LOAD /Users/stevefar/nacl_sdk/pepper_45/lib/newlib_x86_64/Release/libppapi_cpp.a
LOAD /Users/stevefar/nacl_sdk/pepper_45/toolchain/mac_x86_newlib/bin/../lib/gcc/x86_64-nacl/4.4.3/../../../../x86_64-nacl/lib/../lib64/libppapi.a
LOAD /Users/stevefar/nacl_sdk/pepper_45/toolchain/mac_x86_newlib/bin/../lib/gcc/x86_64-nacl/4.4.3/../../../../x86_64-nacl/lib/../lib64/libppapi_stub.a
LOAD /Users/stevefar/nacl_sdk/pepper_45/toolchain/mac_x86_newlib/bin/../lib/gcc/x86_64-nacl/4.4.3/../../../../x86_64-nacl/lib/../lib64/libpthread.a
LOAD /Users/stevefar/nacl_sdk/pepper_45/toolchain/mac_x86_newlib/bin/../lib/gcc/x86_64-nacl/4.4.3/../../../../x86_64-nacl/lib/../lib64/libstdc++.a
LOAD /Users/stevefar/nacl_sdk/pepper_45/toolchain/mac_x86_newlib/bin/../lib/gcc/x86_64-nacl/4.4.3/../../../../x86_64-nacl/lib/../lib64/libm.a
LOAD /Users/stevefar/nacl_sdk/pepper_45/toolchain/mac_x86_newlib/bin/../lib/gcc/x86_64-nacl/4.4.3/libgcc.a
LOAD /Users/stevefar/nacl_sdk/pepper_45/toolchain/mac_x86_newlib/bin/../lib/gcc/x86_64-nacl/4.4.3/../../../../x86_64-nacl/lib/../lib64/libpthread.a
LOAD /Users/stevefar/nacl_sdk/pepper_45/toolchain/mac_x86_newlib/bin/../lib/gcc/x86_64-nacl/4.4.3/../../../../x86_64-nacl/lib/../lib64/libc.a
START GROUP
LOAD /Users/stevefar/nacl_sdk/pepper_45/toolchain/mac_x86_newlib/bin/../lib/gcc/x86_64-nacl/4.4.3/../../../../x86_64-nacl/lib/../lib64/libnacl.a
LOAD /Users/stevefar/nacl_sdk/pepper_45/toolchain/mac_x86_newlib/bin/../lib/gcc/x86_64-nacl/4.4.3/../../../../x86_64-nacl/lib/../lib64/libcrt_common.a
END GROUP
LOAD /Users/stevefar/nacl_sdk/pepper_45/toolchain/mac_x86_newlib/bin/../lib/gcc/x86_64-nacl/4.4.3/libgcc.a
LOAD /Users/stevefar/nacl_sdk/pepper_45/toolchain/mac_x86_newlib/bin/../lib/gcc/x86_64-nacl/4.4.3/crtend.o
LOAD /Users/stevefar/nacl_sdk/pepper_45/toolchain/mac_x86_newlib/bin/../lib/gcc/x86_64-nacl/4.4.3/../../../../x86_64-nacl/lib/../lib64/crtn.o
                0x0000000000020000                PROVIDE (__executable_start, 0x20000)
                0x0000000000020000                . = 0x20000

.init           0x0000000000020000       0x80
 *(SORT(.init))
 .init          0x0000000000020000       0x20 /Users/stevefar/nacl_sdk/pepper_45/toolchain/mac_x86_newlib/bin/../lib/gcc/x86_64-nacl/4.4.3/../../../../x86_64-nacl/lib/../lib64/crti.o
                0x0000000000020000                _init
 .init          0x0000000000020020       0x20 /Users/stevefar/nacl_sdk/pepper_45/toolchain/mac_x86_newlib/bin/../lib/gcc/x86_64-nacl/4.4.3/crtbegin.o
 .init          0x0000000000020040       0x20 /Users/stevefar/nacl_sdk/pepper_45/toolchain/mac_x86_newlib/bin/../lib/gcc/x86_64-nacl/4.4.3/crtend.o
 .init          0x0000000000020060       0x20 /Users/stevefar/nacl_sdk/pepper_45/toolchain/mac_x86_newlib/bin/../lib/gcc/x86_64-nacl/4.4.3/../../../../x86_64-nacl/lib/../lib64/crtn.o

.plt            0x0000000000020080        0x0
 *(.plt)
 *(.iplt)
 .iplt          0x0000000000000000        0x0 /Users/stevefar/nacl_sdk/pepper_45/toolchain/mac_x86_newlib/bin/../lib/gcc/x86_64-nacl/4.4.3/crtbegin.o

.text           0x0000000000020080    0x699c0
 *(.text.unlikely .text.*_unlikely .text.unlikely.*)
 *(.text.exit .text.exit.*)
 *(.text.startup .text.startup.*)
 *(.text.hot .text.hot.*)
 *(.text .stub .text.* .gnu.linkonce.t.*)
 .text          0x0000000000020080        0x0 /Users/stevefar/nacl_sdk/pepper_45/toolchain/mac_x86_newlib/bin/../lib/gcc/x86_64-nacl/4.4.3/../../../../x86_64-nacl/lib/../lib64/crti.o
 .text          0x0000000000020080      0x160 /Users/stevefar/nacl_sdk/pepper_45/toolchain/mac_x86_newlib/bin/../lib/gcc/x86_64-nacl/4.4.3/crtbegin.o
 .text          0x00000000000201e0       0xa0 newlib/Release/multi_platform_x86_64.o
                0x00000000000201e0                _ZN2pp12CreateModuleEv
 .text._ZN6Module14CreateInstanceEi
                0x0000000000020280       0xc0 newlib/Release/multi_platform_x86_64.o
                0x0000000000020280                _ZN6Module14CreateInstanceEi
 .text._ZN8Instance4InitEjPPKcS2_
                0x0000000000020340       0xe0 newlib/Release/multi_platform_x86_64.o
                0x0000000000020340                _ZN8Instance4InitEjPPKcS2_
 .text._ZN8InstanceD0Ev
                0x0000000000020420       0x40 newlib/Release/multi_platform_x86_64.o
                0x0000000000020420                _ZN8InstanceD0Ev
 .text._ZN8InstanceD1Ev
                0x0000000000020460       0x20 newlib/Release/multi_platform_x86_64.o
                0x0000000000020460                _ZN8InstanceD1Ev
 .text._ZN6ModuleD0Ev
                0x0000000000020480       0x40 newlib/Release/multi_platform_x86_64.o
                0x0000000000020480                _ZN6ModuleD0Ev
 .text._ZN6ModuleD1Ev
                0x00000000000204c0       0x20 newlib/Release/multi_platform_x86_64.o
                0x00000000000204c0                _ZN6ModuleD1Ev
 .text          0x00000000000204e0     0x31c0 /Users/stevefar/nacl_sdk/pepper_45/lib/newlib_x86_64/Release/libppapi_cpp.a(instance_x86_64.o)
                0x0000000000020500                _ZN2pp8InstanceC2Ei
                0x0000000000020580                _ZN2pp8InstanceC1Ei
                0x0000000000020600                _ZN2pp8Instance4InitEjPPKcS3_
                0x0000000000020620                _ZN2pp8Instance13DidChangeViewERKNS_4RectES3_
                0x0000000000020640                _ZN2pp8Instance14DidChangeFocusEb
                0x0000000000020660                _ZN2pp8Instance18HandleDocumentLoadERKNS_9URLLoaderE
                0x0000000000020680                _ZN2pp8Instance16HandleInputEventERKNS_10InputEventE
                0x00000000000206a0                _ZN2pp8Instance13HandleMessageERKNS_3VarE
                0x00000000000209e0                _ZN2pp8Instance13DidChangeViewERKNS_4ViewE
                0x0000000000020b00                _ZN2pp8InstanceD0Ev
                0x0000000000020b60                _ZN2pp8InstanceD1Ev
                0x0000000000020be0                _ZN2pp8InstanceD2Ev
                0x0000000000020c60                _ZN2pp8Instance20GetPerInstanceObjectEiRKSs
                0x0000000000020e80                _ZN2pp8Instance23RemovePerInstanceObjectERKSsPv
                0x0000000000021100                _ZN2pp8Instance23RemovePerInstanceObjectERKNS_14InstanceHandleERKSsPv
                0x00000000000211c0                _ZN2pp8Instance12LogToConsoleE11PP_LogLevelRKNS_3VarE
                0x00000000000214a0                _ZN2pp8Instance22LogToConsoleWithSourceE11PP_LogLevelRKNS_3VarES4_
                0x00000000000217a0                _ZN2pp8Instance20AddPerInstanceObjectERKSsPv
                0x0000000000021aa0                _ZN2pp8Instance18RequestInputEventsEj
                0x0000000000021d20                _ZN2pp8Instance22RegisterMessageHandlerEPNS_14MessageHandlerERKNS_11MessageLoopE
                0x0000000000021fe0                _ZN2pp8Instance22ClearInputEventRequestEj
                0x0000000000022260                _ZN2pp8Instance27RequestFilteringInputEventsEj
                0x00000000000224e0                _ZN2pp8Instance24UnregisterMessageHandlerEv
                0x0000000000022740                _ZN2pp8Instance12BindGraphicsERKNS_10Graphics2DE
                0x00000000000229e0                _ZN2pp8Instance11IsFullFrameEv
                0x0000000000022c80                _ZN2pp8Instance12BindGraphicsERKNS_10CompositorE
                0x0000000000022f20                _ZN2pp8Instance12BindGraphicsERKNS_10Graphics3DE
                0x00000000000231c0                _ZN2pp8Instance11PostMessageERKNS_3VarE
 .text._ZNSt8_Rb_treeISsSt4pairIKSsPvESt10_Select1stIS3_ESt4lessISsESaIS3_EE8_M_eraseEPSt13_Rb_tree_nodeIS3_E
                0x00000000000236a0      0x160 /Users/stevefar/nacl_sdk/pepper_45/lib/newlib_x86_64/Release/libppapi_cpp.a(instance_x86_64.o)
                0x00000000000236a0                _ZNSt8_Rb_treeISsSt4pairIKSsPvESt10_Select1stIS3_ESt4lessISsESaIS3_EE8_M_eraseEPSt13_Rb_tree_nodeIS3_E
 .text._ZNSt8_Rb_treeISsSt4pairIKSsPvESt10_Select1stIS3_ESt4lessISsESaIS3_EE10_M_insert_EPKSt18_Rb_tree_node_baseSC_RKS3_
                0x0000000000023800      0x240 /Users/stevefar/nacl_sdk/pepper_45/lib/newlib_x86_64/Release/libppapi_cpp.a(instance_x86_64.o)
                0x0000000000023800                _ZNSt8_Rb_treeISsSt4pairIKSsPvESt10_Select1stIS3_ESt4lessISsESaIS3_EE10_M_insert_EPKSt18_Rb_tree_node_baseSC_RKS3_
 .text._ZNSt8_Rb_treeISsSt4pairIKSsPvESt10_Select1stIS3_ESt4lessISsESaIS3_EE16_M_insert_uniqueERKS3_
                0x0000000000023a40      0x240 /Users/stevefar/nacl_sdk/pepper_45/lib/newlib_x86_64/Release/libppapi_cpp.a(instance_x86_64.o)
                0x0000000000023a40                _ZNSt8_Rb_treeISsSt4pairIKSsPvESt10_Select1stIS3_ESt4lessISsESaIS3_EE16_M_insert_uniqueERKS3_
 .text._ZNSt8_Rb_treeISsSt4pairIKSsPvESt10_Select1stIS3_ESt4lessISsESaIS3_EE17_M_insert_unique_ESt23_Rb_tree_const_iteratorIS3_ERKS3_
                0x0000000000023c80      0x400 /Users/stevefar/nacl_sdk/pepper_45/lib/newlib_x86_64/Release/libppapi_cpp.a(instance_x86_64.o)
                0x0000000000023c80                _ZNSt8_Rb_treeISsSt4pairIKSsPvESt10_Select1stIS3_ESt4lessISsESaIS3_EE17_M_insert_unique_ESt23_Rb_tree_const_iteratorIS3_ERKS3_
 .text          0x0000000000024080     0x18c0 /Users/stevefar/nacl_sdk/pepper_45/lib/newlib_x86_64/Release/libppapi_cpp.a(module_x86_64.o)
                0x0000000000024080                _ZN2pp6ModuleC2Ev
                0x0000000000024160                _ZN2pp6ModuleC1Ev
                0x0000000000024240                _ZN2pp6Module4InitEv
                0x0000000000024260                _ZN2pp6Module19GetBrowserInterfaceEPKc
                0x0000000000024280                _ZN2pp6Module21InstanceForPPInstanceEi
                0x0000000000024360                _ZN2pp6Module12InternalInitEiPFPKvPKcE
                0x0000000000024420                _ZN2pp23Instance_DidChangeFocusEi7PP_Bool
                0x0000000000024560                _ZN2pp18Instance_DidCreateEijPPKcS2_
                0x0000000000024760                _ZN2pp23Messaging_HandleMessageEi6PP_Var
                0x0000000000024900                _ZN2pp19Instance_DidDestroyEi
                0x0000000000024a60                _ZN2pp22InputEvent_HandleEventEii
                0x0000000000024c20                _ZN2pp27Instance_HandleDocumentLoadEii
                0x0000000000024de0                _ZN2pp22Instance_DidChangeViewEii
                0x0000000000024f80                _ZN2pp6ModuleD1Ev
                0x00000000000250a0                _ZN2pp6Module18GetPluginInterfaceEPKc
                0x0000000000025420                _ZN2pp6Module18AddPluginInterfaceERKSsPKv
                0x0000000000025700                _ZN2pp6ModuleD2Ev
                0x0000000000025820                _ZN2pp6ModuleD0Ev
 .text._ZNSt8_Rb_treeIiSt4pairIKiPN2pp8InstanceEESt10_Select1stIS5_ESt4lessIiESaIS5_EE8_M_eraseEPSt13_Rb_tree_nodeIS5_E
                0x0000000000025940       0xa0 /Users/stevefar/nacl_sdk/pepper_45/lib/newlib_x86_64/Release/libppapi_cpp.a(module_x86_64.o)
                0x0000000000025940                _ZNSt8_Rb_treeIiSt4pairIKiPN2pp8InstanceEESt10_Select1stIS5_ESt4lessIiESaIS5_EE8_M_eraseEPSt13_Rb_tree_nodeIS5_E
 .text._ZNSt8_Rb_treeIiSt4pairIKiPN2pp8InstanceEESt10_Select1stIS5_ESt4lessIiESaIS5_EE10_M_insert_EPKSt18_Rb_tree_node_baseSE_RKS5_
                0x00000000000259e0      0x140 /Users/stevefar/nacl_sdk/pepper_45/lib/newlib_x86_64/Release/libppapi_cpp.a(module_x86_64.o)
                0x00000000000259e0                _ZNSt8_Rb_treeIiSt4pairIKiPN2pp8InstanceEESt10_Select1stIS5_ESt4lessIiESaIS5_EE10_M_insert_EPKSt18_Rb_tree_node_baseSE_RKS5_
 .text._ZNSt8_Rb_treeIiSt4pairIKiPN2pp8InstanceEESt10_Select1stIS5_ESt4lessIiESaIS5_EE16_M_insert_uniqueERKS5_
                0x0000000000025b20      0x180 /Users/stevefar/nacl_sdk/pepper_45/lib/newlib_x86_64/Release/libppapi_cpp.a(module_x86_64.o)
                0x0000000000025b20                _ZNSt8_Rb_treeIiSt4pairIKiPN2pp8InstanceEESt10_Select1stIS5_ESt4lessIiESaIS5_EE16_M_insert_uniqueERKS5_
 .text._ZNSt8_Rb_treeIiSt4pairIKiPN2pp8InstanceEESt10_Select1stIS5_ESt4lessIiESaIS5_EE17_M_insert_unique_ESt23_Rb_tree_const_iteratorIS5_ERKS5_
                0x0000000000025ca0      0x2a0 /Users/stevefar/nacl_sdk/pepper_45/lib/newlib_x86_64/Release/libppapi_cpp.a(module_x86_64.o)
                0x0000000000025ca0                _ZNSt8_Rb_treeIiSt4pairIKiPN2pp8InstanceEESt10_Select1stIS5_ESt4lessIiESaIS5_EE17_M_insert_unique_ESt23_Rb_tree_const_iteratorIS5_ERKS5_
 .text._ZN2pp9URLLoaderD1Ev
                0x0000000000025f40       0x20 /Users/stevefar/nacl_sdk/pepper_45/lib/newlib_x86_64/Release/libppapi_cpp.a(module_x86_64.o)
                0x0000000000025f40                _ZN2pp9URLLoaderD1Ev
 .text._ZN2pp9URLLoaderD0Ev
                0x0000000000025f60       0x40 /Users/stevefar/nacl_sdk/pepper_45/lib/newlib_x86_64/Release/libppapi_cpp.a(module_x86_64.o)
                0x0000000000025f60                _ZN2pp9URLLoaderD0Ev
 .text._ZN2pp4ViewD1Ev
                0x0000000000025fa0       0x20 /Users/stevefar/nacl_sdk/pepper_45/lib/newlib_x86_64/Release/libppapi_cpp.a(module_x86_64.o)
                0x0000000000025fa0                _ZN2pp4ViewD1Ev
 .text._ZN2pp4ViewD0Ev
                0x0000000000025fc0       0x40 /Users/stevefar/nacl_sdk/pepper_45/lib/newlib_x86_64/Release/libppapi_cpp.a(module_x86_64.o)
                0x0000000000025fc0                _ZN2pp4ViewD0Ev
 .text._ZNSt8_Rb_treeISsSt4pairIKSsPKvESt10_Select1stIS4_ESt4lessISsESaIS4_EE8_M_eraseEPSt13_Rb_tree_nodeIS4_E
                0x0000000000026000      0x160 /Users/stevefar/nacl_sdk/pepper_45/lib/newlib_x86_64/Release/libppapi_cpp.a(module_x86_64.o)
                0x0000000000026000                _ZNSt8_Rb_treeISsSt4pairIKSsPKvESt10_Select1stIS4_ESt4lessISsESaIS4_EE8_M_eraseEPSt13_Rb_tree_nodeIS4_E
 .text._ZNSt8_Rb_treeISsSt4pairIKSsPKvESt10_Select1stIS4_ESt4lessISsESaIS4_EE10_M_insert_EPKSt18_Rb_tree_node_baseSD_RKS4_
                0x0000000000026160      0x240 /Users/stevefar/nacl_sdk/pepper_45/lib/newlib_x86_64/Release/libppapi_cpp.a(module_x86_64.o)
                0x0000000000026160                _ZNSt8_Rb_treeISsSt4pairIKSsPKvESt10_Select1stIS4_ESt4lessISsESaIS4_EE10_M_insert_EPKSt18_Rb_tree_node_baseSD_RKS4_
 .text._ZNSt8_Rb_treeISsSt4pairIKSsPKvESt10_Select1stIS4_ESt4lessISsESaIS4_EE16_M_insert_uniqueERKS4_
                0x00000000000263a0      0x240 /Users/stevefar/nacl_sdk/pepper_45/lib/newlib_x86_64/Release/libppapi_cpp.a(module_x86_64.o)
                0x00000000000263a0                _ZNSt8_Rb_treeISsSt4pairIKSsPKvESt10_Select1stIS4_ESt4lessISsESaIS4_EE16_M_insert_uniqueERKS4_
 .text._ZNSt8_Rb_treeISsSt4pairIKSsPKvESt10_Select1stIS4_ESt4lessISsESaIS4_EE17_M_insert_unique_ESt23_Rb_tree_const_iteratorIS4_ERKS4_
                0x00000000000265e0      0x400 /Users/stevefar/nacl_sdk/pepper_45/lib/newlib_x86_64/Release/libppapi_cpp.a(module_x86_64.o)
                0x00000000000265e0                _ZNSt8_Rb_treeISsSt4pairIKSsPKvESt10_Select1stIS4_ESt4lessISsESaIS4_EE17_M_insert_unique_ESt23_Rb_tree_const_iteratorIS4_ERKS4_
 .text          0x00000000000269e0      0x1c0 /Users/stevefar/nacl_sdk/pepper_45/lib/newlib_x86_64/Release/libppapi_cpp.a(ppp_entrypoints_x86_64.o)
                0x00000000000269e0                _ZN2pp6Module3GetEv
                0x0000000000026a00                _ZN2pp25SetBrokerGetInterfaceFuncEPFPKvPKcE
                0x0000000000026a20                PPP_ShutdownModule
                0x0000000000026a80                PPP_GetInterface
                0x0000000000026ae0                PPP_InitializeModule
 .text          0x0000000000026ba0      0x6e0 /Users/stevefar/nacl_sdk/pepper_45/lib/newlib_x86_64/Release/libppapi_cpp.a(resource_x86_64.o)
                0x0000000000026ba0                _ZN2pp8ResourceC2Ev
                0x0000000000026be0                _ZN2pp8ResourceC1Ev
                0x0000000000026c20                _ZN2pp8Resource6detachEv
                0x0000000000026c40                _ZN2pp8ResourceC2ENS_7PassRefEi
                0x0000000000026c60                _ZN2pp8ResourceC1ENS_7PassRefEi
                0x0000000000026c80                _ZN2pp8Resource22PassRefFromConstructorEi
                0x0000000000026ca0                _ZN2pp8Resource5ClearEv
                0x0000000000026d60                _ZN2pp8ResourceC1Ei
                0x0000000000026de0                _ZN2pp8ResourceC2Ei
                0x0000000000026e60                _ZN2pp8ResourceaSERKS0_
                0x0000000000026fa0                _ZN2pp8ResourceC1ERKS0_
                0x0000000000027020                _ZN2pp8ResourceC2ERKS0_
                0x00000000000270a0                _ZN2pp8ResourceD1Ev
                0x0000000000027140                _ZN2pp8ResourceD2Ev
                0x00000000000271e0                _ZN2pp8ResourceD0Ev
 .text          0x0000000000027280     0x1f00 /Users/stevefar/nacl_sdk/pepper_45/lib/newlib_x86_64/Release/libppapi_cpp.a(url_loader_x86_64.o)
                0x0000000000027280                _ZN2pp9URLLoaderC1ERKS0_
                0x00000000000272c0                _ZN2pp9URLLoaderC2ERKS0_
                0x0000000000027300                _ZN2pp9URLLoaderC1Ei
                0x0000000000027340                _ZN2pp9URLLoaderC2Ei
                0x0000000000027380                _ZN2pp9URLLoader16ReadResponseBodyEPviRKNS_18CompletionCallbackE
                0x0000000000027700                _ZN2pp9URLLoader14FollowRedirectERKNS_18CompletionCallbackE
                0x0000000000027a00                _ZN2pp9URLLoaderC1ERKNS_14InstanceHandleE
                0x0000000000027d20                _ZNK2pp9URLLoader19GetDownloadProgressEPxS1_
                0x0000000000027fe0                _ZN2pp9URLLoader5CloseEv
                0x0000000000028240                _ZN2pp9URLLoaderC2ERKNS_14InstanceHandleE
                0x0000000000028560                _ZN2pp9URLLoader21FinishStreamingToFileERKNS_18CompletionCallbackE
                0x0000000000028860                _ZNK2pp9URLLoader15GetResponseInfoEv
                0x0000000000028b40                _ZNK2pp9URLLoader17GetUploadProgressEPxS1_
                0x0000000000028e00                _ZN2pp9URLLoader4OpenERKNS_14URLRequestInfoERKNS_18CompletionCallbackE
 .text._ZN2pp15URLResponseInfoD1Ev
                0x0000000000029180       0x20 /Users/stevefar/nacl_sdk/pepper_45/lib/newlib_x86_64/Release/libppapi_cpp.a(url_loader_x86_64.o)
                0x0000000000029180                _ZN2pp15URLResponseInfoD1Ev
 .text._ZN2pp15URLResponseInfoD0Ev
                0x00000000000291a0       0x40 /Users/stevefar/nacl_sdk/pepper_45/lib/newlib_x86_64/Release/libppapi_cpp.a(url_loader_x86_64.o)
                0x00000000000291a0                _ZN2pp15URLResponseInfoD0Ev
 .text          0x00000000000291e0      0x720 /Users/stevefar/nacl_sdk/pepper_45/lib/newlib_x86_64/Release/libppapi_cpp.a(url_response_info_x86_64.o)
                0x00000000000291e0                _ZN2pp15URLResponseInfoC1ENS_7PassRefEi
                0x0000000000029220                _ZN2pp15URLResponseInfoC2ENS_7PassRefEi
                0x0000000000029260                _ZN2pp15URLResponseInfoC1ERKS0_
                0x00000000000292a0                _ZN2pp15URLResponseInfoC2ERKS0_
                0x00000000000292e0                _ZNK2pp15URLResponseInfo16GetBodyAsFileRefEv
                0x00000000000295e0                _ZNK2pp15URLResponseInfo11GetPropertyE22PP_URLResponseProperty
 .text._ZN2pp7FileRefD1Ev
                0x0000000000029900       0x20 /Users/stevefar/nacl_sdk/pepper_45/lib/newlib_x86_64/Release/libppapi_cpp.a(url_response_info_x86_64.o)
                0x0000000000029900                _ZN2pp7FileRefD1Ev
 .text._ZN2pp7FileRefD0Ev
                0x0000000000029920       0x40 /Users/stevefar/nacl_sdk/pepper_45/lib/newlib_x86_64/Release/libppapi_cpp.a(url_response_info_x86_64.o)
                0x0000000000029920                _ZN2pp7FileRefD0Ev
 .text          0x0000000000029960     0x3d40 /Users/stevefar/nacl_sdk/pepper_45/lib/newlib_x86_64/Release/libppapi_cpp.a(var_x86_64.o)
                0x0000000000029960                _ZN2pp3VarC2Eb
                0x00000000000299c0                _ZN2pp3VarC1Eb
                0x0000000000029a20                _ZN2pp3VarC2Ei
                0x0000000000029a80                _ZN2pp3VarC1Ei
                0x0000000000029ae0                _ZN2pp3VarC2Ed
                0x0000000000029b40                _ZN2pp3VarC1Ed
                0x0000000000029ba0                _ZNK2pp3Var6AsBoolEv
                0x0000000000029be0                _ZNK2pp3Var5AsIntEv
                0x0000000000029c60                _ZNK2pp3Var8AsDoubleEv
                0x0000000000029e00                _ZN2pp3VarC1ENS0_4NullE
                0x0000000000029e60                _ZN2pp3VarC2ENS0_4NullE
                0x0000000000029ec0                _ZN2pp3VarC1Ev
                0x0000000000029f20                _ZN2pp3VarC2Ev
                0x0000000000029f80                _ZNK2pp3Var8AsStringEv
                0x000000000002a6e0                _ZNK2pp3Var11DebugStringEv
                0x000000000002ac00                _ZNK2pp3VareqERKS0_
                0x000000000002b040                _ZN2pp3VarC1ERKNS_8ResourceE
                0x000000000002b300                _ZN2pp3VarC2ERKNS_8ResourceE
                0x000000000002bc40                _ZN2pp3VarC1ERKSs
                0x000000000002bcc0                _ZN2pp3VarC2ERKSs
                0x000000000002bd40                _ZN2pp3VarC1EPKc
                0x000000000002be00                _ZN2pp3VarC2EPKc
                0x000000000002c680                _ZN2pp3VarC1ERKS0_
                0x000000000002c740                _ZN2pp3VarC2ERKS0_
                0x000000000002c800                _ZN2pp3VarC1ERK6PP_Var
                0x000000000002c8c0                _ZN2pp3VarC2ERK6PP_Var
                0x000000000002d140                _ZN2pp3VaraSERKS0_
                0x000000000002d260                _ZN2pp3VarD0Ev
                0x000000000002d2c0                _ZN2pp3VarD1Ev
                0x000000000002d320                _ZN2pp3VarD2Ev
                0x000000000002d380                _ZNK2pp3Var10AsResourceEv
 .text          0x000000000002d6a0     0x3040 /Users/stevefar/nacl_sdk/pepper_45/lib/newlib_x86_64/Release/libppapi_cpp.a(view_x86_64.o)
                0x000000000002d7c0                _ZN2pp4ViewC1Ei
                0x000000000002d800                _ZN2pp4ViewC2Ei
                0x000000000002d840                _ZN2pp4ViewC1Ev
                0x000000000002d880                _ZN2pp4ViewC2Ev
                0x000000000002d8c0                _ZNK2pp4View15GetScrollOffsetEv
                0x000000000002dba0                _ZNK2pp4View11GetClipRectEv
                0x000000000002e220                _ZNK2pp4View14GetDeviceScaleEv
                0x000000000002e680                _ZNK2pp4View11GetCSSScaleEv
                0x000000000002eae0                _ZNK2pp4View7GetRectEv
                0x000000000002f160                _ZNK2pp4View13IsPageVisibleEv
                0x000000000002f8a0                _ZNK2pp4View9IsVisibleEv
                0x000000000002ffc0                _ZNK2pp4View12IsFullscreenEv
 .text          0x00000000000306e0       0x80 /Users/stevefar/nacl_sdk/pepper_45/lib/newlib_x86_64/Release/libppapi_cpp.a(core_x86_64.o)
                0x00000000000306e0                _ZN2pp4Core16CallOnMainThreadEiRKNS_18CompletionCallbackEi
                0x0000000000030720                _ZN2pp4Core12IsMainThreadEv
 .text          0x0000000000030760     0x5500 /Users/stevefar/nacl_sdk/pepper_45/lib/newlib_x86_64/Release/libppapi_cpp.a(file_ref_x86_64.o)
                0x0000000000030880                _ZN2pp7FileRefC1ERKS0_
                0x00000000000308c0                _ZN2pp7FileRefC2ERKS0_
                0x0000000000030900                _ZN2pp7FileRefC1ENS_7PassRefEi
                0x0000000000030940                _ZN2pp7FileRefC2ENS_7PassRefEi
                0x0000000000030980                _ZN2pp7FileRefC1Ei
                0x00000000000309c0                _ZN2pp7FileRefC2Ei
                0x0000000000030a00                _ZN2pp7FileRef13MakeDirectoryEiRKNS_18CompletionCallbackE
                0x00000000000311c0                _ZN2pp7FileRef20ReadDirectoryEntriesERKNS_28CompletionCallbackWithOutputISt6vectorINS_14DirectoryEntryESaIS3_EEEE
                0x0000000000031760                _ZN2pp7FileRef5QueryERKNS_28CompletionCallbackWithOutputI11PP_FileInfoEE
                0x0000000000031ce0                _ZN2pp7FileRefC1ERKNS_10FileSystemEPKc
                0x0000000000032340                _ZNK2pp7FileRef17GetFileSystemTypeEv
                0x00000000000329a0                _ZN2pp7FileRef6RenameERKS0_RKNS_18CompletionCallbackE
                0x00000000000331e0                _ZN2pp7FileRef6DeleteERKNS_18CompletionCallbackE
                0x00000000000339a0                _ZN2pp7FileRef5TouchEddRKNS_18CompletionCallbackE
                0x00000000000341a0                _ZNK2pp7FileRef7GetPathEv
                0x0000000000034860                _ZNK2pp7FileRef7GetNameEv
                0x0000000000034f20                _ZNK2pp7FileRef9GetParentEv
                0x0000000000035600                _ZN2pp7FileRefC2ERKNS_10FileSystemEPKc
 .text._ZNK2pp18CompletionCallback8MayForceEi
                0x0000000000035c60       0xc0 /Users/stevefar/nacl_sdk/pepper_45/lib/newlib_x86_64/Release/libppapi_cpp.a(file_ref_x86_64.o)
                0x0000000000035c60                _ZNK2pp18CompletionCallback8MayForceEi
 .text          0x0000000000035d20     0x9ae0 /Users/stevefar/nacl_sdk/pepper_45/lib/newlib_x86_64/Release/libppapi_cpp.a(input_event_x86_64.o)
                0x0000000000036080                _ZN2pp10InputEventD0Ev
                0x00000000000360c0                _ZN2pp10InputEventD1Ev
                0x00000000000360e0                _ZN2pp10InputEventD2Ev
                0x0000000000036100                _ZN2pp10InputEventC1Ev
                0x0000000000036140                _ZN2pp10InputEventC2Ev
                0x0000000000036180                _ZN2pp13IMEInputEventC1Ev
                0x00000000000361c0                _ZN2pp13IMEInputEventC2Ev
                0x0000000000036200                _ZN2pp15TouchInputEventC1Ev
                0x0000000000036240                _ZN2pp15TouchInputEventC2Ev
                0x0000000000036280                _ZN2pp18KeyboardInputEventC1Ev
                0x00000000000362c0                _ZN2pp18KeyboardInputEventC2Ev
                0x0000000000036300                _ZN2pp15WheelInputEventC1Ev
                0x0000000000036340                _ZN2pp15WheelInputEventC2Ev
                0x0000000000036380                _ZN2pp15MouseInputEventC1Ev
                0x00000000000363c0                _ZN2pp15MouseInputEventC2Ev
                0x0000000000036400                _ZN2pp10InputEventC2Ei
                0x0000000000036760                _ZNK2pp10InputEvent12GetModifiersEv
                0x00000000000369c0                _ZNK2pp10InputEvent12GetTimeStampEv
                0x0000000000036c20                _ZNK2pp10InputEvent7GetTypeEv
                0x0000000000036e80                _ZN2pp10InputEventC1Ei
                0x00000000000371e0                _ZNK2pp15WheelInputEvent15GetScrollByPageEv
                0x0000000000037480                _ZN2pp15WheelInputEventC1ERKNS_14InstanceHandleEdjRKNS_10FloatPointES6_b
                0x0000000000037800                _ZN2pp15WheelInputEventC2ERKNS_14InstanceHandleEdjRKNS_10FloatPointES6_b
                0x0000000000037b80                _ZN2pp15WheelInputEventC2ERKNS_10InputEventE
                0x0000000000037f00                _ZNK2pp15WheelInputEvent8GetTicksEv
                0x00000000000381e0                _ZNK2pp15WheelInputEvent8GetDeltaEv
                0x00000000000384c0                _ZN2pp18KeyboardInputEventC2ERKNS_10InputEventE
                0x0000000000038860                _ZN2pp18KeyboardInputEventC1ERKNS_10InputEventE
                0x0000000000038c00                _ZN2pp18KeyboardInputEventC1ERKNS_14InstanceHandleE18PP_InputEvent_TypedjjRKNS_3VarES7_
                0x0000000000038f60                _ZN2pp18KeyboardInputEventC1ERKNS_14InstanceHandleE18PP_InputEvent_TypedjjRKNS_3VarE
                0x0000000000039460                _ZN2pp15WheelInputEventC1ERKNS_10InputEventE
                0x00000000000397e0                _ZN2pp15TouchInputEventC2ERKNS_10InputEventE
                0x0000000000039b60                _ZNK2pp15MouseInputEvent11GetMovementEv
                0x0000000000039e40                _ZN2pp15TouchInputEvent13AddTouchPointE16PP_TouchListType13PP_TouchPoint
                0x000000000003a100                _ZN2pp15TouchInputEventC1ERKNS_14InstanceHandleE18PP_InputEvent_Typedj
                0x000000000003a480                _ZN2pp15TouchInputEventC1ERKNS_10InputEventE
                0x000000000003a800                _ZNK2pp15TouchInputEvent15GetTouchByIndexE16PP_TouchListTypej
                0x000000000003ab40                _ZN2pp15MouseInputEventC2ERKNS_10InputEventE
                0x000000000003aec0                _ZNK2pp15TouchInputEvent13GetTouchCountE16PP_TouchListType
                0x000000000003b180                _ZNK2pp15MouseInputEvent13GetClickCountEv
                0x000000000003b3e0                _ZNK2pp15MouseInputEvent11GetPositionEv
                0x000000000003b6c0                _ZN2pp15MouseInputEventC1ERKNS_14InstanceHandleE18PP_InputEvent_Typedj25PP_InputEvent_MouseButtonRKNS_5PointEiS8_
                0x000000000003ba60                _ZN2pp15MouseInputEventC2ERKNS_14InstanceHandleE18PP_InputEvent_Typedj25PP_InputEvent_MouseButtonRKNS_5PointEiS8_
                0x000000000003be00                _ZN2pp15MouseInputEventC1ERKNS_10InputEventE
                0x000000000003c180                _ZNK2pp18KeyboardInputEvent10GetKeyCodeEv
                0x000000000003c500                _ZNK2pp18KeyboardInputEvent7GetCodeEv
                0x000000000003c6c0                _ZNK2pp18KeyboardInputEvent16GetCharacterTextEv
                0x000000000003caa0                _ZNK2pp15TouchInputEvent12GetTouchByIdE16PP_TouchListTypej
                0x000000000003cde0                _ZNK2pp13IMEInputEvent7GetTextEv
                0x000000000003d0a0                _ZNK2pp13IMEInputEvent16GetSegmentNumberEv
                0x000000000003d300                _ZNK2pp13IMEInputEvent16GetSegmentOffsetEj
                0x000000000003d480                _ZN2pp13IMEInputEventC1ERKNS_14InstanceHandleE18PP_InputEvent_TypedRKNS_3VarERKSt6vectorIjSaIjEEiRKSt4pairIjjE
                0x000000000003d7c0                _ZN2pp13IMEInputEventC2ERKNS_14InstanceHandleE18PP_InputEvent_TypedRKNS_3VarERKSt6vectorIjSaIjEEiRKSt4pairIjjE
                0x000000000003dbe0                _ZN2pp13IMEInputEventC1ERKNS_10InputEventE
                0x000000000003df60                _ZN2pp13IMEInputEventC2ERKNS_10InputEventE
                0x000000000003e1e0                _ZNK2pp13IMEInputEvent12GetSelectionEPjS1_
                0x000000000003e4a0                _ZN2pp15TouchInputEventC2ERKNS_14InstanceHandleE18PP_InputEvent_Typedj
                0x000000000003e820                _ZNK2pp13IMEInputEvent16GetTargetSegmentEv
                0x000000000003ea80                _ZNK2pp15MouseInputEvent9GetButtonEv
                0x000000000003ece0                _ZN2pp18KeyboardInputEventC2ERKNS_14InstanceHandleE18PP_InputEvent_TypedjjRKNS_3VarE
                0x000000000003f2c0                _ZN2pp18KeyboardInputEventC2ERKNS_14InstanceHandleE18PP_InputEvent_TypedjjRKNS_3VarES7_
 .text._ZN2pp13IMEInputEventD0Ev
                0x000000000003f800       0x40 /Users/stevefar/nacl_sdk/pepper_45/lib/newlib_x86_64/Release/libppapi_cpp.a(input_event_x86_64.o)
                0x000000000003f800                _ZN2pp13IMEInputEventD0Ev
 .text._ZN2pp13IMEInputEventD1Ev
                0x000000000003f840       0x20 /Users/stevefar/nacl_sdk/pepper_45/lib/newlib_x86_64/Release/libppapi_cpp.a(input_event_x86_64.o)
                0x000000000003f840                _ZN2pp13IMEInputEventD1Ev
 .text._ZN2pp15TouchInputEventD0Ev
                0x000000000003f860       0x40 /Users/stevefar/nacl_sdk/pepper_45/lib/newlib_x86_64/Release/libppapi_cpp.a(input_event_x86_64.o)
                0x000000000003f860                _ZN2pp15TouchInputEventD0Ev
 .text._ZN2pp15TouchInputEventD1Ev
                0x000000000003f8a0       0x20 /Users/stevefar/nacl_sdk/pepper_45/lib/newlib_x86_64/Release/libppapi_cpp.a(input_event_x86_64.o)
                0x000000000003f8a0                _ZN2pp15TouchInputEventD1Ev
 .text._ZN2pp18KeyboardInputEventD0Ev
                0x000000000003f8c0       0x40 /Users/stevefar/nacl_sdk/pepper_45/lib/newlib_x86_64/Release/libppapi_cpp.a(input_event_x86_64.o)
                0x000000000003f8c0                _ZN2pp18KeyboardInputEventD0Ev
 .text._ZN2pp18KeyboardInputEventD1Ev
                0x000000000003f900       0x20 /Users/stevefar/nacl_sdk/pepper_45/lib/newlib_x86_64/Release/libppapi_cpp.a(input_event_x86_64.o)
                0x000000000003f900                _ZN2pp18KeyboardInputEventD1Ev
 .text._ZN2pp15WheelInputEventD0Ev
                0x000000000003f920       0x40 /Users/stevefar/nacl_sdk/pepper_45/lib/newlib_x86_64/Release/libppapi_cpp.a(input_event_x86_64.o)
                0x000000000003f920                _ZN2pp15WheelInputEventD0Ev
 .text._ZN2pp15WheelInputEventD1Ev
                0x000000000003f960       0x20 /Users/stevefar/nacl_sdk/pepper_45/lib/newlib_x86_64/Release/libppapi_cpp.a(input_event_x86_64.o)
                0x000000000003f960                _ZN2pp15WheelInputEventD1Ev
 .text._ZN2pp15MouseInputEventD0Ev
                0x000000000003f980       0x40 /Users/stevefar/nacl_sdk/pepper_45/lib/newlib_x86_64/Release/libppapi_cpp.a(input_event_x86_64.o)
                0x000000000003f980                _ZN2pp15MouseInputEventD0Ev
 .text._ZN2pp15MouseInputEventD1Ev
                0x000000000003f9c0       0x20 /Users/stevefar/nacl_sdk/pepper_45/lib/newlib_x86_64/Release/libppapi_cpp.a(input_event_x86_64.o)
                0x000000000003f9c0                _ZN2pp15MouseInputEventD1Ev
 .text          0x000000000003f9e0       0x20 /Users/stevefar/nacl_sdk/pepper_45/toolchain/mac_x86_newlib/bin/../lib/gcc/x86_64-nacl/4.4.3/../../../../x86_64-nacl/lib/../lib64/libppapi_stub.a(plugin_main_irt_21ce9d26.o)
                0x000000000003f9e0                main
 .text          0x000000000003fa00       0x20 /Users/stevefar/nacl_sdk/pepper_45/toolchain/mac_x86_newlib/bin/../lib/gcc/x86_64-nacl/4.4.3/../../../../x86_64-nacl/lib/../lib64/libppapi_stub.a(ppapi_plugin_main_399d0cf7.o)
                0x000000000003fa00                PpapiPluginMain
 .text          0x000000000003fa20      0x200 /Users/stevefar/nacl_sdk/pepper_45/toolchain/mac_x86_newlib/bin/../lib/gcc/x86_64-nacl/4.4.3/../../../../x86_64-nacl/lib/../lib64/libppapi_stub.a(ppapi_plugin_start_8da67623.o)
                0x000000000003fa80                PpapiPluginStart
 .text          0x000000000003fc20       0x60 /Users/stevefar/nacl_sdk/pepper_45/toolchain/mac_x86_newlib/bin/../lib/gcc/x86_64-nacl/4.4.3/../../../../x86_64-nacl/lib/../lib64/libppapi_stub.a(thread_creator_ccf263e1.o)
                0x000000000003fc20                __nacl_register_thread_creator
 .text          0x000000000003fc80     0x2000 /Users/stevefar/nacl_sdk/pepper_45/toolchain/mac_x86_newlib/bin/../lib/gcc/x86_64-nacl/4.4.3/../../../../x86_64-nacl/lib/../lib64/libpthread.a(nc_thread_7e478b15.o)
                0x000000000003fc80                pthread_kill
                0x000000000003fca0                pthread_equal
                0x000000000003fcc0                pthread_attr_init
                0x000000000003fd20                pthread_attr_destroy
                0x000000000003fd40                pthread_attr_setdetachstate
                0x000000000003fd80                pthread_attr_getdetachstate
                0x000000000003fdc0                pthread_attr_setscope
                0x000000000003fe00                pthread_attr_getscope
                0x000000000003fe20                pthread_attr_setstacksize
                0x000000000003fea0                pthread_attr_getstacksize
                0x000000000003fee0                pthread_getspecific
                0x000000000003ffc0                __nc_tsd_exit
                0x0000000000040260                pthread_cleanup_pop
                0x0000000000040340                pthread_setspecific
                0x00000000000404a0                pthread_key_delete
                0x0000000000040540                pthread_key_create
                0x00000000000405e0                __local_lock_release
                0x0000000000040620                __local_lock_release_recursive
                0x0000000000040640                __local_lock_try_acquire
                0x0000000000040680                __local_lock_try_acquire_recursive
                0x00000000000406a0                __local_lock_acquire
                0x00000000000406e0                __local_lock_acquire_recursive
                0x0000000000040700                __local_lock_close
                0x0000000000040740                __local_lock_close_recursive
                0x0000000000040760                __local_lock_init_recursive
                0x00000000000407e0                __local_lock_init
                0x0000000000040860                pthread_self
                0x00000000000408a0                pthread_setschedprio
                0x0000000000040980                pthread_detach
                0x0000000000040a60                pthread_join
                0x0000000000040c40                pthread_exit
                0x00000000000410c0                pthread_cleanup_push
                0x0000000000041540                pthread_create
                0x00000000000419a0                __nc_initialize_unjoinable_thread
                0x0000000000041b00                __nc_initialize_globals
                0x0000000000041c00                __pthread_initialize
 .text          0x0000000000041c80      0x2c0 /Users/stevefar/nacl_sdk/pepper_45/toolchain/mac_x86_newlib/bin/../lib/gcc/x86_64-nacl/4.4.3/../../../../x86_64-nacl/lib/../lib64/libpthread.a(nc_condvar_305aa45a.o)
                0x0000000000041c80                pthread_cond_init
                0x0000000000041ca0                pthread_cond_destroy
                0x0000000000041cc0                pthread_condattr_init
                0x0000000000041ce0                pthread_condattr_destroy
                0x0000000000041d00                pthread_condattr_getpshared
                0x0000000000041d20                pthread_condattr_setpshared
                0x0000000000041d40                pthread_condattr_getclock
                0x0000000000041d60                pthread_condattr_setclock
                0x0000000000041d80                pthread_cond_timedwait_abs
                0x0000000000041e80                pthread_cond_wait
                0x0000000000041f00                pthread_cond_broadcast
                0x0000000000041f20                pthread_cond_signal
 .text          0x0000000000041f40      0x560 /Users/stevefar/nacl_sdk/pepper_45/toolchain/mac_x86_newlib/bin/../lib/gcc/x86_64-nacl/4.4.3/../../../../x86_64-nacl/lib/../lib64/libpthread.a(dynamic_annotations_33ba59cc.o)
                0x0000000000041f40                NACL_AnnotateRWLockCreate
                0x0000000000041f60                NACL_AnnotateRWLockDestroy
                0x0000000000041f80                NACL_AnnotateRWLockAcquired
                0x0000000000041fa0                NACL_AnnotateRWLockReleased
                0x0000000000041fc0                NACL_AnnotateBarrierInit
                0x0000000000041fe0                NACL_AnnotateBarrierWaitBefore
                0x0000000000042000                NACL_AnnotateBarrierWaitAfter
                0x0000000000042020                NACL_AnnotateBarrierDestroy
                0x0000000000042040                NACL_AnnotateCondVarWait
                0x0000000000042060                NACL_AnnotateCondVarSignal
                0x0000000000042080                NACL_AnnotateCondVarSignalAll
                0x00000000000420a0                NACL_AnnotateHappensBefore
                0x00000000000420c0                NACL_AnnotateHappensAfter
                0x00000000000420e0                NACL_AnnotatePublishMemoryRange
                0x0000000000042100                NACL_AnnotateUnpublishMemoryRange
                0x0000000000042120                NACL_AnnotatePCQCreate
                0x0000000000042140                NACL_AnnotatePCQDestroy
                0x0000000000042160                NACL_AnnotatePCQPut
                0x0000000000042180                NACL_AnnotatePCQGet
                0x00000000000421a0                NACL_AnnotateNewMemory
                0x00000000000421c0                NACL_AnnotateExpectRace
                0x00000000000421e0                NACL_AnnotateFlushExpectedRaces
                0x0000000000042200                NACL_AnnotateBenignRace
                0x0000000000042220                NACL_AnnotateBenignRaceSized
                0x0000000000042240                NACL_AnnotateMutexIsUsedAsCondVar
                0x0000000000042260                NACL_AnnotateMutexIsNotPHB
                0x0000000000042280                NACL_AnnotateTraceMemory
                0x00000000000422a0                NACL_AnnotateThreadName
                0x00000000000422c0                NACL_AnnotateIgnoreReadsBegin
                0x00000000000422e0                NACL_AnnotateIgnoreReadsEnd
                0x0000000000042300                NACL_AnnotateIgnoreWritesBegin
                0x0000000000042320                NACL_AnnotateIgnoreWritesEnd
                0x0000000000042340                NACL_AnnotateIgnoreSyncBegin
                0x0000000000042360                NACL_AnnotateIgnoreSyncEnd
                0x0000000000042380                NACL_AnnotateEnableRaceDetection
                0x00000000000423a0                NACL_AnnotateNoOp
                0x00000000000423c0                NACL_AnnotateFlushState
                0x00000000000423e0                RunningOnValgrind
 .text          0x00000000000424a0      0x780 /Users/stevefar/nacl_sdk/pepper_45/toolchain/mac_x86_newlib/bin/../lib/gcc/x86_64-nacl/4.4.3/../../../../x86_64-nacl/lib/../lib64/libpthread.a(nc_mutex_86341ae1.o)
                0x00000000000424a0                pthread_mutex_init
                0x0000000000042520                pthread_mutex_destroy
                0x00000000000425a0                pthread_mutexattr_init
                0x00000000000425c0                pthread_mutexattr_destroy
                0x00000000000425e0                pthread_mutexattr_settype
                0x0000000000042620                pthread_mutexattr_gettype
                0x0000000000042640                pthread_mutexattr_setpshared
                0x0000000000042660                pthread_mutexattr_getpshared
                0x0000000000042680                pthread_mutex_unlock
                0x0000000000042a80                pthread_mutex_timedlock
                0x0000000000042aa0                pthread_mutex_lock
                0x0000000000042ac0                pthread_once
                0x0000000000042c00                pthread_mutex_trylock
 .text          0x0000000000042c20       0x40 /Users/stevefar/nacl_sdk/pepper_45/toolchain/mac_x86_newlib/bin/../lib/gcc/x86_64-nacl/4.4.3/../../../../x86_64-nacl/lib/../lib64/libpthread.a(nc_init_irt_d3daafc0.o)
                0x0000000000042c20                __nc_initialize_interfaces
 .text          0x0000000000042c60        0x0 /Users/stevefar/nacl_sdk/pepper_45/toolchain/mac_x86_newlib/bin/../lib/gcc/x86_64-nacl/4.4.3/../../../../x86_64-nacl/lib/../lib64/libstdc++.a(tree.o)
 .text._ZSt18_Rb_tree_incrementPSt18_Rb_tree_node_base
                0x0000000000042c60       0xa0 /Users/stevefar/nacl_sdk/pepper_45/toolchain/mac_x86_newlib/bin/../lib/gcc/x86_64-nacl/4.4.3/../../../../x86_64-nacl/lib/../lib64/libstdc++.a(tree.o)
                0x0000000000042c60                _ZSt18_Rb_tree_incrementPSt18_Rb_tree_node_base
 .text._ZSt18_Rb_tree_incrementPKSt18_Rb_tree_node_base
                0x0000000000042d00       0xc0 /Users/stevefar/nacl_sdk/pepper_45/toolchain/mac_x86_newlib/bin/../lib/gcc/x86_64-nacl/4.4.3/../../../../x86_64-nacl/lib/../lib64/libstdc++.a(tree.o)
                0x0000000000042d00                _ZSt18_Rb_tree_incrementPKSt18_Rb_tree_node_base
 .text._ZSt18_Rb_tree_decrementPSt18_Rb_tree_node_base
                0x0000000000042dc0      0x140 /Users/stevefar/nacl_sdk/pepper_45/toolchain/mac_x86_newlib/bin/../lib/gcc/x86_64-nacl/4.4.3/../../../../x86_64-nacl/lib/../lib64/libstdc++.a(tree.o)
                0x0000000000042dc0                _ZSt18_Rb_tree_decrementPSt18_Rb_tree_node_base
 .text._ZSt18_Rb_tree_decrementPKSt18_Rb_tree_node_base
                0x0000000000042f00      0x120 /Users/stevefar/nacl_sdk/pepper_45/toolchain/mac_x86_newlib/bin/../lib/gcc/x86_64-nacl/4.4.3/../../../../x86_64-nacl/lib/../lib64/libstdc++.a(tree.o)
                0x0000000000042f00                _ZSt18_Rb_tree_decrementPKSt18_Rb_tree_node_base
 .text._ZSt20_Rb_tree_rotate_leftPSt18_Rb_tree_node_baseRS0_
                0x0000000000043020       0xe0 /Users/stevefar/nacl_sdk/pepper_45/toolchain/mac_x86_newlib/bin/../lib/gcc/x86_64-nacl/4.4.3/../../../../x86_64-nacl/lib/../lib64/libstdc++.a(tree.o)
                0x0000000000043020                _ZSt20_Rb_tree_rotate_leftPSt18_Rb_tree_node_baseRS0_
 .text._ZSt21_Rb_tree_rotate_rightPSt18_Rb_tree_node_baseRS0_
                0x0000000000043100       0xe0 /Users/stevefar/nacl_sdk/pepper_45/toolchain/mac_x86_newlib/bin/../lib/gcc/x86_64-nacl/4.4.3/../../../../x86_64-nacl/lib/../lib64/libstdc++.a(tree.o)
                0x0000000000043100                _ZSt21_Rb_tree_rotate_rightPSt18_Rb_tree_node_baseRS0_
 .text._ZSt29_Rb_tree_insert_and_rebalancebPSt18_Rb_tree_node_baseS0_RS_
                0x00000000000431e0      0x580 /Users/stevefar/nacl_sdk/pepper_45/toolchain/mac_x86_newlib/bin/../lib/gcc/x86_64-nacl/4.4.3/../../../../x86_64-nacl/lib/../lib64/libstdc++.a(tree.o)
                0x00000000000431e0                _ZSt29_Rb_tree_insert_and_rebalancebPSt18_Rb_tree_node_baseS0_RS_
 .text._ZSt28_Rb_tree_rebalance_for_erasePSt18_Rb_tree_node_baseRS_
                0x0000000000043760      0xbc0 /Users/stevefar/nacl_sdk/pepper_45/toolchain/mac_x86_newlib/bin/../lib/gcc/x86_64-nacl/4.4.3/../../../../x86_64-nacl/lib/../lib64/libstdc++.a(tree.o)
                0x0000000000043760                _ZSt28_Rb_tree_rebalance_for_erasePSt18_Rb_tree_node_baseRS_
 .text._ZSt20_Rb_tree_black_countPKSt18_Rb_tree_node_baseS1_
                0x0000000000044320       0x80 /Users/stevefar/nacl_sdk/pepper_45/toolchain/mac_x86_newlib/bin/../lib/gcc/x86_64-nacl/4.4.3/../../../../x86_64-nacl/lib/../lib64/libstdc++.a(tree.o)
                0x0000000000044320                _ZSt20_Rb_tree_black_countPKSt18_Rb_tree_node_baseS1_
 .text          0x00000000000443a0        0x0 /Users/stevefar/nacl_sdk/pepper_45/toolchain/mac_x86_newlib/bin/../lib/gcc/x86_64-nacl/4.4.3/../../../../x86_64-nacl/lib/../lib64/libstdc++.a(string-inst.o)
 .text._ZNKSs7_M_dataEv
                0x00000000000443a0       0x20 /Users/stevefar/nacl_sdk/pepper_45/toolchain/mac_x86_newlib/bin/../lib/gcc/x86_64-nacl/4.4.3/../../../../x86_64-nacl/lib/../lib64/libstdc++.a(string-inst.o)
                0x00000000000443a0                _ZNKSs7_M_dataEv
 .text._ZNSs7_M_dataEPc
                0x00000000000443c0       0x20 /Users/stevefar/nacl_sdk/pepper_45/toolchain/mac_x86_newlib/bin/../lib/gcc/x86_64-nacl/4.4.3/../../../../x86_64-nacl/lib/../lib64/libstdc++.a(string-inst.o)
                0x00000000000443c0                _ZNSs7_M_dataEPc
 .text._ZNKSs6_M_repEv
                0x00000000000443e0       0x20 /Users/stevefar/nacl_sdk/pepper_45/toolchain/mac_x86_newlib/bin/../lib/gcc/x86_64-nacl/4.4.3/../../../../x86_64-nacl/lib/../lib64/libstdc++.a(string-inst.o)
                0x00000000000443e0                _ZNKSs6_M_repEv
 .text._ZNKSs9_M_ibeginEv
                0x0000000000044400       0x20 /Users/stevefar/nacl_sdk/pepper_45/toolchain/mac_x86_newlib/bin/../lib/gcc/x86_64-nacl/4.4.3/../../../../x86_64-nacl/lib/../lib64/libstdc++.a(string-inst.o)
                0x0000000000044400                _ZNKSs9_M_ibeginEv
 .text._ZNKSs7_M_iendEv
                0x0000000000044420       0x20 /Users/stevefar/nacl_sdk/pepper_45/toolchain/mac_x86_newlib/bin/../lib/gcc/x86_64-nacl/4.4.3/../../../../x86_64-nacl/lib/../lib64/libstdc++.a(string-inst.o)
                0x0000000000044420                _ZNKSs7_M_iendEv
 .text._ZNKSs8_M_limitEjj
                0x0000000000044440       0x40 /Users/stevefar/nacl_sdk/pepper_45/toolchain/mac_x86_newlib/bin/../lib/gcc/x86_64-nacl/4.4.3/../../../../x86_64-nacl/lib/../lib64/libstdc++.a(string-inst.o)
                0x0000000000044440                _ZNKSs8_M_limitEjj
 .text._ZNKSs11_M_disjunctEPKc
                0x0000000000044480       0x60 /Users/stevefar/nacl_sdk/pepper_45/toolchain/mac_x86_newlib/bin/../lib/gcc/x86_64-nacl/4.4.3/../../../../x86_64-nacl/lib/../lib64/libstdc++.a(string-inst.o)
                0x0000000000044480                _ZNKSs11_M_disjunctEPKc
 .text._ZNSs10_S_compareEjj
                0x00000000000444e0       0x20 /Users/stevefar/nacl_sdk/pepper_45/toolchain/mac_x86_newlib/bin/../lib/gcc/x86_64-nacl/4.4.3/../../../../x86_64-nacl/lib/../lib64/libstdc++.a(string-inst.o)
                0x00000000000444e0                _ZNSs10_S_compareEjj
 .text._ZNSs12_S_empty_repEv
                0x0000000000044500       0x20 /Users/stevefar/nacl_sdk/pepper_45/toolchain/mac_x86_newlib/bin/../lib/gcc/x86_64-nacl/4.4.3/../../../../x86_64-nacl/lib/../lib64/libstdc++.a(string-inst.o)
                0x0000000000044500                _ZNSs12_S_empty_repEv
 .text._ZNSsC2Ev
                0x0000000000044520       0x20 /Users/stevefar/nacl_sdk/pepper_45/toolchain/mac_x86_newlib/bin/../lib/gcc/x86_64-nacl/4.4.3/../../../../x86_64-nacl/lib/../lib64/libstdc++.a(string-inst.o)
                0x0000000000044520                _ZNSsC2Ev
 .text._ZNSsC1Ev
                0x0000000000044540       0x20 /Users/stevefar/nacl_sdk/pepper_45/toolchain/mac_x86_newlib/bin/../lib/gcc/x86_64-nacl/4.4.3/../../../../x86_64-nacl/lib/../lib64/libstdc++.a(string-inst.o)
                0x0000000000044540                _ZNSsC1Ev
 .text._ZNKSs5beginEv
                0x0000000000044560       0x20 /Users/stevefar/nacl_sdk/pepper_45/toolchain/mac_x86_newlib/bin/../lib/gcc/x86_64-nacl/4.4.3/../../../../x86_64-nacl/lib/../lib64/libstdc++.a(string-inst.o)
                0x0000000000044560                _ZNKSs5beginEv
 .text._ZNKSs3endEv
                0x0000000000044580       0x20 /Users/stevefar/nacl_sdk/pepper_45/toolchain/mac_x86_newlib/bin/../lib/gcc/x86_64-nacl/4.4.3/../../../../x86_64-nacl/lib/../lib64/libstdc++.a(string-inst.o)
                0x0000000000044580                _ZNKSs3endEv
 .text._ZNKSs6rbeginEv
                0x00000000000445a0       0x40 /Users/stevefar/nacl_sdk/pepper_45/toolchain/mac_x86_newlib/bin/../lib/gcc/x86_64-nacl/4.4.3/../../../../x86_64-nacl/lib/../lib64/libstdc++.a(string-inst.o)
                0x00000000000445a0                _ZNKSs6rbeginEv
 .text._ZNKSs4rendEv
                0x00000000000445e0       0x20 /Users/stevefar/nacl_sdk/pepper_45/toolchain/mac_x86_newlib/bin/../lib/gcc/x86_64-nacl/4.4.3/../../../../x86_64-nacl/lib/../lib64/libstdc++.a(string-inst.o)
                0x00000000000445e0                _ZNKSs4rendEv
 .text._ZNKSs4sizeEv
                0x0000000000044600       0x20 /Users/stevefar/nacl_sdk/pepper_45/toolchain/mac_x86_newlib/bin/../lib/gcc/x86_64-nacl/4.4.3/../../../../x86_64-nacl/lib/../lib64/libstdc++.a(string-inst.o)
                0x0000000000044600                _ZNKSs4sizeEv
 .text._ZNKSs6lengthEv
                0x0000000000044620       0x20 /Users/stevefar/nacl_sdk/pepper_45/toolchain/mac_x86_newlib/bin/../lib/gcc/x86_64-nacl/4.4.3/../../../../x86_64-nacl/lib/../lib64/libstdc++.a(string-inst.o)
                0x0000000000044620                _ZNKSs6lengthEv
 .text._ZNKSs8max_sizeEv
                0x0000000000044640       0x20 /Users/stevefar/nacl_sdk/pepper_45/toolchain/mac_x86_newlib/bin/../lib/gcc/x86_64-nacl/4.4.3/../../../../x86_64-nacl/lib/../lib64/libstdc++.a(string-inst.o)
                0x0000000000044640                _ZNKSs8max_sizeEv
 .text._ZNKSs8capacityEv
                0x0000000000044660       0x20 /Users/stevefar/nacl_sdk/pepper_45/toolchain/mac_x86_newlib/bin/../lib/gcc/x86_64-nacl/4.4.3/../../../../x86_64-nacl/lib/../lib64/libstdc++.a(string-inst.o)
                0x0000000000044660                _ZNKSs8capacityEv
 .text._ZNKSs5emptyEv
                0x0000000000044680       0x40 /Users/stevefar/nacl_sdk/pepper_45/toolchain/mac_x86_newlib/bin/../lib/gcc/x86_64-nacl/4.4.3/../../../../x86_64-nacl/lib/../lib64/libstdc++.a(string-inst.o)
                0x0000000000044680                _ZNKSs5emptyEv
 .text._ZNKSsixEj
                0x00000000000446c0       0x20 /Users/stevefar/nacl_sdk/pepper_45/toolchain/mac_x86_newlib/bin/../lib/gcc/x86_64-nacl/4.4.3/../../../../x86_64-nacl/lib/../lib64/libstdc++.a(string-inst.o)
                0x00000000000446c0                _ZNKSsixEj
 .text._ZNSs4swapERSs
                0x00000000000446e0       0x80 /Users/stevefar/nacl_sdk/pepper_45/toolchain/mac_x86_newlib/bin/../lib/gcc/x86_64-nacl/4.4.3/../../../../x86_64-nacl/lib/../lib64/libstdc++.a(string-inst.o)
                0x00000000000446e0                _ZNSs4swapERSs
 .text._ZNKSs5c_strEv
                0x0000000000044760       0x20 /Users/stevefar/nacl_sdk/pepper_45/toolchain/mac_x86_newlib/bin/../lib/gcc/x86_64-nacl/4.4.3/../../../../x86_64-nacl/lib/../lib64/libstdc++.a(string-inst.o)
                0x0000000000044760                _ZNKSs5c_strEv
 .text._ZNKSs4dataEv
                0x0000000000044780       0x20 /Users/stevefar/nacl_sdk/pepper_45/toolchain/mac_x86_newlib/bin/../lib/gcc/x86_64-nacl/4.4.3/../../../../x86_64-nacl/lib/../lib64/libstdc++.a(string-inst.o)
                0x0000000000044780                _ZNKSs4dataEv
 .text._ZNKSs13get_allocatorEv
                0x00000000000447a0       0x20 /Users/stevefar/nacl_sdk/pepper_45/toolchain/mac_x86_newlib/bin/../lib/gcc/x86_64-nacl/4.4.3/../../../../x86_64-nacl/lib/../lib64/libstdc++.a(string-inst.o)
                0x00000000000447a0                _ZNKSs13get_allocatorEv
 .text._ZNKSs5rfindEcj
                0x00000000000447c0       0x80 /Users/stevefar/nacl_sdk/pepper_45/toolchain/mac_x86_newlib/bin/../lib/gcc/x86_64-nacl/4.4.3/../../../../x86_64-nacl/lib/../lib64/libstdc++.a(string-inst.o)
                0x00000000000447c0                _ZNKSs5rfindEcj
 .text._ZNKSs12find_last_ofEcj
                0x0000000000044840       0x20 /Users/stevefar/nacl_sdk/pepper_45/toolchain/mac_x86_newlib/bin/../lib/gcc/x86_64-nacl/4.4.3/../../../../x86_64-nacl/lib/../lib64/libstdc++.a(string-inst.o)
                0x0000000000044840                _ZNKSs12find_last_ofEcj
 .text._ZNKSs17find_first_not_ofEcj
                0x0000000000044860       0xe0 /Users/stevefar/nacl_sdk/pepper_45/toolchain/mac_x86_newlib/bin/../lib/gcc/x86_64-nacl/4.4.3/../../../../x86_64-nacl/lib/../lib64/libstdc++.a(string-inst.o)
                0x0000000000044860                _ZNKSs17find_first_not_ofEcj
 .text._ZNKSs16find_last_not_ofEcj
                0x0000000000044940       0xc0 /Users/stevefar/nacl_sdk/pepper_45/toolchain/mac_x86_newlib/bin/../lib/gcc/x86_64-nacl/4.4.3/../../../../x86_64-nacl/lib/../lib64/libstdc++.a(string-inst.o)
                0x0000000000044940                _ZNKSs16find_last_not_ofEcj
 .text._ZNSs12_Alloc_hiderC2EPcRKSaIcE
                0x0000000000044a00       0x20 /Users/stevefar/nacl_sdk/pepper_45/toolchain/mac_x86_newlib/bin/../lib/gcc/x86_64-nacl/4.4.3/../../../../x86_64-nacl/lib/../lib64/libstdc++.a(string-inst.o)
                0x0000000000044a00                _ZNSs12_Alloc_hiderC2EPcRKSaIcE
 .text._ZNSs12_Alloc_hiderC1EPcRKSaIcE
                0x0000000000044a20       0x20 /Users/stevefar/nacl_sdk/pepper_45/toolchain/mac_x86_newlib/bin/../lib/gcc/x86_64-nacl/4.4.3/../../../../x86_64-nacl/lib/../lib64/libstdc++.a(string-inst.o)
                0x0000000000044a20                _ZNSs12_Alloc_hiderC1EPcRKSaIcE
 .text._ZNSs4_Rep12_S_empty_repEv
                0x0000000000044a40       0x20 /Users/stevefar/nacl_sdk/pepper_45/toolchain/mac_x86_newlib/bin/../lib/gcc/x86_64-nacl/4.4.3/../../../../x86_64-nacl/lib/../lib64/libstdc++.a(string-inst.o)
                0x0000000000044a40                _ZNSs4_Rep12_S_empty_repEv
 .text._ZNKSs4_Rep12_M_is_leakedEv
                0x0000000000044a60       0x20 /Users/stevefar/nacl_sdk/pepper_45/toolchain/mac_x86_newlib/bin/../lib/gcc/x86_64-nacl/4.4.3/../../../../x86_64-nacl/lib/../lib64/libstdc++.a(string-inst.o)
                0x0000000000044a60                _ZNKSs4_Rep12_M_is_leakedEv
 .text._ZNKSs4_Rep12_M_is_sharedEv
                0x0000000000044a80       0x20 /Users/stevefar/nacl_sdk/pepper_45/toolchain/mac_x86_newlib/bin/../lib/gcc/x86_64-nacl/4.4.3/../../../../x86_64-nacl/lib/../lib64/libstdc++.a(string-inst.o)
                0x0000000000044a80                _ZNKSs4_Rep12_M_is_sharedEv
 .text._ZNSs4_Rep13_M_set_leakedEv
                0x0000000000044aa0       0x20 /Users/stevefar/nacl_sdk/pepper_45/toolchain/mac_x86_newlib/bin/../lib/gcc/x86_64-nacl/4.4.3/../../../../x86_64-nacl/lib/../lib64/libstdc++.a(string-inst.o)
                0x0000000000044aa0                _ZNSs4_Rep13_M_set_leakedEv
 .text._ZNSs4_Rep15_M_set_sharableEv
                0x0000000000044ac0       0x20 /Users/stevefar/nacl_sdk/pepper_45/toolchain/mac_x86_newlib/bin/../lib/gcc/x86_64-nacl/4.4.3/../../../../x86_64-nacl/lib/../lib64/libstdc++.a(string-inst.o)
                0x0000000000044ac0                _ZNSs4_Rep15_M_set_sharableEv
 .text._ZNSs4_Rep26_M_set_length_and_sharableEj
                0x0000000000044ae0       0x40 /Users/stevefar/nacl_sdk/pepper_45/toolchain/mac_x86_newlib/bin/../lib/gcc/x86_64-nacl/4.4.3/../../../../x86_64-nacl/lib/../lib64/libstdc++.a(string-inst.o)
                0x0000000000044ae0                _ZNSs4_Rep26_M_set_length_and_sharableEj
 .text._ZNSs4_Rep10_M_refdataEv
                0x0000000000044b20       0x20 /Users/stevefar/nacl_sdk/pepper_45/toolchain/mac_x86_newlib/bin/../lib/gcc/x86_64-nacl/4.4.3/../../../../x86_64-nacl/lib/../lib64/libstdc++.a(string-inst.o)
                0x0000000000044b20                _ZNSs4_Rep10_M_refdataEv
 .text._ZN9__gnu_cxxeqIPcSsEEbRKNS_17__normal_iteratorIT_T0_EES7_
                0x0000000000044b40       0x20 /Users/stevefar/nacl_sdk/pepper_45/toolchain/mac_x86_newlib/bin/../lib/gcc/x86_64-nacl/4.4.3/../../../../x86_64-nacl/lib/../lib64/libstdc++.a(string-inst.o)
                0x0000000000044b40                _ZN9__gnu_cxxeqIPcSsEEbRKNS_17__normal_iteratorIT_T0_EES7_
 .text._ZN9__gnu_cxxeqIPKcSsEEbRKNS_17__normal_iteratorIT_T0_EES8_
                0x0000000000044b60       0x20 /Users/stevefar/nacl_sdk/pepper_45/toolchain/mac_x86_newlib/bin/../lib/gcc/x86_64-nacl/4.4.3/../../../../x86_64-nacl/lib/../lib64/libstdc++.a(string-inst.o)
                0x0000000000044b60                _ZN9__gnu_cxxeqIPKcSsEEbRKNS_17__normal_iteratorIT_T0_EES8_
 .text._ZNSs4_Rep10_M_refcopyEv
                0x0000000000044b80       0x80 /Users/stevefar/nacl_sdk/pepper_45/toolchain/mac_x86_newlib/bin/../lib/gcc/x86_64-nacl/4.4.3/../../../../x86_64-nacl/lib/../lib64/libstdc++.a(string-inst.o)
                0x0000000000044b80                _ZNSs4_Rep10_M_refcopyEv
 .text._ZNSs4_Rep10_M_destroyERKSaIcE
                0x0000000000044c00       0x20 /Users/stevefar/nacl_sdk/pepper_45/toolchain/mac_x86_newlib/bin/../lib/gcc/x86_64-nacl/4.4.3/../../../../x86_64-nacl/lib/../lib64/libstdc++.a(string-inst.o)
                0x0000000000044c00                _ZNSs4_Rep10_M_destroyERKSaIcE
 .text._ZNSs4_Rep10_M_disposeERKSaIcE
                0x0000000000044c20       0xa0 /Users/stevefar/nacl_sdk/pepper_45/toolchain/mac_x86_newlib/bin/../lib/gcc/x86_64-nacl/4.4.3/../../../../x86_64-nacl/lib/../lib64/libstdc++.a(string-inst.o)
                0x0000000000044c20                _ZNSs4_Rep10_M_disposeERKSaIcE
 .text._ZNKSs15_M_check_lengthEjjPKc
                0x0000000000044cc0       0x60 /Users/stevefar/nacl_sdk/pepper_45/toolchain/mac_x86_newlib/bin/../lib/gcc/x86_64-nacl/4.4.3/../../../../x86_64-nacl/lib/../lib64/libstdc++.a(string-inst.o)
                0x0000000000044cc0                _ZNKSs15_M_check_lengthEjjPKc
 .text._ZNSs4_Rep9_S_createEjjRKSaIcE
                0x0000000000044d20      0x120 /Users/stevefar/nacl_sdk/pepper_45/toolchain/mac_x86_newlib/bin/../lib/gcc/x86_64-nacl/4.4.3/../../../../x86_64-nacl/lib/../lib64/libstdc++.a(string-inst.o)
                0x0000000000044d20                _ZNSs4_Rep9_S_createEjjRKSaIcE
 .text._ZNKSs4findEPKcjj
                0x0000000000044e40      0x140 /Users/stevefar/nacl_sdk/pepper_45/toolchain/mac_x86_newlib/bin/../lib/gcc/x86_64-nacl/4.4.3/../../../../x86_64-nacl/lib/../lib64/libstdc++.a(string-inst.o)
                0x0000000000044e40                _ZNKSs4findEPKcjj
 .text._ZNKSs4findERKSsj
                0x0000000000044f80       0x20 /Users/stevefar/nacl_sdk/pepper_45/toolchain/mac_x86_newlib/bin/../lib/gcc/x86_64-nacl/4.4.3/../../../../x86_64-nacl/lib/../lib64/libstdc++.a(string-inst.o)
                0x0000000000044f80                _ZNKSs4findERKSsj
 .text._ZNKSs4findEcj
                0x0000000000044fa0       0x80 /Users/stevefar/nacl_sdk/pepper_45/toolchain/mac_x86_newlib/bin/../lib/gcc/x86_64-nacl/4.4.3/../../../../x86_64-nacl/lib/../lib64/libstdc++.a(string-inst.o)
                0x0000000000044fa0                _ZNKSs4findEcj
 .text._ZNKSs13find_first_ofEcj
                0x0000000000045020       0x20 /Users/stevefar/nacl_sdk/pepper_45/toolchain/mac_x86_newlib/bin/../lib/gcc/x86_64-nacl/4.4.3/../../../../x86_64-nacl/lib/../lib64/libstdc++.a(string-inst.o)
                0x0000000000045020                _ZNKSs13find_first_ofEcj
 .text._ZNKSs2atEj
                0x0000000000045040       0x60 /Users/stevefar/nacl_sdk/pepper_45/toolchain/mac_x86_newlib/bin/../lib/gcc/x86_64-nacl/4.4.3/../../../../x86_64-nacl/lib/../lib64/libstdc++.a(string-inst.o)
                0x0000000000045040                _ZNKSs2atEj
 .text._ZNKSs8_M_checkEjPKc
                0x00000000000450a0       0x60 /Users/stevefar/nacl_sdk/pepper_45/toolchain/mac_x86_newlib/bin/../lib/gcc/x86_64-nacl/4.4.3/../../../../x86_64-nacl/lib/../lib64/libstdc++.a(string-inst.o)
                0x00000000000450a0                _ZNKSs8_M_checkEjPKc
 .text._ZNSs9_M_assignEPcjc
                0x0000000000045100       0x40 /Users/stevefar/nacl_sdk/pepper_45/toolchain/mac_x86_newlib/bin/../lib/gcc/x86_64-nacl/4.4.3/../../../../x86_64-nacl/lib/../lib64/libstdc++.a(string-inst.o)
                0x0000000000045100                _ZNSs9_M_assignEPcjc
 .text._ZNSs7_M_moveEPcPKcj
                0x0000000000045140       0x40 /Users/stevefar/nacl_sdk/pepper_45/toolchain/mac_x86_newlib/bin/../lib/gcc/x86_64-nacl/4.4.3/../../../../x86_64-nacl/lib/../lib64/libstdc++.a(string-inst.o)
                0x0000000000045140                _ZNSs7_M_moveEPcPKcj
 .text._ZNSs7_M_copyEPcPKcj
                0x0000000000045180       0x40 /Users/stevefar/nacl_sdk/pepper_45/toolchain/mac_x86_newlib/bin/../lib/gcc/x86_64-nacl/4.4.3/../../../../x86_64-nacl/lib/../lib64/libstdc++.a(string-inst.o)
                0x0000000000045180                _ZNSs7_M_copyEPcPKcj
 .text._ZNKSs16find_last_not_ofEPKcjj
                0x00000000000451c0       0xe0 /Users/stevefar/nacl_sdk/pepper_45/toolchain/mac_x86_newlib/bin/../lib/gcc/x86_64-nacl/4.4.3/../../../../x86_64-nacl/lib/../lib64/libstdc++.a(string-inst.o)
                0x00000000000451c0                _ZNKSs16find_last_not_ofEPKcjj
 .text._ZNKSs16find_last_not_ofERKSsj
                0x00000000000452a0       0x20 /Users/stevefar/nacl_sdk/pepper_45/toolchain/mac_x86_newlib/bin/../lib/gcc/x86_64-nacl/4.4.3/../../../../x86_64-nacl/lib/../lib64/libstdc++.a(string-inst.o)
                0x00000000000452a0                _ZNKSs16find_last_not_ofERKSsj
 .text._ZNKSs17find_first_not_ofEPKcjj
                0x00000000000452c0       0xe0 /Users/stevefar/nacl_sdk/pepper_45/toolchain/mac_x86_newlib/bin/../lib/gcc/x86_64-nacl/4.4.3/../../../../x86_64-nacl/lib/../lib64/libstdc++.a(string-inst.o)
                0x00000000000452c0                _ZNKSs17find_first_not_ofEPKcjj
 .text._ZNKSs17find_first_not_ofERKSsj
                0x00000000000453a0       0x20 /Users/stevefar/nacl_sdk/pepper_45/toolchain/mac_x86_newlib/bin/../lib/gcc/x86_64-nacl/4.4.3/../../../../x86_64-nacl/lib/../lib64/libstdc++.a(string-inst.o)
                0x00000000000453a0                _ZNKSs17find_first_not_ofERKSsj
 .text._ZNKSs12find_last_ofEPKcjj
                0x00000000000453c0      0x100 /Users/stevefar/nacl_sdk/pepper_45/toolchain/mac_x86_newlib/bin/../lib/gcc/x86_64-nacl/4.4.3/../../../../x86_64-nacl/lib/../lib64/libstdc++.a(string-inst.o)
                0x00000000000453c0                _ZNKSs12find_last_ofEPKcjj
 .text._ZNKSs12find_last_ofERKSsj
                0x00000000000454c0       0x20 /Users/stevefar/nacl_sdk/pepper_45/toolchain/mac_x86_newlib/bin/../lib/gcc/x86_64-nacl/4.4.3/../../../../x86_64-nacl/lib/../lib64/libstdc++.a(string-inst.o)
                0x00000000000454c0                _ZNKSs12find_last_ofERKSsj
 .text._ZNKSs13find_first_ofEPKcjj
                0x00000000000454e0       0xc0 /Users/stevefar/nacl_sdk/pepper_45/toolchain/mac_x86_newlib/bin/../lib/gcc/x86_64-nacl/4.4.3/../../../../x86_64-nacl/lib/../lib64/libstdc++.a(string-inst.o)
                0x00000000000454e0                _ZNKSs13find_first_ofEPKcjj
 .text._ZNKSs13find_first_ofERKSsj
                0x00000000000455a0       0x20 /Users/stevefar/nacl_sdk/pepper_45/toolchain/mac_x86_newlib/bin/../lib/gcc/x86_64-nacl/4.4.3/../../../../x86_64-nacl/lib/../lib64/libstdc++.a(string-inst.o)
                0x00000000000455a0                _ZNKSs13find_first_ofERKSsj
 .text._ZNKSs5rfindEPKcjj
                0x00000000000455c0       0xe0 /Users/stevefar/nacl_sdk/pepper_45/toolchain/mac_x86_newlib/bin/../lib/gcc/x86_64-nacl/4.4.3/../../../../x86_64-nacl/lib/../lib64/libstdc++.a(string-inst.o)
                0x00000000000455c0                _ZNKSs5rfindEPKcjj
 .text._ZNKSs5rfindERKSsj
                0x00000000000456a0       0x20 /Users/stevefar/nacl_sdk/pepper_45/toolchain/mac_x86_newlib/bin/../lib/gcc/x86_64-nacl/4.4.3/../../../../x86_64-nacl/lib/../lib64/libstdc++.a(string-inst.o)
                0x00000000000456a0                _ZNKSs5rfindERKSsj
 .text._ZNKSs7compareERKSs
                0x00000000000456c0       0x80 /Users/stevefar/nacl_sdk/pepper_45/toolchain/mac_x86_newlib/bin/../lib/gcc/x86_64-nacl/4.4.3/../../../../x86_64-nacl/lib/../lib64/libstdc++.a(string-inst.o)
                0x00000000000456c0                _ZNKSs7compareERKSs
 .text._ZNKSs7compareEjjPKcj
                0x0000000000045740       0xa0 /Users/stevefar/nacl_sdk/pepper_45/toolchain/mac_x86_newlib/bin/../lib/gcc/x86_64-nacl/4.4.3/../../../../x86_64-nacl/lib/../lib64/libstdc++.a(string-inst.o)
                0x0000000000045740                _ZNKSs7compareEjjPKcj
 .text._ZNKSs7compareEjjRKSsjj
                0x00000000000457e0       0xc0 /Users/stevefar/nacl_sdk/pepper_45/toolchain/mac_x86_newlib/bin/../lib/gcc/x86_64-nacl/4.4.3/../../../../x86_64-nacl/lib/../lib64/libstdc++.a(string-inst.o)
                0x00000000000457e0                _ZNKSs7compareEjjRKSsjj
 .text._ZNKSs7compareEjjRKSs
                0x00000000000458a0       0xc0 /Users/stevefar/nacl_sdk/pepper_45/toolchain/mac_x86_newlib/bin/../lib/gcc/x86_64-nacl/4.4.3/../../../../x86_64-nacl/lib/../lib64/libstdc++.a(string-inst.o)
                0x00000000000458a0                _ZNKSs7compareEjjRKSs
 .text._ZNKSs7compareEPKc
                0x0000000000045960       0xa0 /Users/stevefar/nacl_sdk/pepper_45/toolchain/mac_x86_newlib/bin/../lib/gcc/x86_64-nacl/4.4.3/../../../../x86_64-nacl/lib/../lib64/libstdc++.a(string-inst.o)
                0x0000000000045960                _ZNKSs7compareEPKc
 .text._ZNKSs5rfindEPKcj
                0x0000000000045a00       0x80 /Users/stevefar/nacl_sdk/pepper_45/toolchain/mac_x86_newlib/bin/../lib/gcc/x86_64-nacl/4.4.3/../../../../x86_64-nacl/lib/../lib64/libstdc++.a(string-inst.o)
                0x0000000000045a00                _ZNKSs5rfindEPKcj
 .text._ZNKSs4findEPKcj
                0x0000000000045a80       0x80 /Users/stevefar/nacl_sdk/pepper_45/toolchain/mac_x86_newlib/bin/../lib/gcc/x86_64-nacl/4.4.3/../../../../x86_64-nacl/lib/../lib64/libstdc++.a(string-inst.o)
                0x0000000000045a80                _ZNKSs4findEPKcj
 .text._ZNKSs16find_last_not_ofEPKcj
                0x0000000000045b00       0x80 /Users/stevefar/nacl_sdk/pepper_45/toolchain/mac_x86_newlib/bin/../lib/gcc/x86_64-nacl/4.4.3/../../../../x86_64-nacl/lib/../lib64/libstdc++.a(string-inst.o)
                0x0000000000045b00                _ZNKSs16find_last_not_ofEPKcj
 .text._ZNKSs17find_first_not_ofEPKcj
                0x0000000000045b80       0x80 /Users/stevefar/nacl_sdk/pepper_45/toolchain/mac_x86_newlib/bin/../lib/gcc/x86_64-nacl/4.4.3/../../../../x86_64-nacl/lib/../lib64/libstdc++.a(string-inst.o)
                0x0000000000045b80                _ZNKSs17find_first_not_ofEPKcj
 .text._ZNKSs12find_last_ofEPKcj
                0x0000000000045c00       0x80 /Users/stevefar/nacl_sdk/pepper_45/toolchain/mac_x86_newlib/bin/../lib/gcc/x86_64-nacl/4.4.3/../../../../x86_64-nacl/lib/../lib64/libstdc++.a(string-inst.o)
                0x0000000000045c00                _ZNKSs12find_last_ofEPKcj
 .text._ZNKSs13find_first_ofEPKcj
                0x0000000000045c80       0x80 /Users/stevefar/nacl_sdk/pepper_45/toolchain/mac_x86_newlib/bin/../lib/gcc/x86_64-nacl/4.4.3/../../../../x86_64-nacl/lib/../lib64/libstdc++.a(string-inst.o)
                0x0000000000045c80                _ZNKSs13find_first_ofEPKcj
 .text._ZNKSs7compareEjjPKc
                0x0000000000045d00      0x100 /Users/stevefar/nacl_sdk/pepper_45/toolchain/mac_x86_newlib/bin/../lib/gcc/x86_64-nacl/4.4.3/../../../../x86_64-nacl/lib/../lib64/libstdc++.a(string-inst.o)
                0x0000000000045d00                _ZNKSs7compareEjjPKc
 .text._ZNSs13_S_copy_charsEPcS_S_
                0x0000000000045e00       0x40 /Users/stevefar/nacl_sdk/pepper_45/toolchain/mac_x86_newlib/bin/../lib/gcc/x86_64-nacl/4.4.3/../../../../x86_64-nacl/lib/../lib64/libstdc++.a(string-inst.o)
                0x0000000000045e00                _ZNSs13_S_copy_charsEPcS_S_
 .text._ZNSs13_S_copy_charsEPcPKcS1_
                0x0000000000045e40       0x40 /Users/stevefar/nacl_sdk/pepper_45/toolchain/mac_x86_newlib/bin/../lib/gcc/x86_64-nacl/4.4.3/../../../../x86_64-nacl/lib/../lib64/libstdc++.a(string-inst.o)
                0x0000000000045e40                _ZNSs13_S_copy_charsEPcPKcS1_
 .text._ZNSs13_S_copy_charsEPcN9__gnu_cxx17__normal_iteratorIPKcSsEES4_
                0x0000000000045e80       0x40 /Users/stevefar/nacl_sdk/pepper_45/toolchain/mac_x86_newlib/bin/../lib/gcc/x86_64-nacl/4.4.3/../../../../x86_64-nacl/lib/../lib64/libstdc++.a(string-inst.o)
                0x0000000000045e80                _ZNSs13_S_copy_charsEPcN9__gnu_cxx17__normal_iteratorIPKcSsEES4_
 .text._ZNSs13_S_copy_charsEPcN9__gnu_cxx17__normal_iteratorIS_SsEES2_
                0x0000000000045ec0       0x40 /Users/stevefar/nacl_sdk/pepper_45/toolchain/mac_x86_newlib/bin/../lib/gcc/x86_64-nacl/4.4.3/../../../../x86_64-nacl/lib/../lib64/libstdc++.a(string-inst.o)
                0x0000000000045ec0                _ZNSs13_S_copy_charsEPcN9__gnu_cxx17__normal_iteratorIS_SsEES2_
 .text._ZNSs4_Rep8_M_cloneERKSaIcEj
                0x0000000000045f00      0x100 /Users/stevefar/nacl_sdk/pepper_45/toolchain/mac_x86_newlib/bin/../lib/gcc/x86_64-nacl/4.4.3/../../../../x86_64-nacl/lib/../lib64/libstdc++.a(string-inst.o)
                0x0000000000045f00                _ZNSs4_Rep8_M_cloneERKSaIcEj
 .text._ZNSs4_Rep7_M_grabERKSaIcES2_
                0x0000000000046000       0xa0 /Users/stevefar/nacl_sdk/pepper_45/toolchain/mac_x86_newlib/bin/../lib/gcc/x86_64-nacl/4.4.3/../../../../x86_64-nacl/lib/../lib64/libstdc++.a(string-inst.o)
                0x0000000000046000                _ZNSs4_Rep7_M_grabERKSaIcES2_
 .text._ZNSsC1ERKSs
                0x00000000000460a0      0x100 /Users/stevefar/nacl_sdk/pepper_45/toolchain/mac_x86_newlib/bin/../lib/gcc/x86_64-nacl/4.4.3/../../../../x86_64-nacl/lib/../lib64/libstdc++.a(string-inst.o)
                0x00000000000460a0                _ZNSsC1ERKSs
 .text._ZNSsC2ERKSs
                0x00000000000461a0      0x100 /Users/stevefar/nacl_sdk/pepper_45/toolchain/mac_x86_newlib/bin/../lib/gcc/x86_64-nacl/4.4.3/../../../../x86_64-nacl/lib/../lib64/libstdc++.a(string-inst.o)
                0x00000000000461a0                _ZNSsC2ERKSs
 .text._ZNKSs4copyEPcjj
                0x00000000000462a0       0xc0 /Users/stevefar/nacl_sdk/pepper_45/toolchain/mac_x86_newlib/bin/../lib/gcc/x86_64-nacl/4.4.3/../../../../x86_64-nacl/lib/../lib64/libstdc++.a(string-inst.o)
                0x00000000000462a0                _ZNKSs4copyEPcjj
 .text._ZNSs12_S_constructIPKcEEPcT_S3_RKSaIcESt20forward_iterator_tag
                0x0000000000046360      0x180 /Users/stevefar/nacl_sdk/pepper_45/toolchain/mac_x86_newlib/bin/../lib/gcc/x86_64-nacl/4.4.3/../../../../x86_64-nacl/lib/../lib64/libstdc++.a(string-inst.o)
                0x0000000000046360                _ZNSs12_S_constructIPKcEEPcT_S3_RKSaIcESt20forward_iterator_tag
 .text._ZNSsC1IPKcEET_S2_RKSaIcE
                0x00000000000464e0       0x40 /Users/stevefar/nacl_sdk/pepper_45/toolchain/mac_x86_newlib/bin/../lib/gcc/x86_64-nacl/4.4.3/../../../../x86_64-nacl/lib/../lib64/libstdc++.a(string-inst.o)
                0x00000000000464e0                _ZNSsC1IPKcEET_S2_RKSaIcE
 .text._ZNSsC2IPKcEET_S2_RKSaIcE
                0x0000000000046520       0x40 /Users/stevefar/nacl_sdk/pepper_45/toolchain/mac_x86_newlib/bin/../lib/gcc/x86_64-nacl/4.4.3/../../../../x86_64-nacl/lib/../lib64/libstdc++.a(string-inst.o)
                0x0000000000046520                _ZNSsC2IPKcEET_S2_RKSaIcE
 .text._ZNSsC1ESt16initializer_listIcERKSaIcE
                0x0000000000046560       0x40 /Users/stevefar/nacl_sdk/pepper_45/toolchain/mac_x86_newlib/bin/../lib/gcc/x86_64-nacl/4.4.3/../../../../x86_64-nacl/lib/../lib64/libstdc++.a(string-inst.o)
                0x0000000000046560                _ZNSsC1ESt16initializer_listIcERKSaIcE
 .text._ZNSsC2ESt16initializer_listIcERKSaIcE
                0x00000000000465a0       0x40 /Users/stevefar/nacl_sdk/pepper_45/toolchain/mac_x86_newlib/bin/../lib/gcc/x86_64-nacl/4.4.3/../../../../x86_64-nacl/lib/../lib64/libstdc++.a(string-inst.o)
                0x00000000000465a0                _ZNSsC2ESt16initializer_listIcERKSaIcE
 .text._ZNSsC1EPKcRKSaIcE
                0x00000000000465e0       0xc0 /Users/stevefar/nacl_sdk/pepper_45/toolchain/mac_x86_newlib/bin/../lib/gcc/x86_64-nacl/4.4.3/../../../../x86_64-nacl/lib/../lib64/libstdc++.a(string-inst.o)
                0x00000000000465e0                _ZNSsC1EPKcRKSaIcE
 .text._ZNSsC2EPKcRKSaIcE
                0x00000000000466a0       0xc0 /Users/stevefar/nacl_sdk/pepper_45/toolchain/mac_x86_newlib/bin/../lib/gcc/x86_64-nacl/4.4.3/../../../../x86_64-nacl/lib/../lib64/libstdc++.a(string-inst.o)
                0x00000000000466a0                _ZNSsC2EPKcRKSaIcE
 .text._ZNSsC1EPKcjRKSaIcE
                0x0000000000046760       0x40 /Users/stevefar/nacl_sdk/pepper_45/toolchain/mac_x86_newlib/bin/../lib/gcc/x86_64-nacl/4.4.3/../../../../x86_64-nacl/lib/../lib64/libstdc++.a(string-inst.o)
                0x0000000000046760                _ZNSsC1EPKcjRKSaIcE
 .text._ZNSsC2EPKcjRKSaIcE
                0x00000000000467a0       0x40 /Users/stevefar/nacl_sdk/pepper_45/toolchain/mac_x86_newlib/bin/../lib/gcc/x86_64-nacl/4.4.3/../../../../x86_64-nacl/lib/../lib64/libstdc++.a(string-inst.o)
                0x00000000000467a0                _ZNSsC2EPKcjRKSaIcE
 .text._ZNSs12_S_constructIPcEES0_T_S1_RKSaIcESt20forward_iterator_tag
                0x00000000000467e0      0x180 /Users/stevefar/nacl_sdk/pepper_45/toolchain/mac_x86_newlib/bin/../lib/gcc/x86_64-nacl/4.4.3/../../../../x86_64-nacl/lib/../lib64/libstdc++.a(string-inst.o)
                0x00000000000467e0                _ZNSs12_S_constructIPcEES0_T_S1_RKSaIcESt20forward_iterator_tag
 .text._ZNSsC1IPcEET_S1_RKSaIcE
                0x0000000000046960       0x40 /Users/stevefar/nacl_sdk/pepper_45/toolchain/mac_x86_newlib/bin/../lib/gcc/x86_64-nacl/4.4.3/../../../../x86_64-nacl/lib/../lib64/libstdc++.a(string-inst.o)
                0x0000000000046960                _ZNSsC1IPcEET_S1_RKSaIcE
 .text._ZNSsC2IPcEET_S1_RKSaIcE
                0x00000000000469a0       0x40 /Users/stevefar/nacl_sdk/pepper_45/toolchain/mac_x86_newlib/bin/../lib/gcc/x86_64-nacl/4.4.3/../../../../x86_64-nacl/lib/../lib64/libstdc++.a(string-inst.o)
                0x00000000000469a0                _ZNSsC2IPcEET_S1_RKSaIcE
 .text._ZNSsC1ERKSsjjRKSaIcE
                0x00000000000469e0       0x80 /Users/stevefar/nacl_sdk/pepper_45/toolchain/mac_x86_newlib/bin/../lib/gcc/x86_64-nacl/4.4.3/../../../../x86_64-nacl/lib/../lib64/libstdc++.a(string-inst.o)
                0x00000000000469e0                _ZNSsC1ERKSsjjRKSaIcE
 .text._ZNSsC2ERKSsjjRKSaIcE
                0x0000000000046a60       0x80 /Users/stevefar/nacl_sdk/pepper_45/toolchain/mac_x86_newlib/bin/../lib/gcc/x86_64-nacl/4.4.3/../../../../x86_64-nacl/lib/../lib64/libstdc++.a(string-inst.o)
                0x0000000000046a60                _ZNSsC2ERKSsjjRKSaIcE
 .text._ZNSsC1ERKSsjj
                0x0000000000046ae0       0xa0 /Users/stevefar/nacl_sdk/pepper_45/toolchain/mac_x86_newlib/bin/../lib/gcc/x86_64-nacl/4.4.3/../../../../x86_64-nacl/lib/../lib64/libstdc++.a(string-inst.o)
                0x0000000000046ae0                _ZNSsC1ERKSsjj
 .text._ZNKSs6substrEjj
                0x0000000000046b80       0x60 /Users/stevefar/nacl_sdk/pepper_45/toolchain/mac_x86_newlib/bin/../lib/gcc/x86_64-nacl/4.4.3/../../../../x86_64-nacl/lib/../lib64/libstdc++.a(string-inst.o)
                0x0000000000046b80                _ZNKSs6substrEjj
 .text._ZNSsC2ERKSsjj
                0x0000000000046be0       0xa0 /Users/stevefar/nacl_sdk/pepper_45/toolchain/mac_x86_newlib/bin/../lib/gcc/x86_64-nacl/4.4.3/../../../../x86_64-nacl/lib/../lib64/libstdc++.a(string-inst.o)
                0x0000000000046be0                _ZNSsC2ERKSsjj
 .text._ZNSs12_S_constructEjcRKSaIcE
                0x0000000000046c80       0xe0 /Users/stevefar/nacl_sdk/pepper_45/toolchain/mac_x86_newlib/bin/../lib/gcc/x86_64-nacl/4.4.3/../../../../x86_64-nacl/lib/../lib64/libstdc++.a(string-inst.o)
                0x0000000000046c80                _ZNSs12_S_constructEjcRKSaIcE
 .text._ZNSsC1EjcRKSaIcE
                0x0000000000046d60       0x40 /Users/stevefar/nacl_sdk/pepper_45/toolchain/mac_x86_newlib/bin/../lib/gcc/x86_64-nacl/4.4.3/../../../../x86_64-nacl/lib/../lib64/libstdc++.a(string-inst.o)
                0x0000000000046d60                _ZNSsC1EjcRKSaIcE
 .text._ZNSsC2EjcRKSaIcE
                0x0000000000046da0       0x40 /Users/stevefar/nacl_sdk/pepper_45/toolchain/mac_x86_newlib/bin/../lib/gcc/x86_64-nacl/4.4.3/../../../../x86_64-nacl/lib/../lib64/libstdc++.a(string-inst.o)
                0x0000000000046da0                _ZNSsC2EjcRKSaIcE
 .text._ZNSsC1ERKSaIcE
                0x0000000000046de0       0x40 /Users/stevefar/nacl_sdk/pepper_45/toolchain/mac_x86_newlib/bin/../lib/gcc/x86_64-nacl/4.4.3/../../../../x86_64-nacl/lib/../lib64/libstdc++.a(string-inst.o)
                0x0000000000046de0                _ZNSsC1ERKSaIcE
 .text._ZNSsC2ERKSaIcE
                0x0000000000046e20       0x40 /Users/stevefar/nacl_sdk/pepper_45/toolchain/mac_x86_newlib/bin/../lib/gcc/x86_64-nacl/4.4.3/../../../../x86_64-nacl/lib/../lib64/libstdc++.a(string-inst.o)
                0x0000000000046e20                _ZNSsC2ERKSaIcE
 .text._ZNSs12_S_constructIN9__gnu_cxx17__normal_iteratorIPcSsEEEES2_T_S4_RKSaIcESt20forward_iterator_tag
                0x0000000000046e60       0xe0 /Users/stevefar/nacl_sdk/pepper_45/toolchain/mac_x86_newlib/bin/../lib/gcc/x86_64-nacl/4.4.3/../../../../x86_64-nacl/lib/../lib64/libstdc++.a(string-inst.o)
                0x0000000000046e60                _ZNSs12_S_constructIN9__gnu_cxx17__normal_iteratorIPcSsEEEES2_T_S4_RKSaIcESt20forward_iterator_tag
 .text._ZNSsC1IN9__gnu_cxx17__normal_iteratorIPcSsEEEET_S4_RKSaIcE
                0x0000000000046f40       0x40 /Users/stevefar/nacl_sdk/pepper_45/toolchain/mac_x86_newlib/bin/../lib/gcc/x86_64-nacl/4.4.3/../../../../x86_64-nacl/lib/../lib64/libstdc++.a(string-inst.o)
                0x0000000000046f40                _ZNSsC1IN9__gnu_cxx17__normal_iteratorIPcSsEEEET_S4_RKSaIcE
 .text._ZNSsC2IN9__gnu_cxx17__normal_iteratorIPcSsEEEET_S4_RKSaIcE
                0x0000000000046f80       0x40 /Users/stevefar/nacl_sdk/pepper_45/toolchain/mac_x86_newlib/bin/../lib/gcc/x86_64-nacl/4.4.3/../../../../x86_64-nacl/lib/../lib64/libstdc++.a(string-inst.o)
                0x0000000000046f80                _ZNSsC2IN9__gnu_cxx17__normal_iteratorIPcSsEEEET_S4_RKSaIcE
 .text._ZNSsD1Ev
                0x0000000000046fc0       0xc0 /Users/stevefar/nacl_sdk/pepper_45/toolchain/mac_x86_newlib/bin/../lib/gcc/x86_64-nacl/4.4.3/../../../../x86_64-nacl/lib/../lib64/libstdc++.a(string-inst.o)
                0x0000000000046fc0                _ZNSsD1Ev
 .text._ZNSsD2Ev
                0x0000000000047080       0xc0 /Users/stevefar/nacl_sdk/pepper_45/toolchain/mac_x86_newlib/bin/../lib/gcc/x86_64-nacl/4.4.3/../../../../x86_64-nacl/lib/../lib64/libstdc++.a(string-inst.o)
                0x0000000000047080                _ZNSsD2Ev
 .text._ZNSs6assignERKSs
                0x0000000000047140      0x200 /Users/stevefar/nacl_sdk/pepper_45/toolchain/mac_x86_newlib/bin/../lib/gcc/x86_64-nacl/4.4.3/../../../../x86_64-nacl/lib/../lib64/libstdc++.a(string-inst.o)
                0x0000000000047140                _ZNSs6assignERKSs
 .text._ZNSsaSERKSs
                0x0000000000047340       0x20 /Users/stevefar/nacl_sdk/pepper_45/toolchain/mac_x86_newlib/bin/../lib/gcc/x86_64-nacl/4.4.3/../../../../x86_64-nacl/lib/../lib64/libstdc++.a(string-inst.o)
                0x0000000000047340                _ZNSsaSERKSs
 .text._ZNSs7reserveEj
                0x0000000000047360      0x180 /Users/stevefar/nacl_sdk/pepper_45/toolchain/mac_x86_newlib/bin/../lib/gcc/x86_64-nacl/4.4.3/../../../../x86_64-nacl/lib/../lib64/libstdc++.a(string-inst.o)
                0x0000000000047360                _ZNSs7reserveEj
 .text._ZNSs9push_backEc
                0x00000000000474e0      0x100 /Users/stevefar/nacl_sdk/pepper_45/toolchain/mac_x86_newlib/bin/../lib/gcc/x86_64-nacl/4.4.3/../../../../x86_64-nacl/lib/../lib64/libstdc++.a(string-inst.o)
                0x00000000000474e0                _ZNSs9push_backEc
 .text._ZNSs6appendEjc
                0x00000000000475e0      0x1c0 /Users/stevefar/nacl_sdk/pepper_45/toolchain/mac_x86_newlib/bin/../lib/gcc/x86_64-nacl/4.4.3/../../../../x86_64-nacl/lib/../lib64/libstdc++.a(string-inst.o)
                0x00000000000475e0                _ZNSs6appendEjc
 .text._ZNSs6appendEPKcj
                0x00000000000477a0      0x220 /Users/stevefar/nacl_sdk/pepper_45/toolchain/mac_x86_newlib/bin/../lib/gcc/x86_64-nacl/4.4.3/../../../../x86_64-nacl/lib/../lib64/libstdc++.a(string-inst.o)
                0x00000000000477a0                _ZNSs6appendEPKcj
 .text._ZNSs6appendEPKc
                0x00000000000479c0       0x40 /Users/stevefar/nacl_sdk/pepper_45/toolchain/mac_x86_newlib/bin/../lib/gcc/x86_64-nacl/4.4.3/../../../../x86_64-nacl/lib/../lib64/libstdc++.a(string-inst.o)
                0x00000000000479c0                _ZNSs6appendEPKc
 .text._ZNSspLEPKc
                0x0000000000047a00       0x40 /Users/stevefar/nacl_sdk/pepper_45/toolchain/mac_x86_newlib/bin/../lib/gcc/x86_64-nacl/4.4.3/../../../../x86_64-nacl/lib/../lib64/libstdc++.a(string-inst.o)
                0x0000000000047a00                _ZNSspLEPKc
 .text._ZNSs6appendERKSsjj
                0x0000000000047a40      0x1a0 /Users/stevefar/nacl_sdk/pepper_45/toolchain/mac_x86_newlib/bin/../lib/gcc/x86_64-nacl/4.4.3/../../../../x86_64-nacl/lib/../lib64/libstdc++.a(string-inst.o)
                0x0000000000047a40                _ZNSs6appendERKSsjj
 .text._ZNSs6appendERKSs
                0x0000000000047be0      0x180 /Users/stevefar/nacl_sdk/pepper_45/toolchain/mac_x86_newlib/bin/../lib/gcc/x86_64-nacl/4.4.3/../../../../x86_64-nacl/lib/../lib64/libstdc++.a(string-inst.o)
                0x0000000000047be0                _ZNSs6appendERKSs
 .text._ZStplIcSt11char_traitsIcESaIcEESbIT_T0_T1_ERKS6_S8_
                0x0000000000047d60       0xa0 /Users/stevefar/nacl_sdk/pepper_45/toolchain/mac_x86_newlib/bin/../lib/gcc/x86_64-nacl/4.4.3/../../../../x86_64-nacl/lib/../lib64/libstdc++.a(string-inst.o)
                0x0000000000047d60                _ZStplIcSt11char_traitsIcESaIcEESbIT_T0_T1_ERKS6_S8_
 .text._ZNSspLERKSs
                0x0000000000047e00       0x20 /Users/stevefar/nacl_sdk/pepper_45/toolchain/mac_x86_newlib/bin/../lib/gcc/x86_64-nacl/4.4.3/../../../../x86_64-nacl/lib/../lib64/libstdc++.a(string-inst.o)
                0x0000000000047e00                _ZNSspLERKSs
 .text._ZStplIcSt11char_traitsIcESaIcEESbIT_T0_T1_ES3_RKS6_
                0x0000000000047e20      0x120 /Users/stevefar/nacl_sdk/pepper_45/toolchain/mac_x86_newlib/bin/../lib/gcc/x86_64-nacl/4.4.3/../../../../x86_64-nacl/lib/../lib64/libstdc++.a(string-inst.o)
                0x0000000000047e20                _ZStplIcSt11char_traitsIcESaIcEESbIT_T0_T1_ES3_RKS6_
 .text._ZStplIcSt11char_traitsIcESaIcEESbIT_T0_T1_EPKS3_RKS6_
                0x0000000000047f40      0x140 /Users/stevefar/nacl_sdk/pepper_45/toolchain/mac_x86_newlib/bin/../lib/gcc/x86_64-nacl/4.4.3/../../../../x86_64-nacl/lib/../lib64/libstdc++.a(string-inst.o)
                0x0000000000047f40                _ZStplIcSt11char_traitsIcESaIcEESbIT_T0_T1_EPKS3_RKS6_
 .text._ZNSspLEc
                0x0000000000048080      0x100 /Users/stevefar/nacl_sdk/pepper_45/toolchain/mac_x86_newlib/bin/../lib/gcc/x86_64-nacl/4.4.3/../../../../x86_64-nacl/lib/../lib64/libstdc++.a(string-inst.o)
                0x0000000000048080                _ZNSspLEc
 .text._ZNSs9_M_mutateEjjj
                0x0000000000048180      0x360 /Users/stevefar/nacl_sdk/pepper_45/toolchain/mac_x86_newlib/bin/../lib/gcc/x86_64-nacl/4.4.3/../../../../x86_64-nacl/lib/../lib64/libstdc++.a(string-inst.o)
                0x0000000000048180                _ZNSs9_M_mutateEjjj
 .text._ZNSs15_M_replace_safeEjjPKcj
                0x00000000000484e0      0x100 /Users/stevefar/nacl_sdk/pepper_45/toolchain/mac_x86_newlib/bin/../lib/gcc/x86_64-nacl/4.4.3/../../../../x86_64-nacl/lib/../lib64/libstdc++.a(string-inst.o)
                0x00000000000484e0                _ZNSs15_M_replace_safeEjjPKcj
 .text._ZNSs6assignEPKcj
                0x00000000000485e0      0x1a0 /Users/stevefar/nacl_sdk/pepper_45/toolchain/mac_x86_newlib/bin/../lib/gcc/x86_64-nacl/4.4.3/../../../../x86_64-nacl/lib/../lib64/libstdc++.a(string-inst.o)
                0x00000000000485e0                _ZNSs6assignEPKcj
 .text._ZNSs6assignEPKc
                0x0000000000048780       0x40 /Users/stevefar/nacl_sdk/pepper_45/toolchain/mac_x86_newlib/bin/../lib/gcc/x86_64-nacl/4.4.3/../../../../x86_64-nacl/lib/../lib64/libstdc++.a(string-inst.o)
                0x0000000000048780                _ZNSs6assignEPKc
 .text._ZNSs6assignERKSsjj
                0x00000000000487c0       0x60 /Users/stevefar/nacl_sdk/pepper_45/toolchain/mac_x86_newlib/bin/../lib/gcc/x86_64-nacl/4.4.3/../../../../x86_64-nacl/lib/../lib64/libstdc++.a(string-inst.o)
                0x00000000000487c0                _ZNSs6assignERKSsjj
 .text._ZNSsaSEPKc
                0x0000000000048820       0x40 /Users/stevefar/nacl_sdk/pepper_45/toolchain/mac_x86_newlib/bin/../lib/gcc/x86_64-nacl/4.4.3/../../../../x86_64-nacl/lib/../lib64/libstdc++.a(string-inst.o)
                0x0000000000048820                _ZNSsaSEPKc
 .text._ZNSs14_M_replace_auxEjjjc
                0x0000000000048860      0x140 /Users/stevefar/nacl_sdk/pepper_45/toolchain/mac_x86_newlib/bin/../lib/gcc/x86_64-nacl/4.4.3/../../../../x86_64-nacl/lib/../lib64/libstdc++.a(string-inst.o)
                0x0000000000048860                _ZNSs14_M_replace_auxEjjjc
 .text._ZNSs7replaceEN9__gnu_cxx17__normal_iteratorIPcSsEES2_jc
                0x00000000000489a0       0x20 /Users/stevefar/nacl_sdk/pepper_45/toolchain/mac_x86_newlib/bin/../lib/gcc/x86_64-nacl/4.4.3/../../../../x86_64-nacl/lib/../lib64/libstdc++.a(string-inst.o)
                0x00000000000489a0                _ZNSs7replaceEN9__gnu_cxx17__normal_iteratorIPcSsEES2_jc
 .text._ZNSs7replaceEjjjc
                0x00000000000489c0       0x60 /Users/stevefar/nacl_sdk/pepper_45/toolchain/mac_x86_newlib/bin/../lib/gcc/x86_64-nacl/4.4.3/../../../../x86_64-nacl/lib/../lib64/libstdc++.a(string-inst.o)
                0x00000000000489c0                _ZNSs7replaceEjjjc
 .text._ZNSs6insertEN9__gnu_cxx17__normal_iteratorIPcSsEEc
                0x0000000000048a20       0x80 /Users/stevefar/nacl_sdk/pepper_45/toolchain/mac_x86_newlib/bin/../lib/gcc/x86_64-nacl/4.4.3/../../../../x86_64-nacl/lib/../lib64/libstdc++.a(string-inst.o)
                0x0000000000048a20                _ZNSs6insertEN9__gnu_cxx17__normal_iteratorIPcSsEEc
 .text._ZNSs6insertEjjc
                0x0000000000048aa0       0x60 /Users/stevefar/nacl_sdk/pepper_45/toolchain/mac_x86_newlib/bin/../lib/gcc/x86_64-nacl/4.4.3/../../../../x86_64-nacl/lib/../lib64/libstdc++.a(string-inst.o)
                0x0000000000048aa0                _ZNSs6insertEjjc
 .text._ZNSs6assignEjc
                0x0000000000048b00       0x20 /Users/stevefar/nacl_sdk/pepper_45/toolchain/mac_x86_newlib/bin/../lib/gcc/x86_64-nacl/4.4.3/../../../../x86_64-nacl/lib/../lib64/libstdc++.a(string-inst.o)
                0x0000000000048b00                _ZNSs6assignEjc
 .text._ZNSs6insertEN9__gnu_cxx17__normal_iteratorIPcSsEEjc
                0x0000000000048b20       0x20 /Users/stevefar/nacl_sdk/pepper_45/toolchain/mac_x86_newlib/bin/../lib/gcc/x86_64-nacl/4.4.3/../../../../x86_64-nacl/lib/../lib64/libstdc++.a(string-inst.o)
                0x0000000000048b20                _ZNSs6insertEN9__gnu_cxx17__normal_iteratorIPcSsEEjc
 .text._ZNSsaSEc
                0x0000000000048b40       0x60 /Users/stevefar/nacl_sdk/pepper_45/toolchain/mac_x86_newlib/bin/../lib/gcc/x86_64-nacl/4.4.3/../../../../x86_64-nacl/lib/../lib64/libstdc++.a(string-inst.o)
                0x0000000000048b40                _ZNSsaSEc
 .text._ZNSs5eraseEN9__gnu_cxx17__normal_iteratorIPcSsEES2_
                0x0000000000048ba0       0x80 /Users/stevefar/nacl_sdk/pepper_45/toolchain/mac_x86_newlib/bin/../lib/gcc/x86_64-nacl/4.4.3/../../../../x86_64-nacl/lib/../lib64/libstdc++.a(string-inst.o)
                0x0000000000048ba0                _ZNSs5eraseEN9__gnu_cxx17__normal_iteratorIPcSsEES2_
 .text._ZNSs5eraseEN9__gnu_cxx17__normal_iteratorIPcSsEE
                0x0000000000048c20       0x80 /Users/stevefar/nacl_sdk/pepper_45/toolchain/mac_x86_newlib/bin/../lib/gcc/x86_64-nacl/4.4.3/../../../../x86_64-nacl/lib/../lib64/libstdc++.a(string-inst.o)
                0x0000000000048c20                _ZNSs5eraseEN9__gnu_cxx17__normal_iteratorIPcSsEE
 .text._ZNSs5eraseEjj
                0x0000000000048ca0       0x80 /Users/stevefar/nacl_sdk/pepper_45/toolchain/mac_x86_newlib/bin/../lib/gcc/x86_64-nacl/4.4.3/../../../../x86_64-nacl/lib/../lib64/libstdc++.a(string-inst.o)
                0x0000000000048ca0                _ZNSs5eraseEjj
 .text._ZNSs6insertEjPKcj
                0x0000000000048d20      0x2c0 /Users/stevefar/nacl_sdk/pepper_45/toolchain/mac_x86_newlib/bin/../lib/gcc/x86_64-nacl/4.4.3/../../../../x86_64-nacl/lib/../lib64/libstdc++.a(string-inst.o)
                0x0000000000048d20                _ZNSs6insertEjPKcj
 .text._ZNSs6insertEjPKc
                0x0000000000048fe0       0x80 /Users/stevefar/nacl_sdk/pepper_45/toolchain/mac_x86_newlib/bin/../lib/gcc/x86_64-nacl/4.4.3/../../../../x86_64-nacl/lib/../lib64/libstdc++.a(string-inst.o)
                0x0000000000048fe0                _ZNSs6insertEjPKc
 .text._ZNSs6insertEjRKSsjj
                0x0000000000049060       0x60 /Users/stevefar/nacl_sdk/pepper_45/toolchain/mac_x86_newlib/bin/../lib/gcc/x86_64-nacl/4.4.3/../../../../x86_64-nacl/lib/../lib64/libstdc++.a(string-inst.o)
                0x0000000000049060                _ZNSs6insertEjRKSsjj
 .text._ZNSs6insertEjRKSs
                0x00000000000490c0       0x20 /Users/stevefar/nacl_sdk/pepper_45/toolchain/mac_x86_newlib/bin/../lib/gcc/x86_64-nacl/4.4.3/../../../../x86_64-nacl/lib/../lib64/libstdc++.a(string-inst.o)
                0x00000000000490c0                _ZNSs6insertEjRKSs
 .text._ZNSs5clearEv
                0x00000000000490e0       0x20 /Users/stevefar/nacl_sdk/pepper_45/toolchain/mac_x86_newlib/bin/../lib/gcc/x86_64-nacl/4.4.3/../../../../x86_64-nacl/lib/../lib64/libstdc++.a(string-inst.o)
                0x00000000000490e0                _ZNSs5clearEv
 .text._ZNSs12_M_leak_hardEv
                0x0000000000049100       0xa0 /Users/stevefar/nacl_sdk/pepper_45/toolchain/mac_x86_newlib/bin/../lib/gcc/x86_64-nacl/4.4.3/../../../../x86_64-nacl/lib/../lib64/libstdc++.a(string-inst.o)
                0x0000000000049100                _ZNSs12_M_leak_hardEv
 .text._ZNSs7_M_leakEv
                0x00000000000491a0       0x40 /Users/stevefar/nacl_sdk/pepper_45/toolchain/mac_x86_newlib/bin/../lib/gcc/x86_64-nacl/4.4.3/../../../../x86_64-nacl/lib/../lib64/libstdc++.a(string-inst.o)
                0x00000000000491a0                _ZNSs7_M_leakEv
 .text._ZNSs2atEj
                0x00000000000491e0       0xa0 /Users/stevefar/nacl_sdk/pepper_45/toolchain/mac_x86_newlib/bin/../lib/gcc/x86_64-nacl/4.4.3/../../../../x86_64-nacl/lib/../lib64/libstdc++.a(string-inst.o)
                0x00000000000491e0                _ZNSs2atEj
 .text._ZNSsixEj
                0x0000000000049280       0x80 /Users/stevefar/nacl_sdk/pepper_45/toolchain/mac_x86_newlib/bin/../lib/gcc/x86_64-nacl/4.4.3/../../../../x86_64-nacl/lib/../lib64/libstdc++.a(string-inst.o)
                0x0000000000049280                _ZNSsixEj
 .text._ZNSs3endEv
                0x0000000000049300       0x60 /Users/stevefar/nacl_sdk/pepper_45/toolchain/mac_x86_newlib/bin/../lib/gcc/x86_64-nacl/4.4.3/../../../../x86_64-nacl/lib/../lib64/libstdc++.a(string-inst.o)
                0x0000000000049300                _ZNSs3endEv
 .text._ZNSs5beginEv
                0x0000000000049360       0x60 /Users/stevefar/nacl_sdk/pepper_45/toolchain/mac_x86_newlib/bin/../lib/gcc/x86_64-nacl/4.4.3/../../../../x86_64-nacl/lib/../lib64/libstdc++.a(string-inst.o)
                0x0000000000049360                _ZNSs5beginEv
 .text._ZNSs4rendEv
                0x00000000000493c0       0xa0 /Users/stevefar/nacl_sdk/pepper_45/toolchain/mac_x86_newlib/bin/../lib/gcc/x86_64-nacl/4.4.3/../../../../x86_64-nacl/lib/../lib64/libstdc++.a(string-inst.o)
                0x00000000000493c0                _ZNSs4rendEv
 .text._ZNSs6rbeginEv
                0x0000000000049460       0xa0 /Users/stevefar/nacl_sdk/pepper_45/toolchain/mac_x86_newlib/bin/../lib/gcc/x86_64-nacl/4.4.3/../../../../x86_64-nacl/lib/../lib64/libstdc++.a(string-inst.o)
                0x0000000000049460                _ZNSs6rbeginEv
 .text._ZNSs6resizeEjc
                0x0000000000049500       0xa0 /Users/stevefar/nacl_sdk/pepper_45/toolchain/mac_x86_newlib/bin/../lib/gcc/x86_64-nacl/4.4.3/../../../../x86_64-nacl/lib/../lib64/libstdc++.a(string-inst.o)
                0x0000000000049500                _ZNSs6resizeEjc
 .text._ZNSs6resizeEj
                0x00000000000495a0       0x20 /Users/stevefar/nacl_sdk/pepper_45/toolchain/mac_x86_newlib/bin/../lib/gcc/x86_64-nacl/4.4.3/../../../../x86_64-nacl/lib/../lib64/libstdc++.a(string-inst.o)
                0x00000000000495a0                _ZNSs6resizeEj
 .text._ZNSs7replaceEjjPKcj
                0x00000000000495c0      0x360 /Users/stevefar/nacl_sdk/pepper_45/toolchain/mac_x86_newlib/bin/../lib/gcc/x86_64-nacl/4.4.3/../../../../x86_64-nacl/lib/../lib64/libstdc++.a(string-inst.o)
                0x00000000000495c0                _ZNSs7replaceEjjPKcj
 .text._ZNSs7replaceEN9__gnu_cxx17__normal_iteratorIPcSsEES2_NS0_IPKcSsEES5_
                0x0000000000049920       0x20 /Users/stevefar/nacl_sdk/pepper_45/toolchain/mac_x86_newlib/bin/../lib/gcc/x86_64-nacl/4.4.3/../../../../x86_64-nacl/lib/../lib64/libstdc++.a(string-inst.o)
                0x0000000000049920                _ZNSs7replaceEN9__gnu_cxx17__normal_iteratorIPcSsEES2_NS0_IPKcSsEES5_
 .text._ZNSs7replaceEN9__gnu_cxx17__normal_iteratorIPcSsEES2_S2_S2_
                0x0000000000049940       0x20 /Users/stevefar/nacl_sdk/pepper_45/toolchain/mac_x86_newlib/bin/../lib/gcc/x86_64-nacl/4.4.3/../../../../x86_64-nacl/lib/../lib64/libstdc++.a(string-inst.o)
                0x0000000000049940                _ZNSs7replaceEN9__gnu_cxx17__normal_iteratorIPcSsEES2_S2_S2_
 .text._ZNSs7replaceEN9__gnu_cxx17__normal_iteratorIPcSsEES2_PKcS4_
                0x0000000000049960       0x20 /Users/stevefar/nacl_sdk/pepper_45/toolchain/mac_x86_newlib/bin/../lib/gcc/x86_64-nacl/4.4.3/../../../../x86_64-nacl/lib/../lib64/libstdc++.a(string-inst.o)
                0x0000000000049960                _ZNSs7replaceEN9__gnu_cxx17__normal_iteratorIPcSsEES2_PKcS4_
 .text._ZNSs7replaceEN9__gnu_cxx17__normal_iteratorIPcSsEES2_S1_S1_
                0x0000000000049980       0x20 /Users/stevefar/nacl_sdk/pepper_45/toolchain/mac_x86_newlib/bin/../lib/gcc/x86_64-nacl/4.4.3/../../../../x86_64-nacl/lib/../lib64/libstdc++.a(string-inst.o)
                0x0000000000049980                _ZNSs7replaceEN9__gnu_cxx17__normal_iteratorIPcSsEES2_S1_S1_
 .text._ZNSs7replaceEN9__gnu_cxx17__normal_iteratorIPcSsEES2_PKcj
                0x00000000000499a0       0x20 /Users/stevefar/nacl_sdk/pepper_45/toolchain/mac_x86_newlib/bin/../lib/gcc/x86_64-nacl/4.4.3/../../../../x86_64-nacl/lib/../lib64/libstdc++.a(string-inst.o)
                0x00000000000499a0                _ZNSs7replaceEN9__gnu_cxx17__normal_iteratorIPcSsEES2_PKcj
 .text._ZNSs7replaceEjjPKc
                0x00000000000499c0       0x80 /Users/stevefar/nacl_sdk/pepper_45/toolchain/mac_x86_newlib/bin/../lib/gcc/x86_64-nacl/4.4.3/../../../../x86_64-nacl/lib/../lib64/libstdc++.a(string-inst.o)
                0x00000000000499c0                _ZNSs7replaceEjjPKc
 .text._ZNSs7replaceEjjRKSsjj
                0x0000000000049a40       0x60 /Users/stevefar/nacl_sdk/pepper_45/toolchain/mac_x86_newlib/bin/../lib/gcc/x86_64-nacl/4.4.3/../../../../x86_64-nacl/lib/../lib64/libstdc++.a(string-inst.o)
                0x0000000000049a40                _ZNSs7replaceEjjRKSsjj
 .text._ZNSs7replaceEjjRKSs
                0x0000000000049aa0       0x20 /Users/stevefar/nacl_sdk/pepper_45/toolchain/mac_x86_newlib/bin/../lib/gcc/x86_64-nacl/4.4.3/../../../../x86_64-nacl/lib/../lib64/libstdc++.a(string-inst.o)
                0x0000000000049aa0                _ZNSs7replaceEjjRKSs
 .text._ZNSs7replaceEN9__gnu_cxx17__normal_iteratorIPcSsEES2_PKc
                0x0000000000049ac0       0x80 /Users/stevefar/nacl_sdk/pepper_45/toolchain/mac_x86_newlib/bin/../lib/gcc/x86_64-nacl/4.4.3/../../../../x86_64-nacl/lib/../lib64/libstdc++.a(string-inst.o)
                0x0000000000049ac0                _ZNSs7replaceEN9__gnu_cxx17__normal_iteratorIPcSsEES2_PKc
 .text._ZNSs7replaceEN9__gnu_cxx17__normal_iteratorIPcSsEES2_RKSs
                0x0000000000049b40       0x20 /Users/stevefar/nacl_sdk/pepper_45/toolchain/mac_x86_newlib/bin/../lib/gcc/x86_64-nacl/4.4.3/../../../../x86_64-nacl/lib/../lib64/libstdc++.a(string-inst.o)
                0x0000000000049b40                _ZNSs7replaceEN9__gnu_cxx17__normal_iteratorIPcSsEES2_RKSs
 .text._ZNSs6assignESt16initializer_listIcE
                0x0000000000049b60       0x40 /Users/stevefar/nacl_sdk/pepper_45/toolchain/mac_x86_newlib/bin/../lib/gcc/x86_64-nacl/4.4.3/../../../../x86_64-nacl/lib/../lib64/libstdc++.a(string-inst.o)
                0x0000000000049b60                _ZNSs6assignESt16initializer_listIcE
 .text._ZNSsaSESt16initializer_listIcE
                0x0000000000049ba0       0x60 /Users/stevefar/nacl_sdk/pepper_45/toolchain/mac_x86_newlib/bin/../lib/gcc/x86_64-nacl/4.4.3/../../../../x86_64-nacl/lib/../lib64/libstdc++.a(string-inst.o)
                0x0000000000049ba0                _ZNSsaSESt16initializer_listIcE
 .text._ZNSs6appendESt16initializer_listIcE
                0x0000000000049c00       0x40 /Users/stevefar/nacl_sdk/pepper_45/toolchain/mac_x86_newlib/bin/../lib/gcc/x86_64-nacl/4.4.3/../../../../x86_64-nacl/lib/../lib64/libstdc++.a(string-inst.o)
                0x0000000000049c00                _ZNSs6appendESt16initializer_listIcE
 .text._ZNSspLESt16initializer_listIcE
                0x0000000000049c40       0x40 /Users/stevefar/nacl_sdk/pepper_45/toolchain/mac_x86_newlib/bin/../lib/gcc/x86_64-nacl/4.4.3/../../../../x86_64-nacl/lib/../lib64/libstdc++.a(string-inst.o)
                0x0000000000049c40                _ZNSspLESt16initializer_listIcE
 .text._ZNSs7replaceEN9__gnu_cxx17__normal_iteratorIPcSsEES2_St16initializer_listIcE
                0x0000000000049c80       0x20 /Users/stevefar/nacl_sdk/pepper_45/toolchain/mac_x86_newlib/bin/../lib/gcc/x86_64-nacl/4.4.3/../../../../x86_64-nacl/lib/../lib64/libstdc++.a(string-inst.o)
                0x0000000000049c80                _ZNSs7replaceEN9__gnu_cxx17__normal_iteratorIPcSsEES2_St16initializer_listIcE
 .text._ZNSs6insertEN9__gnu_cxx17__normal_iteratorIPcSsEESt16initializer_listIcE
                0x0000000000049ca0       0x20 /Users/stevefar/nacl_sdk/pepper_45/toolchain/mac_x86_newlib/bin/../lib/gcc/x86_64-nacl/4.4.3/../../../../x86_64-nacl/lib/../lib64/libstdc++.a(string-inst.o)
                0x0000000000049ca0                _ZNSs6insertEN9__gnu_cxx17__normal_iteratorIPcSsEESt16initializer_listIcE
 .text          0x0000000000049cc0        0x0 /Users/stevefar/nacl_sdk/pepper_45/toolchain/mac_x86_newlib/bin/../lib/gcc/x86_64-nacl/4.4.3/../../../../x86_64-nacl/lib/../lib64/libstdc++.a(class_type_info.o)
 .text._ZNK10__cxxabiv117__class_type_info10__do_catchEPKSt9type_infoPPvj
                0x0000000000049cc0       0x80 /Users/stevefar/nacl_sdk/pepper_45/toolchain/mac_x86_newlib/bin/../lib/gcc/x86_64-nacl/4.4.3/../../../../x86_64-nacl/lib/../lib64/libstdc++.a(class_type_info.o)
                0x0000000000049cc0                _ZNK10__cxxabiv117__class_type_info10__do_catchEPKSt9type_infoPPvj
 .text._ZNK10__cxxabiv117__class_type_info11__do_upcastEPKS0_PPv
                0x0000000000049d40       0xa0 /Users/stevefar/nacl_sdk/pepper_45/toolchain/mac_x86_newlib/bin/../lib/gcc/x86_64-nacl/4.4.3/../../../../x86_64-nacl/lib/../lib64/libstdc++.a(class_type_info.o)
                0x0000000000049d40                _ZNK10__cxxabiv117__class_type_info11__do_upcastEPKS0_PPv
 .text._ZNK10__cxxabiv117__class_type_info20__do_find_public_srcEiPKvPKS0_S2_
                0x0000000000049de0       0x20 /Users/stevefar/nacl_sdk/pepper_45/toolchain/mac_x86_newlib/bin/../lib/gcc/x86_64-nacl/4.4.3/../../../../x86_64-nacl/lib/../lib64/libstdc++.a(class_type_info.o)
                0x0000000000049de0                _ZNK10__cxxabiv117__class_type_info20__do_find_public_srcEiPKvPKS0_S2_
 .text._ZNK10__cxxabiv117__class_type_info12__do_dyncastEiNS0_10__sub_kindEPKS0_PKvS3_S5_RNS0_16__dyncast_resultE
                0x0000000000049e00       0xc0 /Users/stevefar/nacl_sdk/pepper_45/toolchain/mac_x86_newlib/bin/../lib/gcc/x86_64-nacl/4.4.3/../../../../x86_64-nacl/lib/../lib64/libstdc++.a(class_type_info.o)
                0x0000000000049e00                _ZNK10__cxxabiv117__class_type_info12__do_dyncastEiNS0_10__sub_kindEPKS0_PKvS3_S5_RNS0_16__dyncast_resultE
 .text._ZNK10__cxxabiv117__class_type_info11__do_upcastEPKS0_PKvRNS0_15__upcast_resultE
                0x0000000000049ec0       0x80 /Users/stevefar/nacl_sdk/pepper_45/toolchain/mac_x86_newlib/bin/../lib/gcc/x86_64-nacl/4.4.3/../../../../x86_64-nacl/lib/../lib64/libstdc++.a(class_type_info.o)
                0x0000000000049ec0                _ZNK10__cxxabiv117__class_type_info11__do_upcastEPKS0_PKvRNS0_15__upcast_resultE
 .text._ZN10__cxxabiv117__class_type_infoD1Ev
                0x0000000000049f40       0x20 /Users/stevefar/nacl_sdk/pepper_45/toolchain/mac_x86_newlib/bin/../lib/gcc/x86_64-nacl/4.4.3/../../../../x86_64-nacl/lib/../lib64/libstdc++.a(class_type_info.o)
                0x0000000000049f40                _ZN10__cxxabiv117__class_type_infoD1Ev
 .text._ZN10__cxxabiv117__class_type_infoD2Ev
                0x0000000000049f60       0x20 /Users/stevefar/nacl_sdk/pepper_45/toolchain/mac_x86_newlib/bin/../lib/gcc/x86_64-nacl/4.4.3/../../../../x86_64-nacl/lib/../lib64/libstdc++.a(class_type_info.o)
                0x0000000000049f60                _ZN10__cxxabiv117__class_type_infoD2Ev
 .text._ZN10__cxxabiv117__class_type_infoD0Ev
                0x0000000000049f80       0x40 /Users/stevefar/nacl_sdk/pepper_45/toolchain/mac_x86_newlib/bin/../lib/gcc/x86_64-nacl/4.4.3/../../../../x86_64-nacl/lib/../lib64/libstdc++.a(class_type_info.o)
                0x0000000000049f80                _ZN10__cxxabiv117__class_type_infoD0Ev
 .text          0x0000000000049fc0        0x0 /Users/stevefar/nacl_sdk/pepper_45/toolchain/mac_x86_newlib/bin/../lib/gcc/x86_64-nacl/4.4.3/../../../../x86_64-nacl/lib/../lib64/libstdc++.a(del_op.o)
 .text._ZdlPv   0x0000000000049fc0       0x40 /Users/stevefar/nacl_sdk/pepper_45/toolchain/mac_x86_newlib/bin/../lib/gcc/x86_64-nacl/4.4.3/../../../../x86_64-nacl/lib/../lib64/libstdc++.a(del_op.o)
                0x0000000000049fc0                _ZdlPv
 .text          0x000000000004a000        0x0 /Users/stevefar/nacl_sdk/pepper_45/toolchain/mac_x86_newlib/bin/../lib/gcc/x86_64-nacl/4.4.3/../../../../x86_64-nacl/lib/../lib64/libstdc++.a(eh_catch.o)
 .text.__cxa_get_exception_ptr
                0x000000000004a000       0x20 /Users/stevefar/nacl_sdk/pepper_45/toolchain/mac_x86_newlib/bin/../lib/gcc/x86_64-nacl/4.4.3/../../../../x86_64-nacl/lib/../lib64/libstdc++.a(eh_catch.o)
                0x000000000004a000                __cxa_get_exception_ptr
 .text._ZSt18uncaught_exceptionv
                0x000000000004a020       0x40 /Users/stevefar/nacl_sdk/pepper_45/toolchain/mac_x86_newlib/bin/../lib/gcc/x86_64-nacl/4.4.3/../../../../x86_64-nacl/lib/../lib64/libstdc++.a(eh_catch.o)
                0x000000000004a020                _ZSt18uncaught_exceptionv
 .text.__cxa_end_catch
                0x000000000004a060      0x140 /Users/stevefar/nacl_sdk/pepper_45/toolchain/mac_x86_newlib/bin/../lib/gcc/x86_64-nacl/4.4.3/../../../../x86_64-nacl/lib/../lib64/libstdc++.a(eh_catch.o)
                0x000000000004a060                __cxa_end_catch
 .text.__cxa_begin_catch
                0x000000000004a1a0      0x140 /Users/stevefar/nacl_sdk/pepper_45/toolchain/mac_x86_newlib/bin/../lib/gcc/x86_64-nacl/4.4.3/../../../../x86_64-nacl/lib/../lib64/libstdc++.a(eh_catch.o)
                0x000000000004a1a0                __cxa_begin_catch
 .text          0x000000000004a2e0        0x0 /Users/stevefar/nacl_sdk/pepper_45/toolchain/mac_x86_newlib/bin/../lib/gcc/x86_64-nacl/4.4.3/../../../../x86_64-nacl/lib/../lib64/libstdc++.a(eh_globals.o)
 .text._ZN17__eh_globals_initD1Ev
                0x000000000004a2e0       0x80 /Users/stevefar/nacl_sdk/pepper_45/toolchain/mac_x86_newlib/bin/../lib/gcc/x86_64-nacl/4.4.3/../../../../x86_64-nacl/lib/../lib64/libstdc++.a(eh_globals.o)
                0x000000000004a2e0                _ZN17__eh_globals_initD1Ev
 .text._GLOBAL__I___cxa_get_globals_fast
                0x000000000004a360       0x80 /Users/stevefar/nacl_sdk/pepper_45/toolchain/mac_x86_newlib/bin/../lib/gcc/x86_64-nacl/4.4.3/../../../../x86_64-nacl/lib/../lib64/libstdc++.a(eh_globals.o)
 .text._ZL15eh_globals_dtorPv
                0x000000000004a3e0       0xc0 /Users/stevefar/nacl_sdk/pepper_45/toolchain/mac_x86_newlib/bin/../lib/gcc/x86_64-nacl/4.4.3/../../../../x86_64-nacl/lib/../lib64/libstdc++.a(eh_globals.o)
 .text.__cxa_get_globals
                0x000000000004a4a0      0x140 /Users/stevefar/nacl_sdk/pepper_45/toolchain/mac_x86_newlib/bin/../lib/gcc/x86_64-nacl/4.4.3/../../../../x86_64-nacl/lib/../lib64/libstdc++.a(eh_globals.o)
                0x000000000004a4a0                __cxa_get_globals
 .text.__cxa_get_globals_fast
                0x000000000004a5e0       0xc0 /Users/stevefar/nacl_sdk/pepper_45/toolchain/mac_x86_newlib/bin/../lib/gcc/x86_64-nacl/4.4.3/../../../../x86_64-nacl/lib/../lib64/libstdc++.a(eh_globals.o)
                0x000000000004a5e0                __cxa_get_globals_fast
 .text          0x000000000004a6a0        0x0 /Users/stevefar/nacl_sdk/pepper_45/toolchain/mac_x86_newlib/bin/../lib/gcc/x86_64-nacl/4.4.3/../../../../x86_64-nacl/lib/../lib64/libstdc++.a(eh_personality.o)
 .text._ZL16get_adjusted_ptrPKSt9type_infoS1_PPv
                0x000000000004a6a0      0x120 /Users/stevefar/nacl_sdk/pepper_45/toolchain/mac_x86_newlib/bin/../lib/gcc/x86_64-nacl/4.4.3/../../../../x86_64-nacl/lib/../lib64/libstdc++.a(eh_personality.o)
 .text._ZL21base_of_encoded_valuehP15_Unwind_Context
                0x000000000004a7c0      0x120 /Users/stevefar/nacl_sdk/pepper_45/toolchain/mac_x86_newlib/bin/../lib/gcc/x86_64-nacl/4.4.3/../../../../x86_64-nacl/lib/../lib64/libstdc++.a(eh_personality.o)
 .text._ZL28read_encoded_value_with_basehjPKhPj
                0x000000000004a8e0      0x260 /Users/stevefar/nacl_sdk/pepper_45/toolchain/mac_x86_newlib/bin/../lib/gcc/x86_64-nacl/4.4.3/../../../../x86_64-nacl/lib/../lib64/libstdc++.a(eh_personality.o)
 .text._ZL17parse_lsda_headerP15_Unwind_ContextPKhP16lsda_header_info
                0x000000000004ab40      0x1c0 /Users/stevefar/nacl_sdk/pepper_45/toolchain/mac_x86_newlib/bin/../lib/gcc/x86_64-nacl/4.4.3/../../../../x86_64-nacl/lib/../lib64/libstdc++.a(eh_personality.o)
 .text._ZL15get_ttype_entryP16lsda_header_infom
                0x000000000004ad00      0x140 /Users/stevefar/nacl_sdk/pepper_45/toolchain/mac_x86_newlib/bin/../lib/gcc/x86_64-nacl/4.4.3/../../../../x86_64-nacl/lib/../lib64/libstdc++.a(eh_personality.o)
 .text._ZL20check_exception_specP16lsda_header_infoPKSt9type_infoPvl
                0x000000000004ae40      0x120 /Users/stevefar/nacl_sdk/pepper_45/toolchain/mac_x86_newlib/bin/../lib/gcc/x86_64-nacl/4.4.3/../../../../x86_64-nacl/lib/../lib64/libstdc++.a(eh_personality.o)
 .text.__cxa_call_unexpected
                0x000000000004af60      0x260 /Users/stevefar/nacl_sdk/pepper_45/toolchain/mac_x86_newlib/bin/../lib/gcc/x86_64-nacl/4.4.3/../../../../x86_64-nacl/lib/../lib64/libstdc++.a(eh_personality.o)
                0x000000000004af60                __cxa_call_unexpected
 .text.__gxx_personality_v0
                0x000000000004b1c0      0xa40 /Users/stevefar/nacl_sdk/pepper_45/toolchain/mac_x86_newlib/bin/../lib/gcc/x86_64-nacl/4.4.3/../../../../x86_64-nacl/lib/../lib64/libstdc++.a(eh_personality.o)
                0x000000000004b1c0                __gxx_personality_v0
 .text          0x000000000004bc00        0x0 /Users/stevefar/nacl_sdk/pepper_45/toolchain/mac_x86_newlib/bin/../lib/gcc/x86_64-nacl/4.4.3/../../../../x86_64-nacl/lib/../lib64/libstdc++.a(eh_terminate.o)
 .text._ZSt13set_terminatePFvvE
                0x000000000004bc00       0x20 /Users/stevefar/nacl_sdk/pepper_45/toolchain/mac_x86_newlib/bin/../lib/gcc/x86_64-nacl/4.4.3/../../../../x86_64-nacl/lib/../lib64/libstdc++.a(eh_terminate.o)
                0x000000000004bc00                _ZSt13set_terminatePFvvE
 .text._ZSt14set_unexpectedPFvvE
                0x000000000004bc20       0x20 /Users/stevefar/nacl_sdk/pepper_45/toolchain/mac_x86_newlib/bin/../lib/gcc/x86_64-nacl/4.4.3/../../../../x86_64-nacl/lib/../lib64/libstdc++.a(eh_terminate.o)
                0x000000000004bc20                _ZSt14set_unexpectedPFvvE
 .text._ZN10__cxxabiv111__terminateEPFvvE
                0x000000000004bc40       0xc0 /Users/stevefar/nacl_sdk/pepper_45/toolchain/mac_x86_newlib/bin/../lib/gcc/x86_64-nacl/4.4.3/../../../../x86_64-nacl/lib/../lib64/libstdc++.a(eh_terminate.o)
                0x000000000004bc40                _ZN10__cxxabiv111__terminateEPFvvE
 .text._ZSt9terminatev
                0x000000000004bd00       0x20 /Users/stevefar/nacl_sdk/pepper_45/toolchain/mac_x86_newlib/bin/../lib/gcc/x86_64-nacl/4.4.3/../../../../x86_64-nacl/lib/../lib64/libstdc++.a(eh_terminate.o)
                0x000000000004bd00                _ZSt9terminatev
 .text._ZN10__cxxabiv112__unexpectedEPFvvE
                0x000000000004bd20       0x40 /Users/stevefar/nacl_sdk/pepper_45/toolchain/mac_x86_newlib/bin/../lib/gcc/x86_64-nacl/4.4.3/../../../../x86_64-nacl/lib/../lib64/libstdc++.a(eh_terminate.o)
                0x000000000004bd20                _ZN10__cxxabiv112__unexpectedEPFvvE
 .text._ZSt10unexpectedv
                0x000000000004bd60       0x20 /Users/stevefar/nacl_sdk/pepper_45/toolchain/mac_x86_newlib/bin/../lib/gcc/x86_64-nacl/4.4.3/../../../../x86_64-nacl/lib/../lib64/libstdc++.a(eh_terminate.o)
                0x000000000004bd60                _ZSt10unexpectedv
 .text          0x000000000004bd80        0x0 /Users/stevefar/nacl_sdk/pepper_45/toolchain/mac_x86_newlib/bin/../lib/gcc/x86_64-nacl/4.4.3/../../../../x86_64-nacl/lib/../lib64/libstdc++.a(eh_throw.o)
 .text.__cxa_rethrow
                0x000000000004bd80       0xe0 /Users/stevefar/nacl_sdk/pepper_45/toolchain/mac_x86_newlib/bin/../lib/gcc/x86_64-nacl/4.4.3/../../../../x86_64-nacl/lib/../lib64/libstdc++.a(eh_throw.o)
                0x000000000004bd80                __cxa_rethrow
 .text.__cxa_throw
                0x000000000004be60       0xc0 /Users/stevefar/nacl_sdk/pepper_45/toolchain/mac_x86_newlib/bin/../lib/gcc/x86_64-nacl/4.4.3/../../../../x86_64-nacl/lib/../lib64/libstdc++.a(eh_throw.o)
                0x000000000004be60                __cxa_throw
 .text._ZL23__gxx_exception_cleanup19_Unwind_Reason_CodeP17_Unwind_Exception
                0x000000000004bf20       0xc0 /Users/stevefar/nacl_sdk/pepper_45/toolchain/mac_x86_newlib/bin/../lib/gcc/x86_64-nacl/4.4.3/../../../../x86_64-nacl/lib/../lib64/libstdc++.a(eh_throw.o)
 .text          0x000000000004bfe0        0x0 /Users/stevefar/nacl_sdk/pepper_45/toolchain/mac_x86_newlib/bin/../lib/gcc/x86_64-nacl/4.4.3/../../../../x86_64-nacl/lib/../lib64/libstdc++.a(eh_unex_handler.o)
 .text          0x000000000004bfe0        0x0 /Users/stevefar/nacl_sdk/pepper_45/toolchain/mac_x86_newlib/bin/../lib/gcc/x86_64-nacl/4.4.3/../../../../x86_64-nacl/lib/../lib64/libstdc++.a(guard.o)
 .text._ZNK9__gnu_cxx24__concurrence_lock_error4whatEv
                0x000000000004bfe0       0x20 /Users/stevefar/nacl_sdk/pepper_45/toolchain/mac_x86_newlib/bin/../lib/gcc/x86_64-nacl/4.4.3/../../../../x86_64-nacl/lib/../lib64/libstdc++.a(guard.o)
                0x000000000004bfe0                _ZNK9__gnu_cxx24__concurrence_lock_error4whatEv
 .text._ZNK9__gnu_cxx26__concurrence_unlock_error4whatEv
                0x000000000004c000       0x20 /Users/stevefar/nacl_sdk/pepper_45/toolchain/mac_x86_newlib/bin/../lib/gcc/x86_64-nacl/4.4.3/../../../../x86_64-nacl/lib/../lib64/libstdc++.a(guard.o)
                0x000000000004c000                _ZNK9__gnu_cxx26__concurrence_unlock_error4whatEv
 .text._ZN12_GLOBAL__N_1L4initEv
                0x000000000004c020       0x80 /Users/stevefar/nacl_sdk/pepper_45/toolchain/mac_x86_newlib/bin/../lib/gcc/x86_64-nacl/4.4.3/../../../../x86_64-nacl/lib/../lib64/libstdc++.a(guard.o)
 .text._ZN10__cxxabiv1L7acquireEPx
                0x000000000004c0a0       0xa0 /Users/stevefar/nacl_sdk/pepper_45/toolchain/mac_x86_newlib/bin/../lib/gcc/x86_64-nacl/4.4.3/../../../../x86_64-nacl/lib/../lib64/libstdc++.a(guard.o)
 .text._ZN9__gnu_cxx26__concurrence_unlock_errorD1Ev
                0x000000000004c140       0x20 /Users/stevefar/nacl_sdk/pepper_45/toolchain/mac_x86_newlib/bin/../lib/gcc/x86_64-nacl/4.4.3/../../../../x86_64-nacl/lib/../lib64/libstdc++.a(guard.o)
                0x000000000004c140                _ZN9__gnu_cxx26__concurrence_unlock_errorD1Ev
 .text._ZN9__gnu_cxx24__concurrence_lock_errorD1Ev
                0x000000000004c160       0x20 /Users/stevefar/nacl_sdk/pepper_45/toolchain/mac_x86_newlib/bin/../lib/gcc/x86_64-nacl/4.4.3/../../../../x86_64-nacl/lib/../lib64/libstdc++.a(guard.o)
                0x000000000004c160                _ZN9__gnu_cxx24__concurrence_lock_errorD1Ev
 .text._ZN9__gnu_cxx20recursive_init_errorD1Ev
                0x000000000004c180       0x20 /Users/stevefar/nacl_sdk/pepper_45/toolchain/mac_x86_newlib/bin/../lib/gcc/x86_64-nacl/4.4.3/../../../../x86_64-nacl/lib/../lib64/libstdc++.a(guard.o)
                0x000000000004c180                _ZN9__gnu_cxx20recursive_init_errorD1Ev
 .text._ZN9__gnu_cxx20recursive_init_errorD2Ev
                0x000000000004c1a0       0x20 /Users/stevefar/nacl_sdk/pepper_45/toolchain/mac_x86_newlib/bin/../lib/gcc/x86_64-nacl/4.4.3/../../../../x86_64-nacl/lib/../lib64/libstdc++.a(guard.o)
                0x000000000004c1a0                _ZN9__gnu_cxx20recursive_init_errorD2Ev
 .text._ZN9__gnu_cxx26__concurrence_unlock_errorD0Ev
                0x000000000004c1c0       0x40 /Users/stevefar/nacl_sdk/pepper_45/toolchain/mac_x86_newlib/bin/../lib/gcc/x86_64-nacl/4.4.3/../../../../x86_64-nacl/lib/../lib64/libstdc++.a(guard.o)
                0x000000000004c1c0                _ZN9__gnu_cxx26__concurrence_unlock_errorD0Ev
 .text._ZN9__gnu_cxx24__concurrence_lock_errorD0Ev
                0x000000000004c200       0x40 /Users/stevefar/nacl_sdk/pepper_45/toolchain/mac_x86_newlib/bin/../lib/gcc/x86_64-nacl/4.4.3/../../../../x86_64-nacl/lib/../lib64/libstdc++.a(guard.o)
                0x000000000004c200                _ZN9__gnu_cxx24__concurrence_lock_errorD0Ev
 .text._ZN9__gnu_cxx20recursive_init_errorD0Ev
                0x000000000004c240       0x40 /Users/stevefar/nacl_sdk/pepper_45/toolchain/mac_x86_newlib/bin/../lib/gcc/x86_64-nacl/4.4.3/../../../../x86_64-nacl/lib/../lib64/libstdc++.a(guard.o)
                0x000000000004c240                _ZN9__gnu_cxx20recursive_init_errorD0Ev
 .text.__cxa_guard_release
                0x000000000004c280       0xc0 /Users/stevefar/nacl_sdk/pepper_45/toolchain/mac_x86_newlib/bin/../lib/gcc/x86_64-nacl/4.4.3/../../../../x86_64-nacl/lib/../lib64/libstdc++.a(guard.o)
                0x000000000004c280                __cxa_guard_release
 .text.__cxa_guard_abort
                0x000000000004c340       0xc0 /Users/stevefar/nacl_sdk/pepper_45/toolchain/mac_x86_newlib/bin/../lib/gcc/x86_64-nacl/4.4.3/../../../../x86_64-nacl/lib/../lib64/libstdc++.a(guard.o)
                0x000000000004c340                __cxa_guard_abort
 .text.__cxa_guard_acquire
                0x000000000004c400      0x220 /Users/stevefar/nacl_sdk/pepper_45/toolchain/mac_x86_newlib/bin/../lib/gcc/x86_64-nacl/4.4.3/../../../../x86_64-nacl/lib/../lib64/libstdc++.a(guard.o)
                0x000000000004c400                __cxa_guard_acquire
 .text          0x000000000004c620        0x0 /Users/stevefar/nacl_sdk/pepper_45/toolchain/mac_x86_newlib/bin/../lib/gcc/x86_64-nacl/4.4.3/../../../../x86_64-nacl/lib/../lib64/libstdc++.a(new_op.o)
 .text._Znwj    0x000000000004c620      0x100 /Users/stevefar/nacl_sdk/pepper_45/toolchain/mac_x86_newlib/bin/../lib/gcc/x86_64-nacl/4.4.3/../../../../x86_64-nacl/lib/../lib64/libstdc++.a(new_op.o)
                0x000000000004c620                _Znwj
 .text          0x000000000004c720        0x0 /Users/stevefar/nacl_sdk/pepper_45/toolchain/mac_x86_newlib/bin/../lib/gcc/x86_64-nacl/4.4.3/../../../../x86_64-nacl/lib/../lib64/libstdc++.a(pure.o)
 .text.__cxa_pure_virtual
                0x000000000004c720       0x40 /Users/stevefar/nacl_sdk/pepper_45/toolchain/mac_x86_newlib/bin/../lib/gcc/x86_64-nacl/4.4.3/../../../../x86_64-nacl/lib/../lib64/libstdc++.a(pure.o)
                0x000000000004c720                __cxa_pure_virtual
 .text          0x000000000004c760        0x0 /Users/stevefar/nacl_sdk/pepper_45/toolchain/mac_x86_newlib/bin/../lib/gcc/x86_64-nacl/4.4.3/../../../../x86_64-nacl/lib/../lib64/libstdc++.a(si_class_type_info.o)
 .text._ZNK10__cxxabiv120__si_class_type_info20__do_find_public_srcEiPKvPKNS_17__class_type_infoES2_
                0x000000000004c760       0x80 /Users/stevefar/nacl_sdk/pepper_45/toolchain/mac_x86_newlib/bin/../lib/gcc/x86_64-nacl/4.4.3/../../../../x86_64-nacl/lib/../lib64/libstdc++.a(si_class_type_info.o)
                0x000000000004c760                _ZNK10__cxxabiv120__si_class_type_info20__do_find_public_srcEiPKvPKNS_17__class_type_infoES2_
 .text._ZNK10__cxxabiv120__si_class_type_info12__do_dyncastEiNS_17__class_type_info10__sub_kindEPKS1_PKvS4_S6_RNS1_16__dyncast_resultE
                0x000000000004c7e0      0x120 /Users/stevefar/nacl_sdk/pepper_45/toolchain/mac_x86_newlib/bin/../lib/gcc/x86_64-nacl/4.4.3/../../../../x86_64-nacl/lib/../lib64/libstdc++.a(si_class_type_info.o)
                0x000000000004c7e0                _ZNK10__cxxabiv120__si_class_type_info12__do_dyncastEiNS_17__class_type_info10__sub_kindEPKS1_PKvS4_S6_RNS1_16__dyncast_resultE
 .text._ZNK10__cxxabiv120__si_class_type_info11__do_upcastEPKNS_17__class_type_infoEPKvRNS1_15__upcast_resultE
                0x000000000004c900       0xc0 /Users/stevefar/nacl_sdk/pepper_45/toolchain/mac_x86_newlib/bin/../lib/gcc/x86_64-nacl/4.4.3/../../../../x86_64-nacl/lib/../lib64/libstdc++.a(si_class_type_info.o)
                0x000000000004c900                _ZNK10__cxxabiv120__si_class_type_info11__do_upcastEPKNS_17__class_type_infoEPKvRNS1_15__upcast_resultE
 .text._ZN10__cxxabiv120__si_class_type_infoD1Ev
                0x000000000004c9c0       0x20 /Users/stevefar/nacl_sdk/pepper_45/toolchain/mac_x86_newlib/bin/../lib/gcc/x86_64-nacl/4.4.3/../../../../x86_64-nacl/lib/../lib64/libstdc++.a(si_class_type_info.o)
                0x000000000004c9c0                _ZN10__cxxabiv120__si_class_type_infoD1Ev
 .text._ZN10__cxxabiv120__si_class_type_infoD2Ev
                0x000000000004c9e0       0x20 /Users/stevefar/nacl_sdk/pepper_45/toolchain/mac_x86_newlib/bin/../lib/gcc/x86_64-nacl/4.4.3/../../../../x86_64-nacl/lib/../lib64/libstdc++.a(si_class_type_info.o)
                0x000000000004c9e0                _ZN10__cxxabiv120__si_class_type_infoD2Ev
 .text._ZN10__cxxabiv120__si_class_type_infoD0Ev
                0x000000000004ca00       0x40 /Users/stevefar/nacl_sdk/pepper_45/toolchain/mac_x86_newlib/bin/../lib/gcc/x86_64-nacl/4.4.3/../../../../x86_64-nacl/lib/../lib64/libstdc++.a(si_class_type_info.o)
                0x000000000004ca00                _ZN10__cxxabiv120__si_class_type_infoD0Ev
 .text          0x000000000004ca40        0x0 /Users/stevefar/nacl_sdk/pepper_45/toolchain/mac_x86_newlib/bin/../lib/gcc/x86_64-nacl/4.4.3/../../../../x86_64-nacl/lib/../lib64/libstdc++.a(tinfo.o)
 .text._ZNSt9type_infoD2Ev
                0x000000000004ca40       0x20 /Users/stevefar/nacl_sdk/pepper_45/toolchain/mac_x86_newlib/bin/../lib/gcc/x86_64-nacl/4.4.3/../../../../x86_64-nacl/lib/../lib64/libstdc++.a(tinfo.o)
                0x000000000004ca40                _ZNSt9type_infoD2Ev
 .text._ZNSt9type_infoD1Ev
                0x000000000004ca60       0x20 /Users/stevefar/nacl_sdk/pepper_45/toolchain/mac_x86_newlib/bin/../lib/gcc/x86_64-nacl/4.4.3/../../../../x86_64-nacl/lib/../lib64/libstdc++.a(tinfo.o)
                0x000000000004ca60                _ZNSt9type_infoD1Ev
 .text._ZNKSt9type_info14__is_pointer_pEv
                0x000000000004ca80       0x20 /Users/stevefar/nacl_sdk/pepper_45/toolchain/mac_x86_newlib/bin/../lib/gcc/x86_64-nacl/4.4.3/../../../../x86_64-nacl/lib/../lib64/libstdc++.a(tinfo.o)
                0x000000000004ca80                _ZNKSt9type_info14__is_pointer_pEv
 .text._ZNKSt9type_info15__is_function_pEv
                0x000000000004caa0       0x20 /Users/stevefar/nacl_sdk/pepper_45/toolchain/mac_x86_newlib/bin/../lib/gcc/x86_64-nacl/4.4.3/../../../../x86_64-nacl/lib/../lib64/libstdc++.a(tinfo.o)
                0x000000000004caa0                _ZNKSt9type_info15__is_function_pEv
 .text._ZNKSt9type_info10__do_catchEPKS_PPvj
                0x000000000004cac0       0x40 /Users/stevefar/nacl_sdk/pepper_45/toolchain/mac_x86_newlib/bin/../lib/gcc/x86_64-nacl/4.4.3/../../../../x86_64-nacl/lib/../lib64/libstdc++.a(tinfo.o)
                0x000000000004cac0                _ZNKSt9type_info10__do_catchEPKS_PPvj
 .text._ZNKSt9type_info11__do_upcastEPKN10__cxxabiv117__class_type_infoEPPv
                0x000000000004cb00       0x20 /Users/stevefar/nacl_sdk/pepper_45/toolchain/mac_x86_newlib/bin/../lib/gcc/x86_64-nacl/4.4.3/../../../../x86_64-nacl/lib/../lib64/libstdc++.a(tinfo.o)
                0x000000000004cb00                _ZNKSt9type_info11__do_upcastEPKN10__cxxabiv117__class_type_infoEPPv
 .text._ZNSt9type_infoD0Ev
                0x000000000004cb20       0x20 /Users/stevefar/nacl_sdk/pepper_45/toolchain/mac_x86_newlib/bin/../lib/gcc/x86_64-nacl/4.4.3/../../../../x86_64-nacl/lib/../lib64/libstdc++.a(tinfo.o)
                0x000000000004cb20                _ZNSt9type_infoD0Ev
 .text          0x000000000004cb40        0x0 /Users/stevefar/nacl_sdk/pepper_45/toolchain/mac_x86_newlib/bin/../lib/gcc/x86_64-nacl/4.4.3/../../../../x86_64-nacl/lib/../lib64/libstdc++.a(functexcept.o)
 .text._ZSt18__throw_bad_typeidv
                0x000000000004cb40       0x40 /Users/stevefar/nacl_sdk/pepper_45/toolchain/mac_x86_newlib/bin/../lib/gcc/x86_64-nacl/4.4.3/../../../../x86_64-nacl/lib/../lib64/libstdc++.a(functexcept.o)
                0x000000000004cb40                _ZSt18__throw_bad_typeidv
 .text._ZSt16__throw_bad_castv
                0x000000000004cb80       0x40 /Users/stevefar/nacl_sdk/pepper_45/toolchain/mac_x86_newlib/bin/../lib/gcc/x86_64-nacl/4.4.3/../../../../x86_64-nacl/lib/../lib64/libstdc++.a(functexcept.o)
                0x000000000004cb80                _ZSt16__throw_bad_castv
 .text._ZSt17__throw_bad_allocv
                0x000000000004cbc0       0x40 /Users/stevefar/nacl_sdk/pepper_45/toolchain/mac_x86_newlib/bin/../lib/gcc/x86_64-nacl/4.4.3/../../../../x86_64-nacl/lib/../lib64/libstdc++.a(functexcept.o)
                0x000000000004cbc0                _ZSt17__throw_bad_allocv
 .text._ZSt21__throw_bad_exceptionv
                0x000000000004cc00       0x40 /Users/stevefar/nacl_sdk/pepper_45/toolchain/mac_x86_newlib/bin/../lib/gcc/x86_64-nacl/4.4.3/../../../../x86_64-nacl/lib/../lib64/libstdc++.a(functexcept.o)
                0x000000000004cc00                _ZSt21__throw_bad_exceptionv
 .text._ZNSt15underflow_errorD1Ev
                0x000000000004cc40       0x20 /Users/stevefar/nacl_sdk/pepper_45/toolchain/mac_x86_newlib/bin/../lib/gcc/x86_64-nacl/4.4.3/../../../../x86_64-nacl/lib/../lib64/libstdc++.a(functexcept.o)
                0x000000000004cc40                _ZNSt15underflow_errorD1Ev
 .text._ZNSt14overflow_errorD1Ev
                0x000000000004cc60       0x20 /Users/stevefar/nacl_sdk/pepper_45/toolchain/mac_x86_newlib/bin/../lib/gcc/x86_64-nacl/4.4.3/../../../../x86_64-nacl/lib/../lib64/libstdc++.a(functexcept.o)
                0x000000000004cc60                _ZNSt14overflow_errorD1Ev
 .text._ZNSt11range_errorD1Ev
                0x000000000004cc80       0x20 /Users/stevefar/nacl_sdk/pepper_45/toolchain/mac_x86_newlib/bin/../lib/gcc/x86_64-nacl/4.4.3/../../../../x86_64-nacl/lib/../lib64/libstdc++.a(functexcept.o)
                0x000000000004cc80                _ZNSt11range_errorD1Ev
 .text._ZNSt15underflow_errorD0Ev
                0x000000000004cca0       0x40 /Users/stevefar/nacl_sdk/pepper_45/toolchain/mac_x86_newlib/bin/../lib/gcc/x86_64-nacl/4.4.3/../../../../x86_64-nacl/lib/../lib64/libstdc++.a(functexcept.o)
                0x000000000004cca0                _ZNSt15underflow_errorD0Ev
 .text._ZNSt14overflow_errorD0Ev
                0x000000000004cce0       0x40 /Users/stevefar/nacl_sdk/pepper_45/toolchain/mac_x86_newlib/bin/../lib/gcc/x86_64-nacl/4.4.3/../../../../x86_64-nacl/lib/../lib64/libstdc++.a(functexcept.o)
                0x000000000004cce0                _ZNSt14overflow_errorD0Ev
 .text._ZNSt11range_errorD0Ev
                0x000000000004cd20       0x40 /Users/stevefar/nacl_sdk/pepper_45/toolchain/mac_x86_newlib/bin/../lib/gcc/x86_64-nacl/4.4.3/../../../../x86_64-nacl/lib/../lib64/libstdc++.a(functexcept.o)
                0x000000000004cd20                _ZNSt11range_errorD0Ev
 .text._ZNSt12out_of_rangeD1Ev
                0x000000000004cd60       0x20 /Users/stevefar/nacl_sdk/pepper_45/toolchain/mac_x86_newlib/bin/../lib/gcc/x86_64-nacl/4.4.3/../../../../x86_64-nacl/lib/../lib64/libstdc++.a(functexcept.o)
                0x000000000004cd60                _ZNSt12out_of_rangeD1Ev
 .text._ZNSt12out_of_rangeD0Ev
                0x000000000004cd80       0x40 /Users/stevefar/nacl_sdk/pepper_45/toolchain/mac_x86_newlib/bin/../lib/gcc/x86_64-nacl/4.4.3/../../../../x86_64-nacl/lib/../lib64/libstdc++.a(functexcept.o)
                0x000000000004cd80                _ZNSt12out_of_rangeD0Ev
 .text._ZNSt12length_errorD1Ev
                0x000000000004cdc0       0x20 /Users/stevefar/nacl_sdk/pepper_45/toolchain/mac_x86_newlib/bin/../lib/gcc/x86_64-nacl/4.4.3/../../../../x86_64-nacl/lib/../lib64/libstdc++.a(functexcept.o)
                0x000000000004cdc0                _ZNSt12length_errorD1Ev
 .text._ZNSt12length_errorD0Ev
                0x000000000004cde0       0x40 /Users/stevefar/nacl_sdk/pepper_45/toolchain/mac_x86_newlib/bin/../lib/gcc/x86_64-nacl/4.4.3/../../../../x86_64-nacl/lib/../lib64/libstdc++.a(functexcept.o)
                0x000000000004cde0                _ZNSt12length_errorD0Ev
 .text._ZNSt16invalid_argumentD1Ev
                0x000000000004ce20       0x20 /Users/stevefar/nacl_sdk/pepper_45/toolchain/mac_x86_newlib/bin/../lib/gcc/x86_64-nacl/4.4.3/../../../../x86_64-nacl/lib/../lib64/libstdc++.a(functexcept.o)
                0x000000000004ce20                _ZNSt16invalid_argumentD1Ev
 .text._ZNSt16invalid_argumentD0Ev
                0x000000000004ce40       0x40 /Users/stevefar/nacl_sdk/pepper_45/toolchain/mac_x86_newlib/bin/../lib/gcc/x86_64-nacl/4.4.3/../../../../x86_64-nacl/lib/../lib64/libstdc++.a(functexcept.o)
                0x000000000004ce40                _ZNSt16invalid_argumentD0Ev
 .text._ZNSt12domain_errorD1Ev
                0x000000000004ce80       0x20 /Users/stevefar/nacl_sdk/pepper_45/toolchain/mac_x86_newlib/bin/../lib/gcc/x86_64-nacl/4.4.3/../../../../x86_64-nacl/lib/../lib64/libstdc++.a(functexcept.o)
                0x000000000004ce80                _ZNSt12domain_errorD1Ev
 .text._ZNSt12domain_errorD0Ev
                0x000000000004cea0       0x40 /Users/stevefar/nacl_sdk/pepper_45/toolchain/mac_x86_newlib/bin/../lib/gcc/x86_64-nacl/4.4.3/../../../../x86_64-nacl/lib/../lib64/libstdc++.a(functexcept.o)
                0x000000000004cea0                _ZNSt12domain_errorD0Ev
 .text._ZSt20__throw_system_errori
                0x000000000004cee0      0x1e0 /Users/stevefar/nacl_sdk/pepper_45/toolchain/mac_x86_newlib/bin/../lib/gcc/x86_64-nacl/4.4.3/../../../../x86_64-nacl/lib/../lib64/libstdc++.a(functexcept.o)
                0x000000000004cee0                _ZSt20__throw_system_errori
 .text._ZSt19__throw_ios_failurePKc
                0x000000000004d0c0      0x140 /Users/stevefar/nacl_sdk/pepper_45/toolchain/mac_x86_newlib/bin/../lib/gcc/x86_64-nacl/4.4.3/../../../../x86_64-nacl/lib/../lib64/libstdc++.a(functexcept.o)
                0x000000000004d0c0                _ZSt19__throw_ios_failurePKc
 .text._ZSt23__throw_underflow_errorPKc
                0x000000000004d200      0x1e0 /Users/stevefar/nacl_sdk/pepper_45/toolchain/mac_x86_newlib/bin/../lib/gcc/x86_64-nacl/4.4.3/../../../../x86_64-nacl/lib/../lib64/libstdc++.a(functexcept.o)
                0x000000000004d200                _ZSt23__throw_underflow_errorPKc
 .text._ZSt22__throw_overflow_errorPKc
                0x000000000004d3e0      0x1e0 /Users/stevefar/nacl_sdk/pepper_45/toolchain/mac_x86_newlib/bin/../lib/gcc/x86_64-nacl/4.4.3/../../../../x86_64-nacl/lib/../lib64/libstdc++.a(functexcept.o)
                0x000000000004d3e0                _ZSt22__throw_overflow_errorPKc
 .text._ZSt19__throw_range_errorPKc
                0x000000000004d5c0      0x1e0 /Users/stevefar/nacl_sdk/pepper_45/toolchain/mac_x86_newlib/bin/../lib/gcc/x86_64-nacl/4.4.3/../../../../x86_64-nacl/lib/../lib64/libstdc++.a(functexcept.o)
                0x000000000004d5c0                _ZSt19__throw_range_errorPKc
 .text._ZSt21__throw_runtime_errorPKc
                0x000000000004d7a0      0x1e0 /Users/stevefar/nacl_sdk/pepper_45/toolchain/mac_x86_newlib/bin/../lib/gcc/x86_64-nacl/4.4.3/../../../../x86_64-nacl/lib/../lib64/libstdc++.a(functexcept.o)
                0x000000000004d7a0                _ZSt21__throw_runtime_errorPKc
 .text._ZSt20__throw_out_of_rangePKc
                0x000000000004d980      0x1e0 /Users/stevefar/nacl_sdk/pepper_45/toolchain/mac_x86_newlib/bin/../lib/gcc/x86_64-nacl/4.4.3/../../../../x86_64-nacl/lib/../lib64/libstdc++.a(functexcept.o)
                0x000000000004d980                _ZSt20__throw_out_of_rangePKc
 .text._ZSt20__throw_length_errorPKc
                0x000000000004db60      0x1e0 /Users/stevefar/nacl_sdk/pepper_45/toolchain/mac_x86_newlib/bin/../lib/gcc/x86_64-nacl/4.4.3/../../../../x86_64-nacl/lib/../lib64/libstdc++.a(functexcept.o)
                0x000000000004db60                _ZSt20__throw_length_errorPKc
 .text._ZSt24__throw_invalid_argumentPKc
                0x000000000004dd40      0x1e0 /Users/stevefar/nacl_sdk/pepper_45/toolchain/mac_x86_newlib/bin/../lib/gcc/x86_64-nacl/4.4.3/../../../../x86_64-nacl/lib/../lib64/libstdc++.a(functexcept.o)
                0x000000000004dd40                _ZSt24__throw_invalid_argumentPKc
 .text._ZSt20__throw_domain_errorPKc
                0x000000000004df20      0x1e0 /Users/stevefar/nacl_sdk/pepper_45/toolchain/mac_x86_newlib/bin/../lib/gcc/x86_64-nacl/4.4.3/../../../../x86_64-nacl/lib/../lib64/libstdc++.a(functexcept.o)
                0x000000000004df20                _ZSt20__throw_domain_errorPKc
 .text._ZSt19__throw_logic_errorPKc
                0x000000000004e100      0x1e0 /Users/stevefar/nacl_sdk/pepper_45/toolchain/mac_x86_newlib/bin/../lib/gcc/x86_64-nacl/4.4.3/../../../../x86_64-nacl/lib/../lib64/libstdc++.a(functexcept.o)
                0x000000000004e100                _ZSt19__throw_logic_errorPKc
 .text          0x000000000004e2e0        0x0 /Users/stevefar/nacl_sdk/pepper_45/toolchain/mac_x86_newlib/bin/../lib/gcc/x86_64-nacl/4.4.3/../../../../x86_64-nacl/lib/../lib64/libstdc++.a(ios_failure.o)
 .text._ZNKSt8ios_base7failure4whatEv
                0x000000000004e2e0       0x20 /Users/stevefar/nacl_sdk/pepper_45/toolchain/mac_x86_newlib/bin/../lib/gcc/x86_64-nacl/4.4.3/../../../../x86_64-nacl/lib/../lib64/libstdc++.a(ios_failure.o)
                0x000000000004e2e0                _ZNKSt8ios_base7failure4whatEv
 .text._ZNSt8ios_base7failureC1ERKSs
                0x000000000004e300       0xa0 /Users/stevefar/nacl_sdk/pepper_45/toolchain/mac_x86_newlib/bin/../lib/gcc/x86_64-nacl/4.4.3/../../../../x86_64-nacl/lib/../lib64/libstdc++.a(ios_failure.o)
                0x000000000004e300                _ZNSt8ios_base7failureC1ERKSs
 .text._ZNSt8ios_base7failureC2ERKSs
                0x000000000004e3a0       0xa0 /Users/stevefar/nacl_sdk/pepper_45/toolchain/mac_x86_newlib/bin/../lib/gcc/x86_64-nacl/4.4.3/../../../../x86_64-nacl/lib/../lib64/libstdc++.a(ios_failure.o)
                0x000000000004e3a0                _ZNSt8ios_base7failureC2ERKSs
 .text._ZNSt8ios_base7failureD0Ev
                0x000000000004e440      0x120 /Users/stevefar/nacl_sdk/pepper_45/toolchain/mac_x86_newlib/bin/../lib/gcc/x86_64-nacl/4.4.3/../../../../x86_64-nacl/lib/../lib64/libstdc++.a(ios_failure.o)
                0x000000000004e440                _ZNSt8ios_base7failureD0Ev
 .text._ZNSt8ios_base7failureD1Ev
                0x000000000004e560      0x100 /Users/stevefar/nacl_sdk/pepper_45/toolchain/mac_x86_newlib/bin/../lib/gcc/x86_64-nacl/4.4.3/../../../../x86_64-nacl/lib/../lib64/libstdc++.a(ios_failure.o)
                0x000000000004e560                _ZNSt8ios_base7failureD1Ev
 .text._ZNSt8ios_base7failureD2Ev
                0x000000000004e660      0x100 /Users/stevefar/nacl_sdk/pepper_45/toolchain/mac_x86_newlib/bin/../lib/gcc/x86_64-nacl/4.4.3/../../../../x86_64-nacl/lib/../lib64/libstdc++.a(ios_failure.o)
                0x000000000004e660                _ZNSt8ios_base7failureD2Ev
 .text          0x000000000004e760        0x0 /Users/stevefar/nacl_sdk/pepper_45/toolchain/mac_x86_newlib/bin/../lib/gcc/x86_64-nacl/4.4.3/../../../../x86_64-nacl/lib/../lib64/libstdc++.a(stdexcept.o)
 .text._ZNKSt11logic_error4whatEv
                0x000000000004e760       0x20 /Users/stevefar/nacl_sdk/pepper_45/toolchain/mac_x86_newlib/bin/../lib/gcc/x86_64-nacl/4.4.3/../../../../x86_64-nacl/lib/../lib64/libstdc++.a(stdexcept.o)
                0x000000000004e760                _ZNKSt11logic_error4whatEv
 .text._ZNKSt13runtime_error4whatEv
                0x000000000004e780       0x20 /Users/stevefar/nacl_sdk/pepper_45/toolchain/mac_x86_newlib/bin/../lib/gcc/x86_64-nacl/4.4.3/../../../../x86_64-nacl/lib/../lib64/libstdc++.a(stdexcept.o)
                0x000000000004e780                _ZNKSt13runtime_error4whatEv
 .text._ZNSt13runtime_errorC1ERKSs
                0x000000000004e7a0       0x80 /Users/stevefar/nacl_sdk/pepper_45/toolchain/mac_x86_newlib/bin/../lib/gcc/x86_64-nacl/4.4.3/../../../../x86_64-nacl/lib/../lib64/libstdc++.a(stdexcept.o)
                0x000000000004e7a0                _ZNSt13runtime_errorC1ERKSs
 .text._ZNSt13runtime_errorC2ERKSs
                0x000000000004e820       0x80 /Users/stevefar/nacl_sdk/pepper_45/toolchain/mac_x86_newlib/bin/../lib/gcc/x86_64-nacl/4.4.3/../../../../x86_64-nacl/lib/../lib64/libstdc++.a(stdexcept.o)
                0x000000000004e820                _ZNSt13runtime_errorC2ERKSs
 .text._ZNSt15underflow_errorC1ERKSs
                0x000000000004e8a0       0x40 /Users/stevefar/nacl_sdk/pepper_45/toolchain/mac_x86_newlib/bin/../lib/gcc/x86_64-nacl/4.4.3/../../../../x86_64-nacl/lib/../lib64/libstdc++.a(stdexcept.o)
                0x000000000004e8a0                _ZNSt15underflow_errorC1ERKSs
 .text._ZNSt15underflow_errorC2ERKSs
                0x000000000004e8e0       0x40 /Users/stevefar/nacl_sdk/pepper_45/toolchain/mac_x86_newlib/bin/../lib/gcc/x86_64-nacl/4.4.3/../../../../x86_64-nacl/lib/../lib64/libstdc++.a(stdexcept.o)
                0x000000000004e8e0                _ZNSt15underflow_errorC2ERKSs
 .text._ZNSt14overflow_errorC1ERKSs
                0x000000000004e920       0x40 /Users/stevefar/nacl_sdk/pepper_45/toolchain/mac_x86_newlib/bin/../lib/gcc/x86_64-nacl/4.4.3/../../../../x86_64-nacl/lib/../lib64/libstdc++.a(stdexcept.o)
                0x000000000004e920                _ZNSt14overflow_errorC1ERKSs
 .text._ZNSt14overflow_errorC2ERKSs
                0x000000000004e960       0x40 /Users/stevefar/nacl_sdk/pepper_45/toolchain/mac_x86_newlib/bin/../lib/gcc/x86_64-nacl/4.4.3/../../../../x86_64-nacl/lib/../lib64/libstdc++.a(stdexcept.o)
                0x000000000004e960                _ZNSt14overflow_errorC2ERKSs
 .text._ZNSt11range_errorC1ERKSs
                0x000000000004e9a0       0x40 /Users/stevefar/nacl_sdk/pepper_45/toolchain/mac_x86_newlib/bin/../lib/gcc/x86_64-nacl/4.4.3/../../../../x86_64-nacl/lib/../lib64/libstdc++.a(stdexcept.o)
                0x000000000004e9a0                _ZNSt11range_errorC1ERKSs
 .text._ZNSt11range_errorC2ERKSs
                0x000000000004e9e0       0x40 /Users/stevefar/nacl_sdk/pepper_45/toolchain/mac_x86_newlib/bin/../lib/gcc/x86_64-nacl/4.4.3/../../../../x86_64-nacl/lib/../lib64/libstdc++.a(stdexcept.o)
                0x000000000004e9e0                _ZNSt11range_errorC2ERKSs
 .text._ZNSt11logic_errorC1ERKSs
                0x000000000004ea20       0x80 /Users/stevefar/nacl_sdk/pepper_45/toolchain/mac_x86_newlib/bin/../lib/gcc/x86_64-nacl/4.4.3/../../../../x86_64-nacl/lib/../lib64/libstdc++.a(stdexcept.o)
                0x000000000004ea20                _ZNSt11logic_errorC1ERKSs
 .text._ZNSt11logic_errorC2ERKSs
                0x000000000004eaa0       0x80 /Users/stevefar/nacl_sdk/pepper_45/toolchain/mac_x86_newlib/bin/../lib/gcc/x86_64-nacl/4.4.3/../../../../x86_64-nacl/lib/../lib64/libstdc++.a(stdexcept.o)
                0x000000000004eaa0                _ZNSt11logic_errorC2ERKSs
 .text._ZNSt12out_of_rangeC1ERKSs
                0x000000000004eb20       0x40 /Users/stevefar/nacl_sdk/pepper_45/toolchain/mac_x86_newlib/bin/../lib/gcc/x86_64-nacl/4.4.3/../../../../x86_64-nacl/lib/../lib64/libstdc++.a(stdexcept.o)
                0x000000000004eb20                _ZNSt12out_of_rangeC1ERKSs
 .text._ZNSt12out_of_rangeC2ERKSs
                0x000000000004eb60       0x40 /Users/stevefar/nacl_sdk/pepper_45/toolchain/mac_x86_newlib/bin/../lib/gcc/x86_64-nacl/4.4.3/../../../../x86_64-nacl/lib/../lib64/libstdc++.a(stdexcept.o)
                0x000000000004eb60                _ZNSt12out_of_rangeC2ERKSs
 .text._ZNSt12length_errorC1ERKSs
                0x000000000004eba0       0x40 /Users/stevefar/nacl_sdk/pepper_45/toolchain/mac_x86_newlib/bin/../lib/gcc/x86_64-nacl/4.4.3/../../../../x86_64-nacl/lib/../lib64/libstdc++.a(stdexcept.o)
                0x000000000004eba0                _ZNSt12length_errorC1ERKSs
 .text._ZNSt12length_errorC2ERKSs
                0x000000000004ebe0       0x40 /Users/stevefar/nacl_sdk/pepper_45/toolchain/mac_x86_newlib/bin/../lib/gcc/x86_64-nacl/4.4.3/../../../../x86_64-nacl/lib/../lib64/libstdc++.a(stdexcept.o)
                0x000000000004ebe0                _ZNSt12length_errorC2ERKSs
 .text._ZNSt16invalid_argumentC1ERKSs
                0x000000000004ec20       0x40 /Users/stevefar/nacl_sdk/pepper_45/toolchain/mac_x86_newlib/bin/../lib/gcc/x86_64-nacl/4.4.3/../../../../x86_64-nacl/lib/../lib64/libstdc++.a(stdexcept.o)
                0x000000000004ec20                _ZNSt16invalid_argumentC1ERKSs
 .text._ZNSt16invalid_argumentC2ERKSs
                0x000000000004ec60       0x40 /Users/stevefar/nacl_sdk/pepper_45/toolchain/mac_x86_newlib/bin/../lib/gcc/x86_64-nacl/4.4.3/../../../../x86_64-nacl/lib/../lib64/libstdc++.a(stdexcept.o)
                0x000000000004ec60                _ZNSt16invalid_argumentC2ERKSs
 .text._ZNSt12domain_errorC1ERKSs
                0x000000000004eca0       0x40 /Users/stevefar/nacl_sdk/pepper_45/toolchain/mac_x86_newlib/bin/../lib/gcc/x86_64-nacl/4.4.3/../../../../x86_64-nacl/lib/../lib64/libstdc++.a(stdexcept.o)
                0x000000000004eca0                _ZNSt12domain_errorC1ERKSs
 .text._ZNSt12domain_errorC2ERKSs
                0x000000000004ece0       0x40 /Users/stevefar/nacl_sdk/pepper_45/toolchain/mac_x86_newlib/bin/../lib/gcc/x86_64-nacl/4.4.3/../../../../x86_64-nacl/lib/../lib64/libstdc++.a(stdexcept.o)
                0x000000000004ece0                _ZNSt12domain_errorC2ERKSs
 .text._ZNSt13runtime_errorD2Ev
                0x000000000004ed20      0x100 /Users/stevefar/nacl_sdk/pepper_45/toolchain/mac_x86_newlib/bin/../lib/gcc/x86_64-nacl/4.4.3/../../../../x86_64-nacl/lib/../lib64/libstdc++.a(stdexcept.o)
                0x000000000004ed20                _ZNSt13runtime_errorD2Ev
 .text._ZNSt11logic_errorD1Ev
                0x000000000004ee20      0x100 /Users/stevefar/nacl_sdk/pepper_45/toolchain/mac_x86_newlib/bin/../lib/gcc/x86_64-nacl/4.4.3/../../../../x86_64-nacl/lib/../lib64/libstdc++.a(stdexcept.o)
                0x000000000004ee20                _ZNSt11logic_errorD1Ev
 .text._ZNSt11logic_errorD2Ev
                0x000000000004ef20      0x100 /Users/stevefar/nacl_sdk/pepper_45/toolchain/mac_x86_newlib/bin/../lib/gcc/x86_64-nacl/4.4.3/../../../../x86_64-nacl/lib/../lib64/libstdc++.a(stdexcept.o)
                0x000000000004ef20                _ZNSt11logic_errorD2Ev
 .text._ZNSt13runtime_errorD0Ev
                0x000000000004f020      0x120 /Users/stevefar/nacl_sdk/pepper_45/toolchain/mac_x86_newlib/bin/../lib/gcc/x86_64-nacl/4.4.3/../../../../x86_64-nacl/lib/../lib64/libstdc++.a(stdexcept.o)
                0x000000000004f020                _ZNSt13runtime_errorD0Ev
 .text._ZNSt13runtime_errorD1Ev
                0x000000000004f140      0x100 /Users/stevefar/nacl_sdk/pepper_45/toolchain/mac_x86_newlib/bin/../lib/gcc/x86_64-nacl/4.4.3/../../../../x86_64-nacl/lib/../lib64/libstdc++.a(stdexcept.o)
                0x000000000004f140                _ZNSt13runtime_errorD1Ev
 .text._ZNSt11logic_errorD0Ev
                0x000000000004f240      0x120 /Users/stevefar/nacl_sdk/pepper_45/toolchain/mac_x86_newlib/bin/../lib/gcc/x86_64-nacl/4.4.3/../../../../x86_64-nacl/lib/../lib64/libstdc++.a(stdexcept.o)
                0x000000000004f240                _ZNSt11logic_errorD0Ev
 .text          0x000000000004f360        0x0 /Users/stevefar/nacl_sdk/pepper_45/toolchain/mac_x86_newlib/bin/../lib/gcc/x86_64-nacl/4.4.3/../../../../x86_64-nacl/lib/../lib64/libstdc++.a(system_error.o)
 .text._ZNSt14error_categoryD1Ev
                0x000000000004f360       0x20 /Users/stevefar/nacl_sdk/pepper_45/toolchain/mac_x86_newlib/bin/../lib/gcc/x86_64-nacl/4.4.3/../../../../x86_64-nacl/lib/../lib64/libstdc++.a(system_error.o)
                0x000000000004f360                _ZNSt14error_categoryD1Ev
 .text._ZNK12_GLOBAL__N_122generic_error_category4nameEv
                0x000000000004f380       0x20 /Users/stevefar/nacl_sdk/pepper_45/toolchain/mac_x86_newlib/bin/../lib/gcc/x86_64-nacl/4.4.3/../../../../x86_64-nacl/lib/../lib64/libstdc++.a(system_error.o)
 .text._ZNK12_GLOBAL__N_121system_error_category4nameEv
                0x000000000004f3a0       0x20 /Users/stevefar/nacl_sdk/pepper_45/toolchain/mac_x86_newlib/bin/../lib/gcc/x86_64-nacl/4.4.3/../../../../x86_64-nacl/lib/../lib64/libstdc++.a(system_error.o)
 .text._ZSt15system_categoryv
                0x000000000004f3c0       0x20 /Users/stevefar/nacl_sdk/pepper_45/toolchain/mac_x86_newlib/bin/../lib/gcc/x86_64-nacl/4.4.3/../../../../x86_64-nacl/lib/../lib64/libstdc++.a(system_error.o)
                0x000000000004f3c0                _ZSt15system_categoryv
 .text._ZSt16generic_categoryv
                0x000000000004f3e0       0x20 /Users/stevefar/nacl_sdk/pepper_45/toolchain/mac_x86_newlib/bin/../lib/gcc/x86_64-nacl/4.4.3/../../../../x86_64-nacl/lib/../lib64/libstdc++.a(system_error.o)
                0x000000000004f3e0                _ZSt16generic_categoryv
 .text._ZNKSt14error_category23default_error_conditionEi
                0x000000000004f400       0x20 /Users/stevefar/nacl_sdk/pepper_45/toolchain/mac_x86_newlib/bin/../lib/gcc/x86_64-nacl/4.4.3/../../../../x86_64-nacl/lib/../lib64/libstdc++.a(system_error.o)
                0x000000000004f400                _ZNKSt14error_category23default_error_conditionEi
 .text._ZNKSt14error_category10equivalentEiRKSt15error_condition
                0x000000000004f420       0x80 /Users/stevefar/nacl_sdk/pepper_45/toolchain/mac_x86_newlib/bin/../lib/gcc/x86_64-nacl/4.4.3/../../../../x86_64-nacl/lib/../lib64/libstdc++.a(system_error.o)
                0x000000000004f420                _ZNKSt14error_category10equivalentEiRKSt15error_condition
 .text._ZNKSt14error_category10equivalentERKSt10error_codei
                0x000000000004f4a0       0x40 /Users/stevefar/nacl_sdk/pepper_45/toolchain/mac_x86_newlib/bin/../lib/gcc/x86_64-nacl/4.4.3/../../../../x86_64-nacl/lib/../lib64/libstdc++.a(system_error.o)
                0x000000000004f4a0                _ZNKSt14error_category10equivalentERKSt10error_codei
 .text._ZNKSt10error_code23default_error_conditionEv
                0x000000000004f4e0       0x60 /Users/stevefar/nacl_sdk/pepper_45/toolchain/mac_x86_newlib/bin/../lib/gcc/x86_64-nacl/4.4.3/../../../../x86_64-nacl/lib/../lib64/libstdc++.a(system_error.o)
                0x000000000004f4e0                _ZNKSt10error_code23default_error_conditionEv
 .text._ZN12_GLOBAL__N_122generic_error_categoryD1Ev
                0x000000000004f540       0x20 /Users/stevefar/nacl_sdk/pepper_45/toolchain/mac_x86_newlib/bin/../lib/gcc/x86_64-nacl/4.4.3/../../../../x86_64-nacl/lib/../lib64/libstdc++.a(system_error.o)
 .text._ZN12_GLOBAL__N_121system_error_categoryD1Ev
                0x000000000004f560       0x20 /Users/stevefar/nacl_sdk/pepper_45/toolchain/mac_x86_newlib/bin/../lib/gcc/x86_64-nacl/4.4.3/../../../../x86_64-nacl/lib/../lib64/libstdc++.a(system_error.o)
 .text._ZNSt14error_categoryD0Ev
                0x000000000004f580       0x20 /Users/stevefar/nacl_sdk/pepper_45/toolchain/mac_x86_newlib/bin/../lib/gcc/x86_64-nacl/4.4.3/../../../../x86_64-nacl/lib/../lib64/libstdc++.a(system_error.o)
                0x000000000004f580                _ZNSt14error_categoryD0Ev
 .text._ZN12_GLOBAL__N_122generic_error_categoryD0Ev
                0x000000000004f5a0       0x20 /Users/stevefar/nacl_sdk/pepper_45/toolchain/mac_x86_newlib/bin/../lib/gcc/x86_64-nacl/4.4.3/../../../../x86_64-nacl/lib/../lib64/libstdc++.a(system_error.o)
 .text._ZN12_GLOBAL__N_121system_error_categoryD0Ev
                0x000000000004f5c0       0x20 /Users/stevefar/nacl_sdk/pepper_45/toolchain/mac_x86_newlib/bin/../lib/gcc/x86_64-nacl/4.4.3/../../../../x86_64-nacl/lib/../lib64/libstdc++.a(system_error.o)
 .text._GLOBAL__I__ZSt15system_categoryv
                0x000000000004f5e0       0x80 /Users/stevefar/nacl_sdk/pepper_45/toolchain/mac_x86_newlib/bin/../lib/gcc/x86_64-nacl/4.4.3/../../../../x86_64-nacl/lib/../lib64/libstdc++.a(system_error.o)
 .text._ZNK12_GLOBAL__N_122generic_error_category7messageEi
                0x000000000004f660       0x80 /Users/stevefar/nacl_sdk/pepper_45/toolchain/mac_x86_newlib/bin/../lib/gcc/x86_64-nacl/4.4.3/../../../../x86_64-nacl/lib/../lib64/libstdc++.a(system_error.o)
 .text._ZNK12_GLOBAL__N_121system_error_category7messageEi
                0x000000000004f6e0       0x80 /Users/stevefar/nacl_sdk/pepper_45/toolchain/mac_x86_newlib/bin/../lib/gcc/x86_64-nacl/4.4.3/../../../../x86_64-nacl/lib/../lib64/libstdc++.a(system_error.o)
 .text._ZNSt12system_errorD0Ev
                0x000000000004f760       0x40 /Users/stevefar/nacl_sdk/pepper_45/toolchain/mac_x86_newlib/bin/../lib/gcc/x86_64-nacl/4.4.3/../../../../x86_64-nacl/lib/../lib64/libstdc++.a(system_error.o)
                0x000000000004f760                _ZNSt12system_errorD0Ev
 .text._ZNSt12system_errorD1Ev
                0x000000000004f7a0       0x20 /Users/stevefar/nacl_sdk/pepper_45/toolchain/mac_x86_newlib/bin/../lib/gcc/x86_64-nacl/4.4.3/../../../../x86_64-nacl/lib/../lib64/libstdc++.a(system_error.o)
                0x000000000004f7a0                _ZNSt12system_errorD1Ev
 .text._ZNSt12system_errorD2Ev
                0x000000000004f7c0       0x20 /Users/stevefar/nacl_sdk/pepper_45/toolchain/mac_x86_newlib/bin/../lib/gcc/x86_64-nacl/4.4.3/../../../../x86_64-nacl/lib/../lib64/libstdc++.a(system_error.o)
                0x000000000004f7c0                _ZNSt12system_errorD2Ev
 .text          0x000000000004f7e0        0x0 /Users/stevefar/nacl_sdk/pepper_45/toolchain/mac_x86_newlib/bin/../lib/gcc/x86_64-nacl/4.4.3/../../../../x86_64-nacl/lib/../lib64/libstdc++.a(bad_cast.o)
 .text._ZNKSt8bad_cast4whatEv
                0x000000000004f7e0       0x20 /Users/stevefar/nacl_sdk/pepper_45/toolchain/mac_x86_newlib/bin/../lib/gcc/x86_64-nacl/4.4.3/../../../../x86_64-nacl/lib/../lib64/libstdc++.a(bad_cast.o)
                0x000000000004f7e0                _ZNKSt8bad_cast4whatEv
 .text._ZNSt8bad_castD1Ev
                0x000000000004f800       0x20 /Users/stevefar/nacl_sdk/pepper_45/toolchain/mac_x86_newlib/bin/../lib/gcc/x86_64-nacl/4.4.3/../../../../x86_64-nacl/lib/../lib64/libstdc++.a(bad_cast.o)
                0x000000000004f800                _ZNSt8bad_castD1Ev
 .text._ZNSt8bad_castD2Ev
                0x000000000004f820       0x20 /Users/stevefar/nacl_sdk/pepper_45/toolchain/mac_x86_newlib/bin/../lib/gcc/x86_64-nacl/4.4.3/../../../../x86_64-nacl/lib/../lib64/libstdc++.a(bad_cast.o)
                0x000000000004f820                _ZNSt8bad_castD2Ev
 .text._ZNSt8bad_castD0Ev
                0x000000000004f840       0x40 /Users/stevefar/nacl_sdk/pepper_45/toolchain/mac_x86_newlib/bin/../lib/gcc/x86_64-nacl/4.4.3/../../../../x86_64-nacl/lib/../lib64/libstdc++.a(bad_cast.o)
                0x000000000004f840                _ZNSt8bad_castD0Ev
 .text          0x000000000004f880        0x0 /Users/stevefar/nacl_sdk/pepper_45/toolchain/mac_x86_newlib/bin/../lib/gcc/x86_64-nacl/4.4.3/../../../../x86_64-nacl/lib/../lib64/libstdc++.a(bad_typeid.o)
 .text._ZNKSt10bad_typeid4whatEv
                0x000000000004f880       0x20 /Users/stevefar/nacl_sdk/pepper_45/toolchain/mac_x86_newlib/bin/../lib/gcc/x86_64-nacl/4.4.3/../../../../x86_64-nacl/lib/../lib64/libstdc++.a(bad_typeid.o)
                0x000000000004f880                _ZNKSt10bad_typeid4whatEv
 .text._ZNSt10bad_typeidD1Ev
                0x000000000004f8a0       0x20 /Users/stevefar/nacl_sdk/pepper_45/toolchain/mac_x86_newlib/bin/../lib/gcc/x86_64-nacl/4.4.3/../../../../x86_64-nacl/lib/../lib64/libstdc++.a(bad_typeid.o)
                0x000000000004f8a0                _ZNSt10bad_typeidD1Ev
 .text._ZNSt10bad_typeidD2Ev
                0x000000000004f8c0       0x20 /Users/stevefar/nacl_sdk/pepper_45/toolchain/mac_x86_newlib/bin/../lib/gcc/x86_64-nacl/4.4.3/../../../../x86_64-nacl/lib/../lib64/libstdc++.a(bad_typeid.o)
                0x000000000004f8c0                _ZNSt10bad_typeidD2Ev
 .text._ZNSt10bad_typeidD0Ev
                0x000000000004f8e0       0x40 /Users/stevefar/nacl_sdk/pepper_45/toolchain/mac_x86_newlib/bin/../lib/gcc/x86_64-nacl/4.4.3/../../../../x86_64-nacl/lib/../lib64/libstdc++.a(bad_typeid.o)
                0x000000000004f8e0                _ZNSt10bad_typeidD0Ev
 .text          0x000000000004f920        0x0 /Users/stevefar/nacl_sdk/pepper_45/toolchain/mac_x86_newlib/bin/../lib/gcc/x86_64-nacl/4.4.3/../../../../x86_64-nacl/lib/../lib64/libstdc++.a(eh_alloc.o)
 .text._GLOBAL__I___cxa_allocate_exception
                0x000000000004f920       0x80 /Users/stevefar/nacl_sdk/pepper_45/toolchain/mac_x86_newlib/bin/../lib/gcc/x86_64-nacl/4.4.3/../../../../x86_64-nacl/lib/../lib64/libstdc++.a(eh_alloc.o)
 .text._ZN9__gnu_cxx13__scoped_lockD1Ev
                0x000000000004f9a0       0xe0 /Users/stevefar/nacl_sdk/pepper_45/toolchain/mac_x86_newlib/bin/../lib/gcc/x86_64-nacl/4.4.3/../../../../x86_64-nacl/lib/../lib64/libstdc++.a(eh_alloc.o)
                0x000000000004f9a0                _ZN9__gnu_cxx13__scoped_lockD1Ev
 .text.__cxa_free_dependent_exception
                0x000000000004fa80      0x200 /Users/stevefar/nacl_sdk/pepper_45/toolchain/mac_x86_newlib/bin/../lib/gcc/x86_64-nacl/4.4.3/../../../../x86_64-nacl/lib/../lib64/libstdc++.a(eh_alloc.o)
                0x000000000004fa80                __cxa_free_dependent_exception
 .text.__cxa_free_exception
                0x000000000004fc80      0x1e0 /Users/stevefar/nacl_sdk/pepper_45/toolchain/mac_x86_newlib/bin/../lib/gcc/x86_64-nacl/4.4.3/../../../../x86_64-nacl/lib/../lib64/libstdc++.a(eh_alloc.o)
                0x000000000004fc80                __cxa_free_exception
 .text.__cxa_allocate_exception
                0x000000000004fe60      0x440 /Users/stevefar/nacl_sdk/pepper_45/toolchain/mac_x86_newlib/bin/../lib/gcc/x86_64-nacl/4.4.3/../../../../x86_64-nacl/lib/../lib64/libstdc++.a(eh_alloc.o)
                0x000000000004fe60                __cxa_allocate_exception
 .text.__cxa_allocate_dependent_exception
                0x00000000000502a0      0x2c0 /Users/stevefar/nacl_sdk/pepper_45/toolchain/mac_x86_newlib/bin/../lib/gcc/x86_64-nacl/4.4.3/../../../../x86_64-nacl/lib/../lib64/libstdc++.a(eh_alloc.o)
                0x00000000000502a0                __cxa_allocate_dependent_exception
 .text          0x0000000000050560        0x0 /Users/stevefar/nacl_sdk/pepper_45/toolchain/mac_x86_newlib/bin/../lib/gcc/x86_64-nacl/4.4.3/../../../../x86_64-nacl/lib/../lib64/libstdc++.a(eh_call.o)
 .text.__cxa_call_terminate
                0x0000000000050560       0x80 /Users/stevefar/nacl_sdk/pepper_45/toolchain/mac_x86_newlib/bin/../lib/gcc/x86_64-nacl/4.4.3/../../../../x86_64-nacl/lib/../lib64/libstdc++.a(eh_call.o)
                0x0000000000050560                __cxa_call_terminate
 .text          0x00000000000505e0        0x0 /Users/stevefar/nacl_sdk/pepper_45/toolchain/mac_x86_newlib/bin/../lib/gcc/x86_64-nacl/4.4.3/../../../../x86_64-nacl/lib/../lib64/libstdc++.a(eh_exception.o)
 .text._ZNSt9exceptionD2Ev
                0x00000000000505e0       0x20 /Users/stevefar/nacl_sdk/pepper_45/toolchain/mac_x86_newlib/bin/../lib/gcc/x86_64-nacl/4.4.3/../../../../x86_64-nacl/lib/../lib64/libstdc++.a(eh_exception.o)
                0x00000000000505e0                _ZNSt9exceptionD2Ev
 .text._ZNSt9exceptionD1Ev
                0x0000000000050600       0x20 /Users/stevefar/nacl_sdk/pepper_45/toolchain/mac_x86_newlib/bin/../lib/gcc/x86_64-nacl/4.4.3/../../../../x86_64-nacl/lib/../lib64/libstdc++.a(eh_exception.o)
                0x0000000000050600                _ZNSt9exceptionD1Ev
 .text._ZNSt13bad_exceptionD2Ev
                0x0000000000050620       0x20 /Users/stevefar/nacl_sdk/pepper_45/toolchain/mac_x86_newlib/bin/../lib/gcc/x86_64-nacl/4.4.3/../../../../x86_64-nacl/lib/../lib64/libstdc++.a(eh_exception.o)
                0x0000000000050620                _ZNSt13bad_exceptionD2Ev
 .text._ZNSt13bad_exceptionD1Ev
                0x0000000000050640       0x20 /Users/stevefar/nacl_sdk/pepper_45/toolchain/mac_x86_newlib/bin/../lib/gcc/x86_64-nacl/4.4.3/../../../../x86_64-nacl/lib/../lib64/libstdc++.a(eh_exception.o)
                0x0000000000050640                _ZNSt13bad_exceptionD1Ev
 .text._ZN10__cxxabiv115__forced_unwindD2Ev
                0x0000000000050660       0x20 /Users/stevefar/nacl_sdk/pepper_45/toolchain/mac_x86_newlib/bin/../lib/gcc/x86_64-nacl/4.4.3/../../../../x86_64-nacl/lib/../lib64/libstdc++.a(eh_exception.o)
                0x0000000000050660                _ZN10__cxxabiv115__forced_unwindD2Ev
 .text._ZN10__cxxabiv115__forced_unwindD1Ev
                0x0000000000050680       0x20 /Users/stevefar/nacl_sdk/pepper_45/toolchain/mac_x86_newlib/bin/../lib/gcc/x86_64-nacl/4.4.3/../../../../x86_64-nacl/lib/../lib64/libstdc++.a(eh_exception.o)
                0x0000000000050680                _ZN10__cxxabiv115__forced_unwindD1Ev
 .text._ZN10__cxxabiv119__foreign_exceptionD2Ev
                0x00000000000506a0       0x20 /Users/stevefar/nacl_sdk/pepper_45/toolchain/mac_x86_newlib/bin/../lib/gcc/x86_64-nacl/4.4.3/../../../../x86_64-nacl/lib/../lib64/libstdc++.a(eh_exception.o)
                0x00000000000506a0                _ZN10__cxxabiv119__foreign_exceptionD2Ev
 .text._ZN10__cxxabiv119__foreign_exceptionD1Ev
                0x00000000000506c0       0x20 /Users/stevefar/nacl_sdk/pepper_45/toolchain/mac_x86_newlib/bin/../lib/gcc/x86_64-nacl/4.4.3/../../../../x86_64-nacl/lib/../lib64/libstdc++.a(eh_exception.o)
                0x00000000000506c0                _ZN10__cxxabiv119__foreign_exceptionD1Ev
 .text._ZNKSt9exception4whatEv
                0x00000000000506e0       0x20 /Users/stevefar/nacl_sdk/pepper_45/toolchain/mac_x86_newlib/bin/../lib/gcc/x86_64-nacl/4.4.3/../../../../x86_64-nacl/lib/../lib64/libstdc++.a(eh_exception.o)
                0x00000000000506e0                _ZNKSt9exception4whatEv
 .text._ZNKSt13bad_exception4whatEv
                0x0000000000050700       0x20 /Users/stevefar/nacl_sdk/pepper_45/toolchain/mac_x86_newlib/bin/../lib/gcc/x86_64-nacl/4.4.3/../../../../x86_64-nacl/lib/../lib64/libstdc++.a(eh_exception.o)
                0x0000000000050700                _ZNKSt13bad_exception4whatEv
 .text._ZN10__cxxabiv119__foreign_exceptionD0Ev
                0x0000000000050720       0x20 /Users/stevefar/nacl_sdk/pepper_45/toolchain/mac_x86_newlib/bin/../lib/gcc/x86_64-nacl/4.4.3/../../../../x86_64-nacl/lib/../lib64/libstdc++.a(eh_exception.o)
                0x0000000000050720                _ZN10__cxxabiv119__foreign_exceptionD0Ev
 .text._ZN10__cxxabiv115__forced_unwindD0Ev
                0x0000000000050740       0x20 /Users/stevefar/nacl_sdk/pepper_45/toolchain/mac_x86_newlib/bin/../lib/gcc/x86_64-nacl/4.4.3/../../../../x86_64-nacl/lib/../lib64/libstdc++.a(eh_exception.o)
                0x0000000000050740                _ZN10__cxxabiv115__forced_unwindD0Ev
 .text._ZNSt9exceptionD0Ev
                0x0000000000050760       0x20 /Users/stevefar/nacl_sdk/pepper_45/toolchain/mac_x86_newlib/bin/../lib/gcc/x86_64-nacl/4.4.3/../../../../x86_64-nacl/lib/../lib64/libstdc++.a(eh_exception.o)
                0x0000000000050760                _ZNSt9exceptionD0Ev
 .text._ZNSt13bad_exceptionD0Ev
                0x0000000000050780       0x20 /Users/stevefar/nacl_sdk/pepper_45/toolchain/mac_x86_newlib/bin/../lib/gcc/x86_64-nacl/4.4.3/../../../../x86_64-nacl/lib/../lib64/libstdc++.a(eh_exception.o)
                0x0000000000050780                _ZNSt13bad_exceptionD0Ev
 .text          0x00000000000507a0        0x0 /Users/stevefar/nacl_sdk/pepper_45/toolchain/mac_x86_newlib/bin/../lib/gcc/x86_64-nacl/4.4.3/../../../../x86_64-nacl/lib/../lib64/libstdc++.a(eh_term_handler.o)
 .text          0x00000000000507a0        0x0 /Users/stevefar/nacl_sdk/pepper_45/toolchain/mac_x86_newlib/bin/../lib/gcc/x86_64-nacl/4.4.3/../../../../x86_64-nacl/lib/../lib64/libstdc++.a(new_handler.o)
 .text._ZSt15set_new_handlerPFvvE
                0x00000000000507a0       0x20 /Users/stevefar/nacl_sdk/pepper_45/toolchain/mac_x86_newlib/bin/../lib/gcc/x86_64-nacl/4.4.3/../../../../x86_64-nacl/lib/../lib64/libstdc++.a(new_handler.o)
                0x00000000000507a0                _ZSt15set_new_handlerPFvvE
 .text._ZNKSt9bad_alloc4whatEv
                0x00000000000507c0       0x20 /Users/stevefar/nacl_sdk/pepper_45/toolchain/mac_x86_newlib/bin/../lib/gcc/x86_64-nacl/4.4.3/../../../../x86_64-nacl/lib/../lib64/libstdc++.a(new_handler.o)
                0x00000000000507c0                _ZNKSt9bad_alloc4whatEv
 .text._ZNSt9bad_allocD1Ev
                0x00000000000507e0       0x20 /Users/stevefar/nacl_sdk/pepper_45/toolchain/mac_x86_newlib/bin/../lib/gcc/x86_64-nacl/4.4.3/../../../../x86_64-nacl/lib/../lib64/libstdc++.a(new_handler.o)
                0x00000000000507e0                _ZNSt9bad_allocD1Ev
 .text._ZNSt9bad_allocD2Ev
                0x0000000000050800       0x20 /Users/stevefar/nacl_sdk/pepper_45/toolchain/mac_x86_newlib/bin/../lib/gcc/x86_64-nacl/4.4.3/../../../../x86_64-nacl/lib/../lib64/libstdc++.a(new_handler.o)
                0x0000000000050800                _ZNSt9bad_allocD2Ev
 .text._ZNSt9bad_allocD0Ev
                0x0000000000050820       0x40 /Users/stevefar/nacl_sdk/pepper_45/toolchain/mac_x86_newlib/bin/../lib/gcc/x86_64-nacl/4.4.3/../../../../x86_64-nacl/lib/../lib64/libstdc++.a(new_handler.o)
                0x0000000000050820                _ZNSt9bad_allocD0Ev
 .text          0x0000000000050860        0x0 /Users/stevefar/nacl_sdk/pepper_45/toolchain/mac_x86_newlib/bin/../lib/gcc/x86_64-nacl/4.4.3/../../../../x86_64-nacl/lib/../lib64/libstdc++.a(vterminate.o)
 .text._ZN9__gnu_cxx27__verbose_terminate_handlerEv
                0x0000000000050860      0x540 /Users/stevefar/nacl_sdk/pepper_45/toolchain/mac_x86_newlib/bin/../lib/gcc/x86_64-nacl/4.4.3/../../../../x86_64-nacl/lib/../lib64/libstdc++.a(vterminate.o)
                0x0000000000050860                _ZN9__gnu_cxx27__verbose_terminate_handlerEv
 .text          0x0000000000050da0     0x9300 /Users/stevefar/nacl_sdk/pepper_45/toolchain/mac_x86_newlib/bin/../lib/gcc/x86_64-nacl/4.4.3/../../../../x86_64-nacl/lib/../lib64/libstdc++.a(cp-demangle.o)
                0x00000000000593c0                __gcclibcxx_demangle_callback
                0x0000000000059440                __cxa_demangle
 .text          0x000000000005a0a0        0x0 /Users/stevefar/nacl_sdk/pepper_45/toolchain/mac_x86_newlib/bin/../lib/gcc/x86_64-nacl/4.4.3/../../../../x86_64-nacl/lib/../lib64/libstdc++.a(eh_type.o)
 .text.__cxa_current_exception_type
                0x000000000005a0a0       0xa0 /Users/stevefar/nacl_sdk/pepper_45/toolchain/mac_x86_newlib/bin/../lib/gcc/x86_64-nacl/4.4.3/../../../../x86_64-nacl/lib/../lib64/libstdc++.a(eh_type.o)
                0x000000000005a0a0                __cxa_current_exception_type
 .text          0x000000000005a140     0x50a0 /Users/stevefar/nacl_sdk/pepper_45/toolchain/mac_x86_newlib/bin/../lib/gcc/x86_64-nacl/4.4.3/libgcc.a(unwind-dw2.o)
                0x000000000005a1c0                _Unwind_GetCFA
                0x000000000005a1e0                _Unwind_GetIP
                0x000000000005a200                _Unwind_GetIPInfo
                0x000000000005a240                _Unwind_SetIP
                0x000000000005a260                _Unwind_GetLanguageSpecificData
                0x000000000005a280                _Unwind_GetRegionStart
                0x000000000005a2a0                _Unwind_GetDataRelBase
                0x000000000005a2c0                _Unwind_GetTextRelBase
                0x000000000005a2e0                _Unwind_DeleteException
                0x000000000005a320                _Unwind_SetGR
                0x000000000005a420                _Unwind_GetGR
                0x000000000005a6a0                _Unwind_FindEnclosingFunction
                0x000000000005e420                _Unwind_Backtrace
                0x000000000005e780                _Unwind_ForcedUnwind
                0x000000000005ea60                _Unwind_Resume
                0x000000000005ec00                __frame_state_for
                0x000000000005ede0                _Unwind_RaiseException
                0x000000000005f060                _Unwind_Resume_or_Rethrow
 .text          0x000000000005f1e0     0x2800 /Users/stevefar/nacl_sdk/pepper_45/toolchain/mac_x86_newlib/bin/../lib/gcc/x86_64-nacl/4.4.3/libgcc.a(unwind-dw2-fde-glibc.o)
                0x0000000000061140                __deregister_frame_info_bases
                0x00000000000613c0                __deregister_frame_info
                0x00000000000613e0                __deregister_frame
                0x0000000000061460                __register_frame_info_table_bases
                0x0000000000061500                __register_frame_info_table
                0x0000000000061520                __register_frame_table
                0x0000000000061560                _Unwind_Find_FDE
                0x0000000000061880                __register_frame_info_bases
                0x0000000000061960                __register_frame_info
                0x0000000000061980                __register_frame
 .text          0x00000000000619e0       0x40 /Users/stevefar/nacl_sdk/pepper_45/toolchain/mac_x86_newlib/bin/../lib/gcc/x86_64-nacl/4.4.3/../../../../x86_64-nacl/lib/../lib64/libnacl.a(_exit_710c7d0d.o)
                0x00000000000619e0                _exit
 .text          0x0000000000061a20       0x40 /Users/stevefar/nacl_sdk/pepper_45/toolchain/mac_x86_newlib/bin/../lib/gcc/x86_64-nacl/4.4.3/../../../../x86_64-nacl/lib/../lib64/libnacl.a(abort_9f6b5845.o)
                0x0000000000061a20                abort
 .text          0x0000000000061a60        0x0 /Users/stevefar/nacl_sdk/pepper_45/toolchain/mac_x86_newlib/bin/../lib/gcc/x86_64-nacl/4.4.3/../../../../x86_64-nacl/lib/../lib64/libnacl.a(environ_25cd24d8.o)
 .text          0x0000000000061a60     0x6e20 /Users/stevefar/nacl_sdk/pepper_45/toolchain/mac_x86_newlib/bin/../lib/gcc/x86_64-nacl/4.4.3/../../../../x86_64-nacl/lib/../lib64/libnacl.a(malloc_222c4a1e.o)
                0x0000000000061a60                malloc_footprint
                0x0000000000061a80                malloc_max_footprint
                0x0000000000061aa0                malloc_footprint_limit
                0x0000000000061ac0                malloc_set_footprint_limit
                0x0000000000061b00                malloc_usable_size
                0x0000000000061d60                mallopt
                0x0000000000063460                bulk_free
                0x00000000000636e0                malloc_trim
                0x0000000000063800                free
                0x0000000000064520                _free_r
                0x0000000000064540                mallinfo
                0x00000000000648c0                malloc_stats
                0x0000000000064c60                malloc
                0x00000000000671c0                _malloc_r
                0x00000000000671e0                calloc
                0x00000000000672a0                _calloc_r
                0x0000000000067960                realloc
                0x0000000000067c20                _realloc_r
                0x0000000000067c40                realloc_in_place
                0x0000000000068160                memalign
                0x00000000000681a0                pvalloc
                0x00000000000681e0                valloc
                0x0000000000068220                posix_memalign
                0x0000000000068820                independent_calloc
                0x0000000000068860                independent_comalloc
 .text          0x0000000000068880      0x3a0 /Users/stevefar/nacl_sdk/pepper_45/toolchain/mac_x86_newlib/bin/../lib/gcc/x86_64-nacl/4.4.3/../../../../x86_64-nacl/lib/../lib64/libnacl.a(nacl_irt_6de1d53f.o)
                0x0000000000068980                __libnacl_irt_init_fn
                0x0000000000068ae0                __libnacl_irt_query
                0x0000000000068bc0                __libnacl_mandatory_irt_query
 .text          0x0000000000068c20      0x100 /Users/stevefar/nacl_sdk/pepper_45/toolchain/mac_x86_newlib/bin/../lib/gcc/x86_64-nacl/4.4.3/../../../../x86_64-nacl/lib/../lib64/libnacl.a(pthread_initialize_minimal_4b6e776b.o)
                0x0000000000068c20                __pthread_initialize_minimal
 .text          0x0000000000068d20       0x20 /Users/stevefar/nacl_sdk/pepper_45/toolchain/mac_x86_newlib/bin/../lib/gcc/x86_64-nacl/4.4.3/../../../../x86_64-nacl/lib/../lib64/libnacl.a(nacl_read_tp_5748ac47.o)
                0x0000000000068d20                __nacl_read_tp
 .text          0x0000000000068d40       0x40 /Users/stevefar/nacl_sdk/pepper_45/toolchain/mac_x86_newlib/bin/../lib/gcc/x86_64-nacl/4.4.3/../../../../x86_64-nacl/lib/../lib64/libnacl.a(nacl_add_tp_7312c7c4.o)
                0x0000000000068d40                __nacl_add_tp
 .text          0x0000000000068d80       0x80 /Users/stevefar/nacl_sdk/pepper_45/toolchain/mac_x86_newlib/bin/../lib/gcc/x86_64-nacl/4.4.3/../../../../x86_64-nacl/lib/../lib64/libnacl.a(mmap_767fb080.o)
                0x0000000000068d80                mmap
 .text          0x0000000000068e00       0xa0 /Users/stevefar/nacl_sdk/pepper_45/toolchain/mac_x86_newlib/bin/../lib/gcc/x86_64-nacl/4.4.3/../../../../x86_64-nacl/lib/../lib64/libnacl.a(sched_yield_56c375be.o)
                0x0000000000068e00                sched_yield
 .text          0x0000000000068ea0      0x140 /Users/stevefar/nacl_sdk/pepper_45/toolchain/mac_x86_newlib/bin/../lib/gcc/x86_64-nacl/4.4.3/../../../../x86_64-nacl/lib/../lib64/libnacl.a(start_fa9ef7de.o)
                0x0000000000068ea0                _start
 .text          0x0000000000068fe0       0xa0 /Users/stevefar/nacl_sdk/pepper_45/toolchain/mac_x86_newlib/bin/../lib/gcc/x86_64-nacl/4.4.3/../../../../x86_64-nacl/lib/../lib64/libnacl.a(munmap_d4f09867.o)
                0x0000000000068fe0                munmap
 .text          0x0000000000069080      0x480 /Users/stevefar/nacl_sdk/pepper_45/toolchain/mac_x86_newlib/bin/../lib/gcc/x86_64-nacl/4.4.3/../../../../x86_64-nacl/lib/../lib64/libnacl.a(tls_bba1975b.o)
                0x0000000000069320                __nacl_tls_combined_size
                0x00000000000693a0                __nacl_tls_initialize_memory
 .text          0x0000000000069500       0xa0 /Users/stevefar/nacl_sdk/pepper_45/toolchain/mac_x86_newlib/bin/../lib/gcc/x86_64-nacl/4.4.3/../../../../x86_64-nacl/lib/../lib64/libnacl.a(write_fb49787f.o)
                0x0000000000069500                write
 .text          0x00000000000695a0       0x20 /Users/stevefar/nacl_sdk/pepper_45/toolchain/mac_x86_newlib/bin/../lib/gcc/x86_64-nacl/4.4.3/../../../../x86_64-nacl/lib/../lib64/libnacl.a(nacl_tls_get_d2f842b5.o)
                0x00000000000695a0                nacl_tls_get
 .text          0x00000000000695c0      0x260 /Users/stevefar/nacl_sdk/pepper_45/toolchain/mac_x86_newlib/bin/../lib/gcc/x86_64-nacl/4.4.3/../../../../x86_64-nacl/lib/../lib64/libnacl.a(nacl_irt_init_7b4f826e.o)
                0x00000000000695e0                __libnacl_irt_init
 .text          0x0000000000069820       0xa0 /Users/stevefar/nacl_sdk/pepper_45/toolchain/mac_x86_newlib/bin/../lib/gcc/x86_64-nacl/4.4.3/../../../../x86_64-nacl/lib/../lib64/libnacl.a(sysconf_ad295ea2.o)
                0x0000000000069820                sysconf
 .text          0x00000000000698c0       0x20 /Users/stevefar/nacl_sdk/pepper_45/toolchain/mac_x86_newlib/bin/../lib/gcc/x86_64-nacl/4.4.3/../../../../x86_64-nacl/lib/../lib64/libnacl.a(nacl_tls_init_eb0cd232.o)
                0x00000000000698c0                nacl_tls_init
 .text          0x00000000000698e0       0x20 /Users/stevefar/nacl_sdk/pepper_45/toolchain/mac_x86_newlib/bin/../lib/gcc/x86_64-nacl/4.4.3/../../../../x86_64-nacl/lib/../lib64/libcrt_common.a(lib_a-atexit.o)
                0x00000000000698e0                atexit
 .text          0x0000000000069900       0x20 /Users/stevefar/nacl_sdk/pepper_45/toolchain/mac_x86_newlib/bin/../lib/gcc/x86_64-nacl/4.4.3/../../../../x86_64-nacl/lib/../lib64/libcrt_common.a(lib_a-cxa_atexit.o)
                0x0000000000069900                __cxa_atexit
 .text          0x0000000000069920       0x40 /Users/stevefar/nacl_sdk/pepper_45/toolchain/mac_x86_newlib/bin/../lib/gcc/x86_64-nacl/4.4.3/../../../../x86_64-nacl/lib/../lib64/libcrt_common.a(lib_a-errno.o)
                0x0000000000069920                __errno
 .text          0x0000000000069960       0x60 /Users/stevefar/nacl_sdk/pepper_45/toolchain/mac_x86_newlib/bin/../lib/gcc/x86_64-nacl/4.4.3/../../../../x86_64-nacl/lib/../lib64/libcrt_common.a(lib_a-exit.o)
                0x0000000000069960                exit
 .text          0x00000000000699c0       0xa0 /Users/stevefar/nacl_sdk/pepper_45/toolchain/mac_x86_newlib/bin/../lib/gcc/x86_64-nacl/4.4.3/../../../../x86_64-nacl/lib/../lib64/libcrt_common.a(lib_a-fini.o)
                0x00000000000699c0                __libc_fini_array
 .text          0x0000000000069a60      0x1e0 /Users/stevefar/nacl_sdk/pepper_45/toolchain/mac_x86_newlib/bin/../lib/gcc/x86_64-nacl/4.4.3/../../../../x86_64-nacl/lib/../lib64/libcrt_common.a(lib_a-fprintf.o)
                0x0000000000069a60                fprintf
                0x0000000000069b80                _fprintf_r
 .text          0x0000000000069c40      0x300 /Users/stevefar/nacl_sdk/pepper_45/toolchain/mac_x86_newlib/bin/../lib/gcc/x86_64-nacl/4.4.3/../../../../x86_64-nacl/lib/../lib64/libcrt_common.a(lib_a-fputc.o)
                0x0000000000069c40                fputc
                0x0000000000069de0                _fputc_r
 .text          0x0000000000069f40      0x200 /Users/stevefar/nacl_sdk/pepper_45/toolchain/mac_x86_newlib/bin/../lib/gcc/x86_64-nacl/4.4.3/../../../../x86_64-nacl/lib/../lib64/libcrt_common.a(lib_a-fputs.o)
                0x0000000000069f40                _fputs_r
                0x000000000006a0e0                fputs
 .text          0x000000000006a140      0x940 /Users/stevefar/nacl_sdk/pepper_45/toolchain/mac_x86_newlib/bin/../lib/gcc/x86_64-nacl/4.4.3/../../../../x86_64-nacl/lib/../lib64/libcrt_common.a(lib_a-fvwrite.o)
                0x000000000006a140                __sfvwrite_r
 .text          0x000000000006aa80      0x2e0 /Users/stevefar/nacl_sdk/pepper_45/toolchain/mac_x86_newlib/bin/../lib/gcc/x86_64-nacl/4.4.3/../../../../x86_64-nacl/lib/../lib64/libcrt_common.a(lib_a-fwrite.o)
                0x000000000006aa80                _fwrite_r
                0x000000000006ace0                fwrite
 .text          0x000000000006ad60       0xc0 /Users/stevefar/nacl_sdk/pepper_45/toolchain/mac_x86_newlib/bin/../lib/gcc/x86_64-nacl/4.4.3/../../../../x86_64-nacl/lib/../lib64/libcrt_common.a(lib_a-getenv.o)
                0x000000000006ad60                getenv
                0x000000000006adc0                _findenv
 .text          0x000000000006ae20      0x200 /Users/stevefar/nacl_sdk/pepper_45/toolchain/mac_x86_newlib/bin/../lib/gcc/x86_64-nacl/4.4.3/../../../../x86_64-nacl/lib/../lib64/libcrt_common.a(lib_a-getenv_r.o)
                0x000000000006ae20                _findenv_r
                0x000000000006afe0                _getenv_r
 .text          0x000000000006b020       0x80 /Users/stevefar/nacl_sdk/pepper_45/toolchain/mac_x86_newlib/bin/../lib/gcc/x86_64-nacl/4.4.3/../../../../x86_64-nacl/lib/../lib64/libcrt_common.a(lib_a-impure.o)
                0x000000000006b020                __newlib_thread_init
                0x000000000006b080                __newlib_thread_exit
 .text          0x000000000006b0a0      0x120 /Users/stevefar/nacl_sdk/pepper_45/toolchain/mac_x86_newlib/bin/../lib/gcc/x86_64-nacl/4.4.3/../../../../x86_64-nacl/lib/../lib64/libcrt_common.a(lib_a-init.o)
                0x000000000006b0a0                __libc_init_array
 .text          0x000000000006b1c0      0x180 /Users/stevefar/nacl_sdk/pepper_45/toolchain/mac_x86_newlib/bin/../lib/gcc/x86_64-nacl/4.4.3/../../../../x86_64-nacl/lib/../lib64/libcrt_common.a(lib_a-memchr.o)
                0x000000000006b1c0                memchr
 .text          0x000000000006b340      0x1c0 /Users/stevefar/nacl_sdk/pepper_45/toolchain/mac_x86_newlib/bin/../lib/gcc/x86_64-nacl/4.4.3/../../../../x86_64-nacl/lib/../lib64/libcrt_common.a(lib_a-memcpy.o)
                0x000000000006b340                memcpy
 .text          0x000000000006b500      0x1c0 /Users/stevefar/nacl_sdk/pepper_45/toolchain/mac_x86_newlib/bin/../lib/gcc/x86_64-nacl/4.4.3/../../../../x86_64-nacl/lib/../lib64/libcrt_common.a(lib_a-memmove.o)
                0x000000000006b500                memmove
 .text          0x000000000006b6c0      0x160 /Users/stevefar/nacl_sdk/pepper_45/toolchain/mac_x86_newlib/bin/../lib/gcc/x86_64-nacl/4.4.3/../../../../x86_64-nacl/lib/../lib64/libcrt_common.a(lib_a-memset.o)
                0x000000000006b6c0                memset
 .text          0x000000000006b820      0x520 /Users/stevefar/nacl_sdk/pepper_45/toolchain/mac_x86_newlib/bin/../lib/gcc/x86_64-nacl/4.4.3/../../../../x86_64-nacl/lib/../lib64/libcrt_common.a(lib_a-putc.o)
                0x000000000006b820                putc
                0x000000000006bac0                _putc_r
 .text          0x000000000006bd40      0x3a0 /Users/stevefar/nacl_sdk/pepper_45/toolchain/mac_x86_newlib/bin/../lib/gcc/x86_64-nacl/4.4.3/../../../../x86_64-nacl/lib/../lib64/libcrt_common.a(lib_a-snprintf.o)
                0x000000000006bd40                snprintf
                0x000000000006bf40                _snprintf_r
 .text          0x000000000006c0e0      0x280 /Users/stevefar/nacl_sdk/pepper_45/toolchain/mac_x86_newlib/bin/../lib/gcc/x86_64-nacl/4.4.3/../../../../x86_64-nacl/lib/../lib64/libcrt_common.a(lib_a-sprintf.o)
                0x000000000006c0e0                sprintf
                0x000000000006c240                _sprintf_r
 .text          0x000000000006c360       0xc0 /Users/stevefar/nacl_sdk/pepper_45/toolchain/mac_x86_newlib/bin/../lib/gcc/x86_64-nacl/4.4.3/../../../../x86_64-nacl/lib/../lib64/libcrt_common.a(lib_a-strcpy.o)
                0x000000000006c360                strcpy
 .text          0x000000000006c420      0x860 /Users/stevefar/nacl_sdk/pepper_45/toolchain/mac_x86_newlib/bin/../lib/gcc/x86_64-nacl/4.4.3/../../../../x86_64-nacl/lib/../lib64/libcrt_common.a(lib_a-strerror.o)
                0x000000000006c420                _strerror_r
                0x000000000006cc40                strerror
 .text          0x000000000006cc80      0x140 /Users/stevefar/nacl_sdk/pepper_45/toolchain/mac_x86_newlib/bin/../lib/gcc/x86_64-nacl/4.4.3/../../../../x86_64-nacl/lib/../lib64/libcrt_common.a(lib_a-strlen.o)
                0x000000000006cc80                strlen
 .text          0x000000000006cdc0      0x120 /Users/stevefar/nacl_sdk/pepper_45/toolchain/mac_x86_newlib/bin/../lib/gcc/x86_64-nacl/4.4.3/../../../../x86_64-nacl/lib/../lib64/libcrt_common.a(lib_a-strncmp.o)
                0x000000000006cdc0                strncmp
 .text          0x000000000006cee0     0x5780 /Users/stevefar/nacl_sdk/pepper_45/toolchain/mac_x86_newlib/bin/../lib/gcc/x86_64-nacl/4.4.3/../../../../x86_64-nacl/lib/../lib64/libcrt_common.a(lib_a-svfprintf.o)
                0x000000000006cee0                _svfprintf_r
 .text          0x0000000000072660       0x20 /Users/stevefar/nacl_sdk/pepper_45/toolchain/mac_x86_newlib/bin/../lib/gcc/x86_64-nacl/4.4.3/../../../../x86_64-nacl/lib/../lib64/libcrt_common.a(lib_a-u_strerr.o)
                0x0000000000072660                _user_strerror
 .text          0x0000000000072680     0x5c60 /Users/stevefar/nacl_sdk/pepper_45/toolchain/mac_x86_newlib/bin/../lib/gcc/x86_64-nacl/4.4.3/../../../../x86_64-nacl/lib/../lib64/libcrt_common.a(lib_a-vfprintf.o)
                0x0000000000072680                _vfprintf_r
                0x0000000000078260                vfprintf
 .text          0x00000000000782e0      0x300 /Users/stevefar/nacl_sdk/pepper_45/toolchain/mac_x86_newlib/bin/../lib/gcc/x86_64-nacl/4.4.3/../../../../x86_64-nacl/lib/../lib64/libcrt_common.a(lib_a-wbuf.o)
                0x00000000000782e0                __swbuf_r
                0x0000000000078580                __swbuf
 .text          0x00000000000785e0      0x2a0 /Users/stevefar/nacl_sdk/pepper_45/toolchain/mac_x86_newlib/bin/../lib/gcc/x86_64-nacl/4.4.3/../../../../x86_64-nacl/lib/../lib64/libcrt_common.a(lib_a-wcrtomb.o)
                0x00000000000785e0                wcrtomb
                0x0000000000078740                _wcrtomb_r
 .text          0x0000000000078880       0xa0 /Users/stevefar/nacl_sdk/pepper_45/toolchain/mac_x86_newlib/bin/../lib/gcc/x86_64-nacl/4.4.3/../../../../x86_64-nacl/lib/../lib64/libcrt_common.a(lib_a-wcsrtombs.o)
                0x0000000000078880                wcsrtombs
                0x0000000000078900                _wcsrtombs_r
 .text          0x0000000000078920      0x5e0 /Users/stevefar/nacl_sdk/pepper_45/toolchain/mac_x86_newlib/bin/../lib/gcc/x86_64-nacl/4.4.3/../../../../x86_64-nacl/lib/../lib64/libcrt_common.a(lib_a-wctomb_r.o)
                0x0000000000078920                __ascii_wctomb
                0x0000000000078980                __utf8_wctomb
                0x0000000000078b20                __sjis_wctomb
                0x0000000000078c00                __eucjp_wctomb
                0x0000000000078d40                __jis_wctomb
                0x0000000000078e80                _wctomb_r
 .text          0x0000000000078f00      0x340 /Users/stevefar/nacl_sdk/pepper_45/toolchain/mac_x86_newlib/bin/../lib/gcc/x86_64-nacl/4.4.3/../../../../x86_64-nacl/lib/../lib64/libcrt_common.a(lib_a-wsetup.o)
                0x0000000000078f00                __swsetup_r
 .text          0x0000000000079240      0x2e0 /Users/stevefar/nacl_sdk/pepper_45/toolchain/mac_x86_newlib/bin/../lib/gcc/x86_64-nacl/4.4.3/../../../../x86_64-nacl/lib/../lib64/libcrt_common.a(lib_a-__atexit.o)
                0x0000000000079240                __register_exitproc
 .text          0x0000000000079520      0x380 /Users/stevefar/nacl_sdk/pepper_45/toolchain/mac_x86_newlib/bin/../lib/gcc/x86_64-nacl/4.4.3/../../../../x86_64-nacl/lib/../lib64/libcrt_common.a(lib_a-__call_atexit.o)
                0x0000000000079520                __call_exitprocs
 .text          0x00000000000798a0     0x23a0 /Users/stevefar/nacl_sdk/pepper_45/toolchain/mac_x86_newlib/bin/../lib/gcc/x86_64-nacl/4.4.3/../../../../x86_64-nacl/lib/../lib64/libcrt_common.a(lib_a-dtoa.o)
                0x0000000000079c00                _dtoa_r
 .text          0x000000000007bc40       0x40 /Users/stevefar/nacl_sdk/pepper_45/toolchain/mac_x86_newlib/bin/../lib/gcc/x86_64-nacl/4.4.3/../../../../x86_64-nacl/lib/../lib64/libcrt_common.a(lib_a-envlock.o)
                0x000000000007bc40                __env_unlock
                0x000000000007bc60                __env_lock
 .text          0x000000000007bc80      0x600 /Users/stevefar/nacl_sdk/pepper_45/toolchain/mac_x86_newlib/bin/../lib/gcc/x86_64-nacl/4.4.3/../../../../x86_64-nacl/lib/../lib64/libcrt_common.a(lib_a-fflush.o)
                0x000000000007bc80                __sflush_r
                0x000000000007c0a0                _fflush_r
                0x000000000007c220                fflush
 .text          0x000000000007c280      0x7e0 /Users/stevefar/nacl_sdk/pepper_45/toolchain/mac_x86_newlib/bin/../lib/gcc/x86_64-nacl/4.4.3/../../../../x86_64-nacl/lib/../lib64/libcrt_common.a(lib_a-findfp.o)
                0x000000000007c2c0                __sinit_lock_release
                0x000000000007c2e0                __sfp_lock_release
                0x000000000007c300                __fp_unlock_all
                0x000000000007c3a0                __sinit_lock_acquire
                0x000000000007c3c0                __sfp_lock_acquire
                0x000000000007c3e0                __fp_lock_all
                0x000000000007c500                __sinit
                0x000000000007c6e0                _cleanup_r
                0x000000000007c700                _cleanup
                0x000000000007c720                __sfmoreglue
                0x000000000007c7c0                __sfp
 .text          0x000000000007ca60      0x440 /Users/stevefar/nacl_sdk/pepper_45/toolchain/mac_x86_newlib/bin/../lib/gcc/x86_64-nacl/4.4.3/../../../../x86_64-nacl/lib/../lib64/libcrt_common.a(lib_a-fwalk.o)
                0x000000000007ca60                _fwalk_reent
                0x000000000007cc20                _fwalk
 .text          0x000000000007cea0     0x1840 /Users/stevefar/nacl_sdk/pepper_45/toolchain/mac_x86_newlib/bin/../lib/gcc/x86_64-nacl/4.4.3/../../../../x86_64-nacl/lib/../lib64/libcrt_common.a(lib_a-locale.o)
                0x000000000007cea0                __locale_charset
                0x000000000007cec0                __locale_mb_cur_max
                0x000000000007cee0                __locale_msgcharset
                0x000000000007cf00                __locale_cjk_lang
                0x000000000007cf20                _localeconv_r
                0x000000000007cf40                localeconv
                0x000000000007dfc0                _setlocale_r
                0x000000000007e680                setlocale
 .text          0x000000000007e6e0      0x280 /Users/stevefar/nacl_sdk/pepper_45/toolchain/mac_x86_newlib/bin/../lib/gcc/x86_64-nacl/4.4.3/../../../../x86_64-nacl/lib/../lib64/libcrt_common.a(lib_a-makebuf.o)
                0x000000000007e6e0                __smakebuf_r
 .text          0x000000000007e960      0xea0 /Users/stevefar/nacl_sdk/pepper_45/toolchain/mac_x86_newlib/bin/../lib/gcc/x86_64-nacl/4.4.3/../../../../x86_64-nacl/lib/../lib64/libcrt_common.a(lib_a-mbtowc_r.o)
                0x000000000007e960                __ascii_mbtowc
                0x000000000007e9e0                __utf8_mbtowc
                0x000000000007f080                __sjis_mbtowc
                0x000000000007f240                __eucjp_mbtowc
                0x000000000007f4c0                __jis_mbtowc
                0x000000000007f780                _mbtowc_r
 .text          0x000000000007f800     0x1a20 /Users/stevefar/nacl_sdk/pepper_45/toolchain/mac_x86_newlib/bin/../lib/gcc/x86_64-nacl/4.4.3/../../../../x86_64-nacl/lib/../lib64/libcrt_common.a(lib_a-mprec.o)
                0x000000000007f800                _Bfree
                0x000000000007f860                __hi0bits
                0x000000000007f920                __lo0bits
                0x000000000007fa80                __mcmp
                0x000000000007fb20                __ulp
                0x000000000007fc00                __b2d
                0x000000000007fdc0                __ratio
                0x000000000007ff00                _mprec_log10
                0x000000000007ff60                __copybits
                0x0000000000080040                __any_on
                0x0000000000080160                _Balloc
                0x0000000000080280                __d2b
                0x00000000000804e0                __mdiff
                0x0000000000080760                __lshift
                0x0000000000080940                __multiply
                0x0000000000080c80                __i2b
                0x0000000000080ce0                __multadd
                0x0000000000080e80                __pow5mult
                0x0000000000081080                __s2b
 .text          0x0000000000081220      0x140 /Users/stevefar/nacl_sdk/pepper_45/toolchain/mac_x86_newlib/bin/../lib/gcc/x86_64-nacl/4.4.3/../../../../x86_64-nacl/lib/../lib64/libcrt_common.a(lib_a-s_fpclassify.o)
                0x0000000000081220                __fpclassifyd
 .text          0x0000000000081360      0x120 /Users/stevefar/nacl_sdk/pepper_45/toolchain/mac_x86_newlib/bin/../lib/gcc/x86_64-nacl/4.4.3/../../../../x86_64-nacl/lib/../lib64/libcrt_common.a(lib_a-s_frexp.o)
                0x0000000000081360                frexp
 .text          0x0000000000081480      0x1c0 /Users/stevefar/nacl_sdk/pepper_45/toolchain/mac_x86_newlib/bin/../lib/gcc/x86_64-nacl/4.4.3/../../../../x86_64-nacl/lib/../lib64/libcrt_common.a(lib_a-stdio.o)
                0x0000000000081480                __seofread
                0x00000000000814a0                __sclose
                0x00000000000814c0                __sseek
                0x0000000000081540                __swrite
                0x00000000000815e0                __sread
 .text          0x0000000000081640       0xc0 /Users/stevefar/nacl_sdk/pepper_45/toolchain/mac_x86_newlib/bin/../lib/gcc/x86_64-nacl/4.4.3/../../../../x86_64-nacl/lib/../lib64/libcrt_common.a(lib_a-strcasecmp.o)
                0x0000000000081640                strcasecmp
 .text          0x0000000000081700       0xe0 /Users/stevefar/nacl_sdk/pepper_45/toolchain/mac_x86_newlib/bin/../lib/gcc/x86_64-nacl/4.4.3/../../../../x86_64-nacl/lib/../lib64/libcrt_common.a(lib_a-strcat.o)
                0x0000000000081700                strcat
 .text          0x00000000000817e0      0x220 /Users/stevefar/nacl_sdk/pepper_45/toolchain/mac_x86_newlib/bin/../lib/gcc/x86_64-nacl/4.4.3/../../../../x86_64-nacl/lib/../lib64/libcrt_common.a(lib_a-strchr.o)
                0x00000000000817e0                strchr
 .text          0x0000000000081a00      0x100 /Users/stevefar/nacl_sdk/pepper_45/toolchain/mac_x86_newlib/bin/../lib/gcc/x86_64-nacl/4.4.3/../../../../x86_64-nacl/lib/../lib64/libcrt_common.a(lib_a-strcmp.o)
                0x0000000000081a00                strcmp
 .text          0x0000000000081b00       0xe0 /Users/stevefar/nacl_sdk/pepper_45/toolchain/mac_x86_newlib/bin/../lib/gcc/x86_64-nacl/4.4.3/../../../../x86_64-nacl/lib/../lib64/libcrt_common.a(lib_a-strlcpy.o)
                0x0000000000081b00                strlcpy
 .text          0x0000000000081be0       0xc0 /Users/stevefar/nacl_sdk/pepper_45/toolchain/mac_x86_newlib/bin/../lib/gcc/x86_64-nacl/4.4.3/../../../../x86_64-nacl/lib/../lib64/libcrt_common.a(lib_a-strncasecmp.o)
                0x0000000000081be0                strncasecmp
 .text          0x0000000000081ca0      0x1a0 /Users/stevefar/nacl_sdk/pepper_45/toolchain/mac_x86_newlib/bin/../lib/gcc/x86_64-nacl/4.4.3/../../../../x86_64-nacl/lib/../lib64/libcrt_common.a(lib_a-strncpy.o)
                0x0000000000081ca0                strncpy
 .text          0x0000000000081e40      0x380 /Users/stevefar/nacl_sdk/pepper_45/toolchain/mac_x86_newlib/bin/../lib/gcc/x86_64-nacl/4.4.3/../../../../x86_64-nacl/lib/../lib64/libcrt_common.a(lib_a-strtol.o)
                0x0000000000081e40                _strtol_r
                0x0000000000082140                strtol
 .text          0x00000000000821c0     0x32e0 /Users/stevefar/nacl_sdk/pepper_45/toolchain/mac_x86_newlib/bin/../lib/gcc/x86_64-nacl/4.4.3/../../../../x86_64-nacl/lib/../lib64/libcrt_common.a(lib_a-svfiprintf.o)
                0x00000000000821c0                __ssprint_r
                0x00000000000825c0                _svfiprintf_r
 .text          0x00000000000854a0     0x3640 /Users/stevefar/nacl_sdk/pepper_45/toolchain/mac_x86_newlib/bin/../lib/gcc/x86_64-nacl/4.4.3/../../../../x86_64-nacl/lib/../lib64/libcrt_common.a(lib_a-vfiprintf.o)
                0x00000000000854a0                __sprint_r
                0x00000000000856a0                _vfiprintf_r
                0x0000000000088a60                vfiprintf
 .text          0x0000000000088ae0      0x360 /Users/stevefar/nacl_sdk/pepper_45/toolchain/mac_x86_newlib/bin/../lib/gcc/x86_64-nacl/4.4.3/../../../../x86_64-nacl/lib/../lib64/libcrt_common.a(lib_a-wcsnrtombs.o)
                0x0000000000088ae0                _wcsnrtombs_r
                0x0000000000088dc0                wcsnrtombs
 .text          0x0000000000088e40       0x20 /Users/stevefar/nacl_sdk/pepper_45/toolchain/mac_x86_newlib/bin/../lib/gcc/x86_64-nacl/4.4.3/../../../../x86_64-nacl/lib/../lib64/libcrt_common.a(lib_a-ctype_.o)
                0x0000000000088e40                __set_ctype
 .text          0x0000000000088e60      0x360 /Users/stevefar/nacl_sdk/pepper_45/toolchain/mac_x86_newlib/bin/../lib/gcc/x86_64-nacl/4.4.3/../../../../x86_64-nacl/lib/../lib64/libcrt_common.a(lib_a-fclose.o)
                0x0000000000088e60                _fclose_r
                0x0000000000089180                fclose
 .text          0x00000000000891c0      0x400 /Users/stevefar/nacl_sdk/pepper_45/toolchain/mac_x86_newlib/bin/../lib/gcc/x86_64-nacl/4.4.3/../../../../x86_64-nacl/lib/../lib64/libcrt_common.a(lib_a-fputwc.o)
                0x00000000000891c0                _fputwc_r
                0x0000000000089520                fputwc
 .text          0x00000000000895c0       0xa0 /Users/stevefar/nacl_sdk/pepper_45/toolchain/mac_x86_newlib/bin/../lib/gcc/x86_64-nacl/4.4.3/../../../../x86_64-nacl/lib/../lib64/libnacl.a(close_e9b92fbd.o)
                0x00000000000895c0                close
 .text          0x0000000000089660       0xe0 /Users/stevefar/nacl_sdk/pepper_45/toolchain/mac_x86_newlib/bin/../lib/gcc/x86_64-nacl/4.4.3/../../../../x86_64-nacl/lib/../lib64/libnacl.a(isatty_02f56e94.o)
                0x0000000000089660                isatty
 .text          0x0000000000089740       0xa0 /Users/stevefar/nacl_sdk/pepper_45/toolchain/mac_x86_newlib/bin/../lib/gcc/x86_64-nacl/4.4.3/../../../../x86_64-nacl/lib/../lib64/libnacl.a(nacl_irt_fdio_b571b5e7.o)
                0x0000000000089740                __libnacl_irt_dev_fdio_init
 .text          0x00000000000897e0       0xa0 /Users/stevefar/nacl_sdk/pepper_45/toolchain/mac_x86_newlib/bin/../lib/gcc/x86_64-nacl/4.4.3/../../../../x86_64-nacl/lib/../lib64/libnacl.a(fstat_0540ff63.o)
                0x00000000000897e0                fstat
 .text          0x0000000000089880       0xa0 /Users/stevefar/nacl_sdk/pepper_45/toolchain/mac_x86_newlib/bin/../lib/gcc/x86_64-nacl/4.4.3/../../../../x86_64-nacl/lib/../lib64/libnacl.a(lseek_64d2d05c.o)
                0x0000000000089880                lseek
 .text          0x0000000000089920       0xa0 /Users/stevefar/nacl_sdk/pepper_45/toolchain/mac_x86_newlib/bin/../lib/gcc/x86_64-nacl/4.4.3/../../../../x86_64-nacl/lib/../lib64/libnacl.a(read_df872e10.o)
                0x0000000000089920                read
 .text          0x00000000000899c0       0x80 /Users/stevefar/nacl_sdk/pepper_45/toolchain/mac_x86_newlib/bin/../lib/gcc/x86_64-nacl/4.4.3/crtend.o
 .text          0x0000000000089a40        0x0 /Users/stevefar/nacl_sdk/pepper_45/toolchain/mac_x86_newlib/bin/../lib/gcc/x86_64-nacl/4.4.3/../../../../x86_64-nacl/lib/../lib64/crtn.o
 *(.gnu.warning)

.fini           0x0000000000089a40       0x60
 *(SORT(.fini))
 .fini          0x0000000000089a40       0x20 /Users/stevefar/nacl_sdk/pepper_45/toolchain/mac_x86_newlib/bin/../lib/gcc/x86_64-nacl/4.4.3/../../../../x86_64-nacl/lib/../lib64/crti.o
                0x0000000000089a40                _fini
 .fini          0x0000000000089a60       0x20 /Users/stevefar/nacl_sdk/pepper_45/toolchain/mac_x86_newlib/bin/../lib/gcc/x86_64-nacl/4.4.3/crtbegin.o
 .fini          0x0000000000089a80       0x20 /Users/stevefar/nacl_sdk/pepper_45/toolchain/mac_x86_newlib/bin/../lib/gcc/x86_64-nacl/4.4.3/../../../../x86_64-nacl/lib/../lib64/crtn.o
                0x0000000000089aa0                PROVIDE (__etext, .)
                0x0000000000089aa0                PROVIDE (_etext, .)
                0x0000000000089aa0                PROVIDE (etext, .)
                0x00000000100201c8                . = (0x10020000 + SIZEOF_HEADERS)

.interp
 *(.interp)

.note.gnu.build-id
                0x00000000100201c8       0x24
 *(.note.gnu.build-id)
 .note.gnu.build-id
                0x00000000100201c8       0x24 /Users/stevefar/nacl_sdk/pepper_45/toolchain/mac_x86_newlib/bin/../lib/gcc/x86_64-nacl/4.4.3/../../../../x86_64-nacl/lib/../lib64/crti.o

.hash
 *(.hash)

.gnu.hash
 *(.gnu.hash)

.dynsym
 *(.dynsym)

.dynstr
 *(.dynstr)

.gnu.version
 *(.gnu.version)

.gnu.version_d
 *(.gnu.version_d)

.gnu.version_r
 *(.gnu.version_r)

.rela.dyn       0x00000000100201f0        0x0
 *(.rela.init)
 *(.rela.text .rela.text.* .rela.gnu.linkonce.t.*)
 .rela.text     0x0000000000000000        0x0 /Users/stevefar/nacl_sdk/pepper_45/toolchain/mac_x86_newlib/bin/../lib/gcc/x86_64-nacl/4.4.3/crtbegin.o
 .rela.text._ZN6Module14CreateInstanceEi
                0x0000000000000000        0x0 /Users/stevefar/nacl_sdk/pepper_45/toolchain/mac_x86_newlib/bin/../lib/gcc/x86_64-nacl/4.4.3/crtbegin.o
 .rela.text._ZN8Instance4InitEjPPKcS2_
                0x0000000000000000        0x0 /Users/stevefar/nacl_sdk/pepper_45/toolchain/mac_x86_newlib/bin/../lib/gcc/x86_64-nacl/4.4.3/crtbegin.o
 .rela.text._ZN8InstanceD0Ev
                0x0000000000000000        0x0 /Users/stevefar/nacl_sdk/pepper_45/toolchain/mac_x86_newlib/bin/../lib/gcc/x86_64-nacl/4.4.3/crtbegin.o
 .rela.text._ZN8InstanceD1Ev
                0x0000000000000000        0x0 /Users/stevefar/nacl_sdk/pepper_45/toolchain/mac_x86_newlib/bin/../lib/gcc/x86_64-nacl/4.4.3/crtbegin.o
 .rela.text._ZN6ModuleD0Ev
                0x0000000000000000        0x0 /Users/stevefar/nacl_sdk/pepper_45/toolchain/mac_x86_newlib/bin/../lib/gcc/x86_64-nacl/4.4.3/crtbegin.o
 .rela.text._ZN6ModuleD1Ev
                0x0000000000000000        0x0 /Users/stevefar/nacl_sdk/pepper_45/toolchain/mac_x86_newlib/bin/../lib/gcc/x86_64-nacl/4.4.3/crtbegin.o
 .rela.text._ZNSt8_Rb_treeISsSt4pairIKSsPvESt10_Select1stIS3_ESt4lessISsESaIS3_EE8_M_eraseEPSt13_Rb_tree_nodeIS3_E
                0x0000000000000000        0x0 /Users/stevefar/nacl_sdk/pepper_45/toolchain/mac_x86_newlib/bin/../lib/gcc/x86_64-nacl/4.4.3/crtbegin.o
 .rela.text._ZNSt8_Rb_treeISsSt4pairIKSsPvESt10_Select1stIS3_ESt4lessISsESaIS3_EE10_M_insert_EPKSt18_Rb_tree_node_baseSC_RKS3_
                0x0000000000000000        0x0 /Users/stevefar/nacl_sdk/pepper_45/toolchain/mac_x86_newlib/bin/../lib/gcc/x86_64-nacl/4.4.3/crtbegin.o
 .rela.text._ZNSt8_Rb_treeISsSt4pairIKSsPvESt10_Select1stIS3_ESt4lessISsESaIS3_EE16_M_insert_uniqueERKS3_
                0x0000000000000000        0x0 /Users/stevefar/nacl_sdk/pepper_45/toolchain/mac_x86_newlib/bin/../lib/gcc/x86_64-nacl/4.4.3/crtbegin.o
 .rela.text._ZNSt8_Rb_treeISsSt4pairIKSsPvESt10_Select1stIS3_ESt4lessISsESaIS3_EE17_M_insert_unique_ESt23_Rb_tree_const_iteratorIS3_ERKS3_
                0x0000000000000000        0x0 /Users/stevefar/nacl_sdk/pepper_45/toolchain/mac_x86_newlib/bin/../lib/gcc/x86_64-nacl/4.4.3/crtbegin.o
 .rela.text._ZNSt8_Rb_treeIiSt4pairIKiPN2pp8InstanceEESt10_Select1stIS5_ESt4lessIiESaIS5_EE8_M_eraseEPSt13_Rb_tree_nodeIS5_E
                0x0000000000000000        0x0 /Users/stevefar/nacl_sdk/pepper_45/toolchain/mac_x86_newlib/bin/../lib/gcc/x86_64-nacl/4.4.3/crtbegin.o
 .rela.text._ZNSt8_Rb_treeIiSt4pairIKiPN2pp8InstanceEESt10_Select1stIS5_ESt4lessIiESaIS5_EE10_M_insert_EPKSt18_Rb_tree_node_baseSE_RKS5_
                0x0000000000000000        0x0 /Users/stevefar/nacl_sdk/pepper_45/toolchain/mac_x86_newlib/bin/../lib/gcc/x86_64-nacl/4.4.3/crtbegin.o
 .rela.text._ZNSt8_Rb_treeIiSt4pairIKiPN2pp8InstanceEESt10_Select1stIS5_ESt4lessIiESaIS5_EE16_M_insert_uniqueERKS5_
                0x0000000000000000        0x0 /Users/stevefar/nacl_sdk/pepper_45/toolchain/mac_x86_newlib/bin/../lib/gcc/x86_64-nacl/4.4.3/crtbegin.o
 .rela.text._ZNSt8_Rb_treeIiSt4pairIKiPN2pp8InstanceEESt10_Select1stIS5_ESt4lessIiESaIS5_EE17_M_insert_unique_ESt23_Rb_tree_const_iteratorIS5_ERKS5_
                0x0000000000000000        0x0 /Users/stevefar/nacl_sdk/pepper_45/toolchain/mac_x86_newlib/bin/../lib/gcc/x86_64-nacl/4.4.3/crtbegin.o
 .rela.text._ZN2pp9URLLoaderD1Ev
                0x0000000000000000        0x0 /Users/stevefar/nacl_sdk/pepper_45/toolchain/mac_x86_newlib/bin/../lib/gcc/x86_64-nacl/4.4.3/crtbegin.o
 .rela.text._ZN2pp9URLLoaderD0Ev
                0x0000000000000000        0x0 /Users/stevefar/nacl_sdk/pepper_45/toolchain/mac_x86_newlib/bin/../lib/gcc/x86_64-nacl/4.4.3/crtbegin.o
 .rela.text._ZN2pp4ViewD1Ev
                0x0000000000000000        0x0 /Users/stevefar/nacl_sdk/pepper_45/toolchain/mac_x86_newlib/bin/../lib/gcc/x86_64-nacl/4.4.3/crtbegin.o
 .rela.text._ZN2pp4ViewD0Ev
                0x0000000000000000        0x0 /Users/stevefar/nacl_sdk/pepper_45/toolchain/mac_x86_newlib/bin/../lib/gcc/x86_64-nacl/4.4.3/crtbegin.o
 .rela.text._ZNSt8_Rb_treeISsSt4pairIKSsPKvESt10_Select1stIS4_ESt4lessISsESaIS4_EE8_M_eraseEPSt13_Rb_tree_nodeIS4_E
                0x0000000000000000        0x0 /Users/stevefar/nacl_sdk/pepper_45/toolchain/mac_x86_newlib/bin/../lib/gcc/x86_64-nacl/4.4.3/crtbegin.o
 .rela.text._ZNSt8_Rb_treeISsSt4pairIKSsPKvESt10_Select1stIS4_ESt4lessISsESaIS4_EE10_M_insert_EPKSt18_Rb_tree_node_baseSD_RKS4_
                0x0000000000000000        0x0 /Users/stevefar/nacl_sdk/pepper_45/toolchain/mac_x86_newlib/bin/../lib/gcc/x86_64-nacl/4.4.3/crtbegin.o
 .rela.text._ZNSt8_Rb_treeISsSt4pairIKSsPKvESt10_Select1stIS4_ESt4lessISsESaIS4_EE16_M_insert_uniqueERKS4_
                0x0000000000000000        0x0 /Users/stevefar/nacl_sdk/pepper_45/toolchain/mac_x86_newlib/bin/../lib/gcc/x86_64-nacl/4.4.3/crtbegin.o
 .rela.text._ZNSt8_Rb_treeISsSt4pairIKSsPKvESt10_Select1stIS4_ESt4lessISsESaIS4_EE17_M_insert_unique_ESt23_Rb_tree_const_iteratorIS4_ERKS4_
                0x0000000000000000        0x0 /Users/stevefar/nacl_sdk/pepper_45/toolchain/mac_x86_newlib/bin/../lib/gcc/x86_64-nacl/4.4.3/crtbegin.o
 .rela.text._ZN2pp15URLResponseInfoD1Ev
                0x0000000000000000        0x0 /Users/stevefar/nacl_sdk/pepper_45/toolchain/mac_x86_newlib/bin/../lib/gcc/x86_64-nacl/4.4.3/crtbegin.o
 .rela.text._ZN2pp15URLResponseInfoD0Ev
                0x0000000000000000        0x0 /Users/stevefar/nacl_sdk/pepper_45/toolchain/mac_x86_newlib/bin/../lib/gcc/x86_64-nacl/4.4.3/crtbegin.o
 .rela.text._ZN2pp7FileRefD1Ev
                0x0000000000000000        0x0 /Users/stevefar/nacl_sdk/pepper_45/toolchain/mac_x86_newlib/bin/../lib/gcc/x86_64-nacl/4.4.3/crtbegin.o
 .rela.text._ZN2pp7FileRefD0Ev
                0x0000000000000000        0x0 /Users/stevefar/nacl_sdk/pepper_45/toolchain/mac_x86_newlib/bin/../lib/gcc/x86_64-nacl/4.4.3/crtbegin.o
 .rela.text._ZN2pp13IMEInputEventD0Ev
                0x0000000000000000        0x0 /Users/stevefar/nacl_sdk/pepper_45/toolchain/mac_x86_newlib/bin/../lib/gcc/x86_64-nacl/4.4.3/crtbegin.o
 .rela.text._ZN2pp13IMEInputEventD1Ev
                0x0000000000000000        0x0 /Users/stevefar/nacl_sdk/pepper_45/toolchain/mac_x86_newlib/bin/../lib/gcc/x86_64-nacl/4.4.3/crtbegin.o
 .rela.text._ZN2pp15TouchInputEventD0Ev
                0x0000000000000000        0x0 /Users/stevefar/nacl_sdk/pepper_45/toolchain/mac_x86_newlib/bin/../lib/gcc/x86_64-nacl/4.4.3/crtbegin.o
 .rela.text._ZN2pp15TouchInputEventD1Ev
                0x0000000000000000        0x0 /Users/stevefar/nacl_sdk/pepper_45/toolchain/mac_x86_newlib/bin/../lib/gcc/x86_64-nacl/4.4.3/crtbegin.o
 .rela.text._ZN2pp18KeyboardInputEventD0Ev
                0x0000000000000000        0x0 /Users/stevefar/nacl_sdk/pepper_45/toolchain/mac_x86_newlib/bin/../lib/gcc/x86_64-nacl/4.4.3/crtbegin.o
 .rela.text._ZN2pp18KeyboardInputEventD1Ev
                0x0000000000000000        0x0 /Users/stevefar/nacl_sdk/pepper_45/toolchain/mac_x86_newlib/bin/../lib/gcc/x86_64-nacl/4.4.3/crtbegin.o
 .rela.text._ZN2pp15WheelInputEventD0Ev
                0x0000000000000000        0x0 /Users/stevefar/nacl_sdk/pepper_45/toolchain/mac_x86_newlib/bin/../lib/gcc/x86_64-nacl/4.4.3/crtbegin.o
 .rela.text._ZN2pp15WheelInputEventD1Ev
                0x0000000000000000        0x0 /Users/stevefar/nacl_sdk/pepper_45/toolchain/mac_x86_newlib/bin/../lib/gcc/x86_64-nacl/4.4.3/crtbegin.o
 .rela.text._ZN2pp15MouseInputEventD0Ev
                0x0000000000000000        0x0 /Users/stevefar/nacl_sdk/pepper_45/toolchain/mac_x86_newlib/bin/../lib/gcc/x86_64-nacl/4.4.3/crtbegin.o
 .rela.text._ZN2pp15MouseInputEventD1Ev
                0x0000000000000000        0x0 /Users/stevefar/nacl_sdk/pepper_45/toolchain/mac_x86_newlib/bin/../lib/gcc/x86_64-nacl/4.4.3/crtbegin.o
 .rela.text._ZNSs12_S_empty_repEv
                0x0000000000000000        0x0 /Users/stevefar/nacl_sdk/pepper_45/toolchain/mac_x86_newlib/bin/../lib/gcc/x86_64-nacl/4.4.3/crtbegin.o
 .rela.text._ZNSsC2Ev
                0x0000000000000000        0x0 /Users/stevefar/nacl_sdk/pepper_45/toolchain/mac_x86_newlib/bin/../lib/gcc/x86_64-nacl/4.4.3/crtbegin.o
 .rela.text._ZNSsC1Ev
                0x0000000000000000        0x0 /Users/stevefar/nacl_sdk/pepper_45/toolchain/mac_x86_newlib/bin/../lib/gcc/x86_64-nacl/4.4.3/crtbegin.o
 .rela.text._ZNKSs12find_last_ofEcj
                0x0000000000000000        0x0 /Users/stevefar/nacl_sdk/pepper_45/toolchain/mac_x86_newlib/bin/../lib/gcc/x86_64-nacl/4.4.3/crtbegin.o
 .rela.text._ZNSs4_Rep12_S_empty_repEv
                0x0000000000000000        0x0 /Users/stevefar/nacl_sdk/pepper_45/toolchain/mac_x86_newlib/bin/../lib/gcc/x86_64-nacl/4.4.3/crtbegin.o
 .rela.text._ZNSs4_Rep10_M_refcopyEv
                0x0000000000000000        0x0 /Users/stevefar/nacl_sdk/pepper_45/toolchain/mac_x86_newlib/bin/../lib/gcc/x86_64-nacl/4.4.3/crtbegin.o
 .rela.text._ZNSs4_Rep10_M_destroyERKSaIcE
                0x0000000000000000        0x0 /Users/stevefar/nacl_sdk/pepper_45/toolchain/mac_x86_newlib/bin/../lib/gcc/x86_64-nacl/4.4.3/crtbegin.o
 .rela.text._ZNSs4_Rep10_M_disposeERKSaIcE
                0x0000000000000000        0x0 /Users/stevefar/nacl_sdk/pepper_45/toolchain/mac_x86_newlib/bin/../lib/gcc/x86_64-nacl/4.4.3/crtbegin.o
 .rela.text._ZNKSs15_M_check_lengthEjjPKc
                0x0000000000000000        0x0 /Users/stevefar/nacl_sdk/pepper_45/toolchain/mac_x86_newlib/bin/../lib/gcc/x86_64-nacl/4.4.3/crtbegin.o
 .rela.text._ZNSs4_Rep9_S_createEjjRKSaIcE
                0x0000000000000000        0x0 /Users/stevefar/nacl_sdk/pepper_45/toolchain/mac_x86_newlib/bin/../lib/gcc/x86_64-nacl/4.4.3/crtbegin.o
 .rela.text._ZNKSs4findERKSsj
                0x0000000000000000        0x0 /Users/stevefar/nacl_sdk/pepper_45/toolchain/mac_x86_newlib/bin/../lib/gcc/x86_64-nacl/4.4.3/crtbegin.o
 .rela.text._ZNKSs4findEcj
                0x0000000000000000        0x0 /Users/stevefar/nacl_sdk/pepper_45/toolchain/mac_x86_newlib/bin/../lib/gcc/x86_64-nacl/4.4.3/crtbegin.o
 .rela.text._ZNKSs13find_first_ofEcj
                0x0000000000000000        0x0 /Users/stevefar/nacl_sdk/pepper_45/toolchain/mac_x86_newlib/bin/../lib/gcc/x86_64-nacl/4.4.3/crtbegin.o
 .rela.text._ZNKSs2atEj
                0x0000000000000000        0x0 /Users/stevefar/nacl_sdk/pepper_45/toolchain/mac_x86_newlib/bin/../lib/gcc/x86_64-nacl/4.4.3/crtbegin.o
 .rela.text._ZNKSs8_M_checkEjPKc
                0x0000000000000000        0x0 /Users/stevefar/nacl_sdk/pepper_45/toolchain/mac_x86_newlib/bin/../lib/gcc/x86_64-nacl/4.4.3/crtbegin.o
 .rela.text._ZNSs9_M_assignEPcjc
                0x0000000000000000        0x0 /Users/stevefar/nacl_sdk/pepper_45/toolchain/mac_x86_newlib/bin/../lib/gcc/x86_64-nacl/4.4.3/crtbegin.o
 .rela.text._ZNSs7_M_moveEPcPKcj
                0x0000000000000000        0x0 /Users/stevefar/nacl_sdk/pepper_45/toolchain/mac_x86_newlib/bin/../lib/gcc/x86_64-nacl/4.4.3/crtbegin.o
 .rela.text._ZNSs7_M_copyEPcPKcj
                0x0000000000000000        0x0 /Users/stevefar/nacl_sdk/pepper_45/toolchain/mac_x86_newlib/bin/../lib/gcc/x86_64-nacl/4.4.3/crtbegin.o
 .rela.text._ZNKSs16find_last_not_ofEPKcjj
                0x0000000000000000        0x0 /Users/stevefar/nacl_sdk/pepper_45/toolchain/mac_x86_newlib/bin/../lib/gcc/x86_64-nacl/4.4.3/crtbegin.o
 .rela.text._ZNKSs16find_last_not_ofERKSsj
                0x0000000000000000        0x0 /Users/stevefar/nacl_sdk/pepper_45/toolchain/mac_x86_newlib/bin/../lib/gcc/x86_64-nacl/4.4.3/crtbegin.o
 .rela.text._ZNKSs17find_first_not_ofEPKcjj
                0x0000000000000000        0x0 /Users/stevefar/nacl_sdk/pepper_45/toolchain/mac_x86_newlib/bin/../lib/gcc/x86_64-nacl/4.4.3/crtbegin.o
 .rela.text._ZNKSs17find_first_not_ofERKSsj
                0x0000000000000000        0x0 /Users/stevefar/nacl_sdk/pepper_45/toolchain/mac_x86_newlib/bin/../lib/gcc/x86_64-nacl/4.4.3/crtbegin.o
 .rela.text._ZNKSs12find_last_ofEPKcjj
                0x0000000000000000        0x0 /Users/stevefar/nacl_sdk/pepper_45/toolchain/mac_x86_newlib/bin/../lib/gcc/x86_64-nacl/4.4.3/crtbegin.o
 .rela.text._ZNKSs12find_last_ofERKSsj
                0x0000000000000000        0x0 /Users/stevefar/nacl_sdk/pepper_45/toolchain/mac_x86_newlib/bin/../lib/gcc/x86_64-nacl/4.4.3/crtbegin.o
 .rela.text._ZNKSs13find_first_ofEPKcjj
                0x0000000000000000        0x0 /Users/stevefar/nacl_sdk/pepper_45/toolchain/mac_x86_newlib/bin/../lib/gcc/x86_64-nacl/4.4.3/crtbegin.o
 .rela.text._ZNKSs13find_first_ofERKSsj
                0x0000000000000000        0x0 /Users/stevefar/nacl_sdk/pepper_45/toolchain/mac_x86_newlib/bin/../lib/gcc/x86_64-nacl/4.4.3/crtbegin.o
 .rela.text._ZNKSs5rfindERKSsj
                0x0000000000000000        0x0 /Users/stevefar/nacl_sdk/pepper_45/toolchain/mac_x86_newlib/bin/../lib/gcc/x86_64-nacl/4.4.3/crtbegin.o
 .rela.text._ZNKSs7compareEjjPKcj
                0x0000000000000000        0x0 /Users/stevefar/nacl_sdk/pepper_45/toolchain/mac_x86_newlib/bin/../lib/gcc/x86_64-nacl/4.4.3/crtbegin.o
 .rela.text._ZNKSs7compareEjjRKSsjj
                0x0000000000000000        0x0 /Users/stevefar/nacl_sdk/pepper_45/toolchain/mac_x86_newlib/bin/../lib/gcc/x86_64-nacl/4.4.3/crtbegin.o
 .rela.text._ZNKSs7compareEjjRKSs
                0x0000000000000000        0x0 /Users/stevefar/nacl_sdk/pepper_45/toolchain/mac_x86_newlib/bin/../lib/gcc/x86_64-nacl/4.4.3/crtbegin.o
 .rela.text._ZNKSs7compareEPKc
                0x0000000000000000        0x0 /Users/stevefar/nacl_sdk/pepper_45/toolchain/mac_x86_newlib/bin/../lib/gcc/x86_64-nacl/4.4.3/crtbegin.o
 .rela.text._ZNKSs5rfindEPKcj
                0x0000000000000000        0x0 /Users/stevefar/nacl_sdk/pepper_45/toolchain/mac_x86_newlib/bin/../lib/gcc/x86_64-nacl/4.4.3/crtbegin.o
 .rela.text._ZNKSs4findEPKcj
                0x0000000000000000        0x0 /Users/stevefar/nacl_sdk/pepper_45/toolchain/mac_x86_newlib/bin/../lib/gcc/x86_64-nacl/4.4.3/crtbegin.o
 .rela.text._ZNKSs16find_last_not_ofEPKcj
                0x0000000000000000        0x0 /Users/stevefar/nacl_sdk/pepper_45/toolchain/mac_x86_newlib/bin/../lib/gcc/x86_64-nacl/4.4.3/crtbegin.o
 .rela.text._ZNKSs17find_first_not_ofEPKcj
                0x0000000000000000        0x0 /Users/stevefar/nacl_sdk/pepper_45/toolchain/mac_x86_newlib/bin/../lib/gcc/x86_64-nacl/4.4.3/crtbegin.o
 .rela.text._ZNKSs12find_last_ofEPKcj
                0x0000000000000000        0x0 /Users/stevefar/nacl_sdk/pepper_45/toolchain/mac_x86_newlib/bin/../lib/gcc/x86_64-nacl/4.4.3/crtbegin.o
 .rela.text._ZNKSs13find_first_ofEPKcj
                0x0000000000000000        0x0 /Users/stevefar/nacl_sdk/pepper_45/toolchain/mac_x86_newlib/bin/../lib/gcc/x86_64-nacl/4.4.3/crtbegin.o
 .rela.text._ZNKSs7compareEjjPKc
                0x0000000000000000        0x0 /Users/stevefar/nacl_sdk/pepper_45/toolchain/mac_x86_newlib/bin/../lib/gcc/x86_64-nacl/4.4.3/crtbegin.o
 .rela.text._ZNSs13_S_copy_charsEPcS_S_
                0x0000000000000000        0x0 /Users/stevefar/nacl_sdk/pepper_45/toolchain/mac_x86_newlib/bin/../lib/gcc/x86_64-nacl/4.4.3/crtbegin.o
 .rela.text._ZNSs13_S_copy_charsEPcPKcS1_
                0x0000000000000000        0x0 /Users/stevefar/nacl_sdk/pepper_45/toolchain/mac_x86_newlib/bin/../lib/gcc/x86_64-nacl/4.4.3/crtbegin.o
 .rela.text._ZNSs13_S_copy_charsEPcN9__gnu_cxx17__normal_iteratorIPKcSsEES4_
                0x0000000000000000        0x0 /Users/stevefar/nacl_sdk/pepper_45/toolchain/mac_x86_newlib/bin/../lib/gcc/x86_64-nacl/4.4.3/crtbegin.o
 .rela.text._ZNSs13_S_copy_charsEPcN9__gnu_cxx17__normal_iteratorIS_SsEES2_
                0x0000000000000000        0x0 /Users/stevefar/nacl_sdk/pepper_45/toolchain/mac_x86_newlib/bin/../lib/gcc/x86_64-nacl/4.4.3/crtbegin.o
 .rela.text._ZNSs4_Rep8_M_cloneERKSaIcEj
                0x0000000000000000        0x0 /Users/stevefar/nacl_sdk/pepper_45/toolchain/mac_x86_newlib/bin/../lib/gcc/x86_64-nacl/4.4.3/crtbegin.o
 .rela.text._ZNSs4_Rep7_M_grabERKSaIcES2_
                0x0000000000000000        0x0 /Users/stevefar/nacl_sdk/pepper_45/toolchain/mac_x86_newlib/bin/../lib/gcc/x86_64-nacl/4.4.3/crtbegin.o
 .rela.text._ZNSsC1ERKSs
                0x0000000000000000        0x0 /Users/stevefar/nacl_sdk/pepper_45/toolchain/mac_x86_newlib/bin/../lib/gcc/x86_64-nacl/4.4.3/crtbegin.o
 .rela.text._ZNSsC2ERKSs
                0x0000000000000000        0x0 /Users/stevefar/nacl_sdk/pepper_45/toolchain/mac_x86_newlib/bin/../lib/gcc/x86_64-nacl/4.4.3/crtbegin.o
 .rela.text._ZNKSs4copyEPcjj
                0x0000000000000000        0x0 /Users/stevefar/nacl_sdk/pepper_45/toolchain/mac_x86_newlib/bin/../lib/gcc/x86_64-nacl/4.4.3/crtbegin.o
 .rela.text._ZNSs12_S_constructIPKcEEPcT_S3_RKSaIcESt20forward_iterator_tag
                0x0000000000000000        0x0 /Users/stevefar/nacl_sdk/pepper_45/toolchain/mac_x86_newlib/bin/../lib/gcc/x86_64-nacl/4.4.3/crtbegin.o
 .rela.text._ZNSsC1IPKcEET_S2_RKSaIcE
                0x0000000000000000        0x0 /Users/stevefar/nacl_sdk/pepper_45/toolchain/mac_x86_newlib/bin/../lib/gcc/x86_64-nacl/4.4.3/crtbegin.o
 .rela.text._ZNSsC2IPKcEET_S2_RKSaIcE
                0x0000000000000000        0x0 /Users/stevefar/nacl_sdk/pepper_45/toolchain/mac_x86_newlib/bin/../lib/gcc/x86_64-nacl/4.4.3/crtbegin.o
 .rela.text._ZNSsC1ESt16initializer_listIcERKSaIcE
                0x0000000000000000        0x0 /Users/stevefar/nacl_sdk/pepper_45/toolchain/mac_x86_newlib/bin/../lib/gcc/x86_64-nacl/4.4.3/crtbegin.o
 .rela.text._ZNSsC2ESt16initializer_listIcERKSaIcE
                0x0000000000000000        0x0 /Users/stevefar/nacl_sdk/pepper_45/toolchain/mac_x86_newlib/bin/../lib/gcc/x86_64-nacl/4.4.3/crtbegin.o
 .rela.text._ZNSsC1EPKcRKSaIcE
                0x0000000000000000        0x0 /Users/stevefar/nacl_sdk/pepper_45/toolchain/mac_x86_newlib/bin/../lib/gcc/x86_64-nacl/4.4.3/crtbegin.o
 .rela.text._ZNSsC2EPKcRKSaIcE
                0x0000000000000000        0x0 /Users/stevefar/nacl_sdk/pepper_45/toolchain/mac_x86_newlib/bin/../lib/gcc/x86_64-nacl/4.4.3/crtbegin.o
 .rela.text._ZNSsC1EPKcjRKSaIcE
                0x0000000000000000        0x0 /Users/stevefar/nacl_sdk/pepper_45/toolchain/mac_x86_newlib/bin/../lib/gcc/x86_64-nacl/4.4.3/crtbegin.o
 .rela.text._ZNSsC2EPKcjRKSaIcE
                0x0000000000000000        0x0 /Users/stevefar/nacl_sdk/pepper_45/toolchain/mac_x86_newlib/bin/../lib/gcc/x86_64-nacl/4.4.3/crtbegin.o
 .rela.text._ZNSs12_S_constructIPcEES0_T_S1_RKSaIcESt20forward_iterator_tag
                0x0000000000000000        0x0 /Users/stevefar/nacl_sdk/pepper_45/toolchain/mac_x86_newlib/bin/../lib/gcc/x86_64-nacl/4.4.3/crtbegin.o
 .rela.text._ZNSsC1IPcEET_S1_RKSaIcE
                0x0000000000000000        0x0 /Users/stevefar/nacl_sdk/pepper_45/toolchain/mac_x86_newlib/bin/../lib/gcc/x86_64-nacl/4.4.3/crtbegin.o
 .rela.text._ZNSsC2IPcEET_S1_RKSaIcE
                0x0000000000000000        0x0 /Users/stevefar/nacl_sdk/pepper_45/toolchain/mac_x86_newlib/bin/../lib/gcc/x86_64-nacl/4.4.3/crtbegin.o
 .rela.text._ZNSsC1ERKSsjjRKSaIcE
                0x0000000000000000        0x0 /Users/stevefar/nacl_sdk/pepper_45/toolchain/mac_x86_newlib/bin/../lib/gcc/x86_64-nacl/4.4.3/crtbegin.o
 .rela.text._ZNSsC2ERKSsjjRKSaIcE
                0x0000000000000000        0x0 /Users/stevefar/nacl_sdk/pepper_45/toolchain/mac_x86_newlib/bin/../lib/gcc/x86_64-nacl/4.4.3/crtbegin.o
 .rela.text._ZNSsC1ERKSsjj
                0x0000000000000000        0x0 /Users/stevefar/nacl_sdk/pepper_45/toolchain/mac_x86_newlib/bin/../lib/gcc/x86_64-nacl/4.4.3/crtbegin.o
 .rela.text._ZNKSs6substrEjj
                0x0000000000000000        0x0 /Users/stevefar/nacl_sdk/pepper_45/toolchain/mac_x86_newlib/bin/../lib/gcc/x86_64-nacl/4.4.3/crtbegin.o
 .rela.text._ZNSsC2ERKSsjj
                0x0000000000000000        0x0 /Users/stevefar/nacl_sdk/pepper_45/toolchain/mac_x86_newlib/bin/../lib/gcc/x86_64-nacl/4.4.3/crtbegin.o
 .rela.text._ZNSs12_S_constructEjcRKSaIcE
                0x0000000000000000        0x0 /Users/stevefar/nacl_sdk/pepper_45/toolchain/mac_x86_newlib/bin/../lib/gcc/x86_64-nacl/4.4.3/crtbegin.o
 .rela.text._ZNSsC1EjcRKSaIcE
                0x0000000000000000        0x0 /Users/stevefar/nacl_sdk/pepper_45/toolchain/mac_x86_newlib/bin/../lib/gcc/x86_64-nacl/4.4.3/crtbegin.o
 .rela.text._ZNSsC2EjcRKSaIcE
                0x0000000000000000        0x0 /Users/stevefar/nacl_sdk/pepper_45/toolchain/mac_x86_newlib/bin/../lib/gcc/x86_64-nacl/4.4.3/crtbegin.o
 .rela.text._ZNSsC1ERKSaIcE
                0x0000000000000000        0x0 /Users/stevefar/nacl_sdk/pepper_45/toolchain/mac_x86_newlib/bin/../lib/gcc/x86_64-nacl/4.4.3/crtbegin.o
 .rela.text._ZNSsC2ERKSaIcE
                0x0000000000000000        0x0 /Users/stevefar/nacl_sdk/pepper_45/toolchain/mac_x86_newlib/bin/../lib/gcc/x86_64-nacl/4.4.3/crtbegin.o
 .rela.text._ZNSs12_S_constructIN9__gnu_cxx17__normal_iteratorIPcSsEEEES2_T_S4_RKSaIcESt20forward_iterator_tag
                0x0000000000000000        0x0 /Users/stevefar/nacl_sdk/pepper_45/toolchain/mac_x86_newlib/bin/../lib/gcc/x86_64-nacl/4.4.3/crtbegin.o
 .rela.text._ZNSsC1IN9__gnu_cxx17__normal_iteratorIPcSsEEEET_S4_RKSaIcE
                0x0000000000000000        0x0 /Users/stevefar/nacl_sdk/pepper_45/toolchain/mac_x86_newlib/bin/../lib/gcc/x86_64-nacl/4.4.3/crtbegin.o
 .rela.text._ZNSsC2IN9__gnu_cxx17__normal_iteratorIPcSsEEEET_S4_RKSaIcE
                0x0000000000000000        0x0 /Users/stevefar/nacl_sdk/pepper_45/toolchain/mac_x86_newlib/bin/../lib/gcc/x86_64-nacl/4.4.3/crtbegin.o
 .rela.text._ZNSsD1Ev
                0x0000000000000000        0x0 /Users/stevefar/nacl_sdk/pepper_45/toolchain/mac_x86_newlib/bin/../lib/gcc/x86_64-nacl/4.4.3/crtbegin.o
 .rela.text._ZNSsD2Ev
                0x0000000000000000        0x0 /Users/stevefar/nacl_sdk/pepper_45/toolchain/mac_x86_newlib/bin/../lib/gcc/x86_64-nacl/4.4.3/crtbegin.o
 .rela.text._ZNSs6assignERKSs
                0x0000000000000000        0x0 /Users/stevefar/nacl_sdk/pepper_45/toolchain/mac_x86_newlib/bin/../lib/gcc/x86_64-nacl/4.4.3/crtbegin.o
 .rela.text._ZNSsaSERKSs
                0x0000000000000000        0x0 /Users/stevefar/nacl_sdk/pepper_45/toolchain/mac_x86_newlib/bin/../lib/gcc/x86_64-nacl/4.4.3/crtbegin.o
 .rela.text._ZNSs7reserveEj
                0x0000000000000000        0x0 /Users/stevefar/nacl_sdk/pepper_45/toolchain/mac_x86_newlib/bin/../lib/gcc/x86_64-nacl/4.4.3/crtbegin.o
 .rela.text._ZNSs9push_backEc
                0x0000000000000000        0x0 /Users/stevefar/nacl_sdk/pepper_45/toolchain/mac_x86_newlib/bin/../lib/gcc/x86_64-nacl/4.4.3/crtbegin.o
 .rela.text._ZNSs6appendEjc
                0x0000000000000000        0x0 /Users/stevefar/nacl_sdk/pepper_45/toolchain/mac_x86_newlib/bin/../lib/gcc/x86_64-nacl/4.4.3/crtbegin.o
 .rela.text._ZNSs6appendEPKcj
                0x0000000000000000        0x0 /Users/stevefar/nacl_sdk/pepper_45/toolchain/mac_x86_newlib/bin/../lib/gcc/x86_64-nacl/4.4.3/crtbegin.o
 .rela.text._ZNSs6appendEPKc
                0x0000000000000000        0x0 /Users/stevefar/nacl_sdk/pepper_45/toolchain/mac_x86_newlib/bin/../lib/gcc/x86_64-nacl/4.4.3/crtbegin.o
 .rela.text._ZNSspLEPKc
                0x0000000000000000        0x0 /Users/stevefar/nacl_sdk/pepper_45/toolchain/mac_x86_newlib/bin/../lib/gcc/x86_64-nacl/4.4.3/crtbegin.o
 .rela.text._ZNSs6appendERKSsjj
                0x0000000000000000        0x0 /Users/stevefar/nacl_sdk/pepper_45/toolchain/mac_x86_newlib/bin/../lib/gcc/x86_64-nacl/4.4.3/crtbegin.o
 .rela.text._ZNSs6appendERKSs
                0x0000000000000000        0x0 /Users/stevefar/nacl_sdk/pepper_45/toolchain/mac_x86_newlib/bin/../lib/gcc/x86_64-nacl/4.4.3/crtbegin.o
 .rela.text._ZStplIcSt11char_traitsIcESaIcEESbIT_T0_T1_ERKS6_S8_
                0x0000000000000000        0x0 /Users/stevefar/nacl_sdk/pepper_45/toolchain/mac_x86_newlib/bin/../lib/gcc/x86_64-nacl/4.4.3/crtbegin.o
 .rela.text._ZNSspLERKSs
                0x0000000000000000        0x0 /Users/stevefar/nacl_sdk/pepper_45/toolchain/mac_x86_newlib/bin/../lib/gcc/x86_64-nacl/4.4.3/crtbegin.o
 .rela.text._ZStplIcSt11char_traitsIcESaIcEESbIT_T0_T1_ES3_RKS6_
                0x0000000000000000        0x0 /Users/stevefar/nacl_sdk/pepper_45/toolchain/mac_x86_newlib/bin/../lib/gcc/x86_64-nacl/4.4.3/crtbegin.o
 .rela.text._ZStplIcSt11char_traitsIcESaIcEESbIT_T0_T1_EPKS3_RKS6_
                0x0000000000000000        0x0 /Users/stevefar/nacl_sdk/pepper_45/toolchain/mac_x86_newlib/bin/../lib/gcc/x86_64-nacl/4.4.3/crtbegin.o
 .rela.text._ZNSspLEc
                0x0000000000000000        0x0 /Users/stevefar/nacl_sdk/pepper_45/toolchain/mac_x86_newlib/bin/../lib/gcc/x86_64-nacl/4.4.3/crtbegin.o
 .rela.text._ZNSs9_M_mutateEjjj
                0x0000000000000000        0x0 /Users/stevefar/nacl_sdk/pepper_45/toolchain/mac_x86_newlib/bin/../lib/gcc/x86_64-nacl/4.4.3/crtbegin.o
 .rela.text._ZNSs15_M_replace_safeEjjPKcj
                0x0000000000000000        0x0 /Users/stevefar/nacl_sdk/pepper_45/toolchain/mac_x86_newlib/bin/../lib/gcc/x86_64-nacl/4.4.3/crtbegin.o
 .rela.text._ZNSs6assignEPKcj
                0x0000000000000000        0x0 /Users/stevefar/nacl_sdk/pepper_45/toolchain/mac_x86_newlib/bin/../lib/gcc/x86_64-nacl/4.4.3/crtbegin.o
 .rela.text._ZNSs6assignEPKc
                0x0000000000000000        0x0 /Users/stevefar/nacl_sdk/pepper_45/toolchain/mac_x86_newlib/bin/../lib/gcc/x86_64-nacl/4.4.3/crtbegin.o
 .rela.text._ZNSs6assignERKSsjj
                0x0000000000000000        0x0 /Users/stevefar/nacl_sdk/pepper_45/toolchain/mac_x86_newlib/bin/../lib/gcc/x86_64-nacl/4.4.3/crtbegin.o
 .rela.text._ZNSsaSEPKc
                0x0000000000000000        0x0 /Users/stevefar/nacl_sdk/pepper_45/toolchain/mac_x86_newlib/bin/../lib/gcc/x86_64-nacl/4.4.3/crtbegin.o
 .rela.text._ZNSs14_M_replace_auxEjjjc
                0x0000000000000000        0x0 /Users/stevefar/nacl_sdk/pepper_45/toolchain/mac_x86_newlib/bin/../lib/gcc/x86_64-nacl/4.4.3/crtbegin.o
 .rela.text._ZNSs7replaceEN9__gnu_cxx17__normal_iteratorIPcSsEES2_jc
                0x0000000000000000        0x0 /Users/stevefar/nacl_sdk/pepper_45/toolchain/mac_x86_newlib/bin/../lib/gcc/x86_64-nacl/4.4.3/crtbegin.o
 .rela.text._ZNSs7replaceEjjjc
                0x0000000000000000        0x0 /Users/stevefar/nacl_sdk/pepper_45/toolchain/mac_x86_newlib/bin/../lib/gcc/x86_64-nacl/4.4.3/crtbegin.o
 .rela.text._ZNSs6insertEN9__gnu_cxx17__normal_iteratorIPcSsEEc
                0x0000000000000000        0x0 /Users/stevefar/nacl_sdk/pepper_45/toolchain/mac_x86_newlib/bin/../lib/gcc/x86_64-nacl/4.4.3/crtbegin.o
 .rela.text._ZNSs6insertEjjc
                0x0000000000000000        0x0 /Users/stevefar/nacl_sdk/pepper_45/toolchain/mac_x86_newlib/bin/../lib/gcc/x86_64-nacl/4.4.3/crtbegin.o
 .rela.text._ZNSs6assignEjc
                0x0000000000000000        0x0 /Users/stevefar/nacl_sdk/pepper_45/toolchain/mac_x86_newlib/bin/../lib/gcc/x86_64-nacl/4.4.3/crtbegin.o
 .rela.text._ZNSs6insertEN9__gnu_cxx17__normal_iteratorIPcSsEEjc
                0x0000000000000000        0x0 /Users/stevefar/nacl_sdk/pepper_45/toolchain/mac_x86_newlib/bin/../lib/gcc/x86_64-nacl/4.4.3/crtbegin.o
 .rela.text._ZNSsaSEc
                0x0000000000000000        0x0 /Users/stevefar/nacl_sdk/pepper_45/toolchain/mac_x86_newlib/bin/../lib/gcc/x86_64-nacl/4.4.3/crtbegin.o
 .rela.text._ZNSs5eraseEN9__gnu_cxx17__normal_iteratorIPcSsEES2_
                0x0000000000000000        0x0 /Users/stevefar/nacl_sdk/pepper_45/toolchain/mac_x86_newlib/bin/../lib/gcc/x86_64-nacl/4.4.3/crtbegin.o
 .rela.text._ZNSs5eraseEN9__gnu_cxx17__normal_iteratorIPcSsEE
                0x0000000000000000        0x0 /Users/stevefar/nacl_sdk/pepper_45/toolchain/mac_x86_newlib/bin/../lib/gcc/x86_64-nacl/4.4.3/crtbegin.o
 .rela.text._ZNSs5eraseEjj
                0x0000000000000000        0x0 /Users/stevefar/nacl_sdk/pepper_45/toolchain/mac_x86_newlib/bin/../lib/gcc/x86_64-nacl/4.4.3/crtbegin.o
 .rela.text._ZNSs6insertEjPKcj
                0x0000000000000000        0x0 /Users/stevefar/nacl_sdk/pepper_45/toolchain/mac_x86_newlib/bin/../lib/gcc/x86_64-nacl/4.4.3/crtbegin.o
 .rela.text._ZNSs6insertEjPKc
                0x0000000000000000        0x0 /Users/stevefar/nacl_sdk/pepper_45/toolchain/mac_x86_newlib/bin/../lib/gcc/x86_64-nacl/4.4.3/crtbegin.o
 .rela.text._ZNSs6insertEjRKSsjj
                0x0000000000000000        0x0 /Users/stevefar/nacl_sdk/pepper_45/toolchain/mac_x86_newlib/bin/../lib/gcc/x86_64-nacl/4.4.3/crtbegin.o
 .rela.text._ZNSs6insertEjRKSs
                0x0000000000000000        0x0 /Users/stevefar/nacl_sdk/pepper_45/toolchain/mac_x86_newlib/bin/../lib/gcc/x86_64-nacl/4.4.3/crtbegin.o
 .rela.text._ZNSs5clearEv
                0x0000000000000000        0x0 /Users/stevefar/nacl_sdk/pepper_45/toolchain/mac_x86_newlib/bin/../lib/gcc/x86_64-nacl/4.4.3/crtbegin.o
 .rela.text._ZNSs12_M_leak_hardEv
                0x0000000000000000        0x0 /Users/stevefar/nacl_sdk/pepper_45/toolchain/mac_x86_newlib/bin/../lib/gcc/x86_64-nacl/4.4.3/crtbegin.o
 .rela.text._ZNSs7_M_leakEv
                0x0000000000000000        0x0 /Users/stevefar/nacl_sdk/pepper_45/toolchain/mac_x86_newlib/bin/../lib/gcc/x86_64-nacl/4.4.3/crtbegin.o
 .rela.text._ZNSs2atEj
                0x0000000000000000        0x0 /Users/stevefar/nacl_sdk/pepper_45/toolchain/mac_x86_newlib/bin/../lib/gcc/x86_64-nacl/4.4.3/crtbegin.o
 .rela.text._ZNSsixEj
                0x0000000000000000        0x0 /Users/stevefar/nacl_sdk/pepper_45/toolchain/mac_x86_newlib/bin/../lib/gcc/x86_64-nacl/4.4.3/crtbegin.o
 .rela.text._ZNSs3endEv
                0x0000000000000000        0x0 /Users/stevefar/nacl_sdk/pepper_45/toolchain/mac_x86_newlib/bin/../lib/gcc/x86_64-nacl/4.4.3/crtbegin.o
 .rela.text._ZNSs5beginEv
                0x0000000000000000        0x0 /Users/stevefar/nacl_sdk/pepper_45/toolchain/mac_x86_newlib/bin/../lib/gcc/x86_64-nacl/4.4.3/crtbegin.o
 .rela.text._ZNSs4rendEv
                0x0000000000000000        0x0 /Users/stevefar/nacl_sdk/pepper_45/toolchain/mac_x86_newlib/bin/../lib/gcc/x86_64-nacl/4.4.3/crtbegin.o
 .rela.text._ZNSs6rbeginEv
                0x0000000000000000        0x0 /Users/stevefar/nacl_sdk/pepper_45/toolchain/mac_x86_newlib/bin/../lib/gcc/x86_64-nacl/4.4.3/crtbegin.o
 .rela.text._ZNSs6resizeEjc
                0x0000000000000000        0x0 /Users/stevefar/nacl_sdk/pepper_45/toolchain/mac_x86_newlib/bin/../lib/gcc/x86_64-nacl/4.4.3/crtbegin.o
 .rela.text._ZNSs6resizeEj
                0x0000000000000000        0x0 /Users/stevefar/nacl_sdk/pepper_45/toolchain/mac_x86_newlib/bin/../lib/gcc/x86_64-nacl/4.4.3/crtbegin.o
 .rela.text._ZNSs7replaceEjjPKcj
                0x0000000000000000        0x0 /Users/stevefar/nacl_sdk/pepper_45/toolchain/mac_x86_newlib/bin/../lib/gcc/x86_64-nacl/4.4.3/crtbegin.o
 .rela.text._ZNSs7replaceEN9__gnu_cxx17__normal_iteratorIPcSsEES2_NS0_IPKcSsEES5_
                0x0000000000000000        0x0 /Users/stevefar/nacl_sdk/pepper_45/toolchain/mac_x86_newlib/bin/../lib/gcc/x86_64-nacl/4.4.3/crtbegin.o
 .rela.text._ZNSs7replaceEN9__gnu_cxx17__normal_iteratorIPcSsEES2_S2_S2_
                0x0000000000000000        0x0 /Users/stevefar/nacl_sdk/pepper_45/toolchain/mac_x86_newlib/bin/../lib/gcc/x86_64-nacl/4.4.3/crtbegin.o
 .rela.text._ZNSs7replaceEN9__gnu_cxx17__normal_iteratorIPcSsEES2_PKcS4_
                0x0000000000000000        0x0 /Users/stevefar/nacl_sdk/pepper_45/toolchain/mac_x86_newlib/bin/../lib/gcc/x86_64-nacl/4.4.3/crtbegin.o
 .rela.text._ZNSs7replaceEN9__gnu_cxx17__normal_iteratorIPcSsEES2_S1_S1_
                0x0000000000000000        0x0 /Users/stevefar/nacl_sdk/pepper_45/toolchain/mac_x86_newlib/bin/../lib/gcc/x86_64-nacl/4.4.3/crtbegin.o
 .rela.text._ZNSs7replaceEN9__gnu_cxx17__normal_iteratorIPcSsEES2_PKcj
                0x0000000000000000        0x0 /Users/stevefar/nacl_sdk/pepper_45/toolchain/mac_x86_newlib/bin/../lib/gcc/x86_64-nacl/4.4.3/crtbegin.o
 .rela.text._ZNSs7replaceEjjPKc
                0x0000000000000000        0x0 /Users/stevefar/nacl_sdk/pepper_45/toolchain/mac_x86_newlib/bin/../lib/gcc/x86_64-nacl/4.4.3/crtbegin.o
 .rela.text._ZNSs7replaceEjjRKSsjj
                0x0000000000000000        0x0 /Users/stevefar/nacl_sdk/pepper_45/toolchain/mac_x86_newlib/bin/../lib/gcc/x86_64-nacl/4.4.3/crtbegin.o
 .rela.text._ZNSs7replaceEjjRKSs
                0x0000000000000000        0x0 /Users/stevefar/nacl_sdk/pepper_45/toolchain/mac_x86_newlib/bin/../lib/gcc/x86_64-nacl/4.4.3/crtbegin.o
 .rela.text._ZNSs7replaceEN9__gnu_cxx17__normal_iteratorIPcSsEES2_PKc
                0x0000000000000000        0x0 /Users/stevefar/nacl_sdk/pepper_45/toolchain/mac_x86_newlib/bin/../lib/gcc/x86_64-nacl/4.4.3/crtbegin.o
 .rela.text._ZNSs7replaceEN9__gnu_cxx17__normal_iteratorIPcSsEES2_RKSs
                0x0000000000000000        0x0 /Users/stevefar/nacl_sdk/pepper_45/toolchain/mac_x86_newlib/bin/../lib/gcc/x86_64-nacl/4.4.3/crtbegin.o
 .rela.text._ZNSs6assignESt16initializer_listIcE
                0x0000000000000000        0x0 /Users/stevefar/nacl_sdk/pepper_45/toolchain/mac_x86_newlib/bin/../lib/gcc/x86_64-nacl/4.4.3/crtbegin.o
 .rela.text._ZNSsaSESt16initializer_listIcE
                0x0000000000000000        0x0 /Users/stevefar/nacl_sdk/pepper_45/toolchain/mac_x86_newlib/bin/../lib/gcc/x86_64-nacl/4.4.3/crtbegin.o
 .rela.text._ZNSs6appendESt16initializer_listIcE
                0x0000000000000000        0x0 /Users/stevefar/nacl_sdk/pepper_45/toolchain/mac_x86_newlib/bin/../lib/gcc/x86_64-nacl/4.4.3/crtbegin.o
 .rela.text._ZNSspLESt16initializer_listIcE
                0x0000000000000000        0x0 /Users/stevefar/nacl_sdk/pepper_45/toolchain/mac_x86_newlib/bin/../lib/gcc/x86_64-nacl/4.4.3/crtbegin.o
 .rela.text._ZNSs7replaceEN9__gnu_cxx17__normal_iteratorIPcSsEES2_St16initializer_listIcE
                0x0000000000000000        0x0 /Users/stevefar/nacl_sdk/pepper_45/toolchain/mac_x86_newlib/bin/../lib/gcc/x86_64-nacl/4.4.3/crtbegin.o
 .rela.text._ZNSs6insertEN9__gnu_cxx17__normal_iteratorIPcSsEESt16initializer_listIcE
                0x0000000000000000        0x0 /Users/stevefar/nacl_sdk/pepper_45/toolchain/mac_x86_newlib/bin/../lib/gcc/x86_64-nacl/4.4.3/crtbegin.o
 .rela.text._ZN10__cxxabiv117__class_type_infoD1Ev
                0x0000000000000000        0x0 /Users/stevefar/nacl_sdk/pepper_45/toolchain/mac_x86_newlib/bin/../lib/gcc/x86_64-nacl/4.4.3/crtbegin.o
 .rela.text._ZN10__cxxabiv117__class_type_infoD2Ev
                0x0000000000000000        0x0 /Users/stevefar/nacl_sdk/pepper_45/toolchain/mac_x86_newlib/bin/../lib/gcc/x86_64-nacl/4.4.3/crtbegin.o
 .rela.text._ZN10__cxxabiv117__class_type_infoD0Ev
                0x0000000000000000        0x0 /Users/stevefar/nacl_sdk/pepper_45/toolchain/mac_x86_newlib/bin/../lib/gcc/x86_64-nacl/4.4.3/crtbegin.o
 .rela.text._ZdlPv
                0x0000000000000000        0x0 /Users/stevefar/nacl_sdk/pepper_45/toolchain/mac_x86_newlib/bin/../lib/gcc/x86_64-nacl/4.4.3/crtbegin.o
 .rela.text._ZSt18uncaught_exceptionv
                0x0000000000000000        0x0 /Users/stevefar/nacl_sdk/pepper_45/toolchain/mac_x86_newlib/bin/../lib/gcc/x86_64-nacl/4.4.3/crtbegin.o
 .rela.text.__cxa_end_catch
                0x0000000000000000        0x0 /Users/stevefar/nacl_sdk/pepper_45/toolchain/mac_x86_newlib/bin/../lib/gcc/x86_64-nacl/4.4.3/crtbegin.o
 .rela.text.__cxa_begin_catch
                0x0000000000000000        0x0 /Users/stevefar/nacl_sdk/pepper_45/toolchain/mac_x86_newlib/bin/../lib/gcc/x86_64-nacl/4.4.3/crtbegin.o
 .rela.text._GLOBAL__I___cxa_get_globals_fast
                0x0000000000000000        0x0 /Users/stevefar/nacl_sdk/pepper_45/toolchain/mac_x86_newlib/bin/../lib/gcc/x86_64-nacl/4.4.3/crtbegin.o
 .rela.text._ZL15eh_globals_dtorPv
                0x0000000000000000        0x0 /Users/stevefar/nacl_sdk/pepper_45/toolchain/mac_x86_newlib/bin/../lib/gcc/x86_64-nacl/4.4.3/crtbegin.o
 .rela.text.__cxa_get_globals
                0x0000000000000000        0x0 /Users/stevefar/nacl_sdk/pepper_45/toolchain/mac_x86_newlib/bin/../lib/gcc/x86_64-nacl/4.4.3/crtbegin.o
 .rela.text.__cxa_get_globals_fast
                0x0000000000000000        0x0 /Users/stevefar/nacl_sdk/pepper_45/toolchain/mac_x86_newlib/bin/../lib/gcc/x86_64-nacl/4.4.3/crtbegin.o
 .rela.text._ZL21base_of_encoded_valuehP15_Unwind_Context
                0x0000000000000000        0x0 /Users/stevefar/nacl_sdk/pepper_45/toolchain/mac_x86_newlib/bin/../lib/gcc/x86_64-nacl/4.4.3/crtbegin.o
 .rela.text._ZL28read_encoded_value_with_basehjPKhPj
                0x0000000000000000        0x0 /Users/stevefar/nacl_sdk/pepper_45/toolchain/mac_x86_newlib/bin/../lib/gcc/x86_64-nacl/4.4.3/crtbegin.o
 .rela.text._ZL17parse_lsda_headerP15_Unwind_ContextPKhP16lsda_header_info
                0x0000000000000000        0x0 /Users/stevefar/nacl_sdk/pepper_45/toolchain/mac_x86_newlib/bin/../lib/gcc/x86_64-nacl/4.4.3/crtbegin.o
 .rela.text._ZL15get_ttype_entryP16lsda_header_infom
                0x0000000000000000        0x0 /Users/stevefar/nacl_sdk/pepper_45/toolchain/mac_x86_newlib/bin/../lib/gcc/x86_64-nacl/4.4.3/crtbegin.o
 .rela.text.__cxa_call_unexpected
                0x0000000000000000        0x0 /Users/stevefar/nacl_sdk/pepper_45/toolchain/mac_x86_newlib/bin/../lib/gcc/x86_64-nacl/4.4.3/crtbegin.o
 .rela.text.__gxx_personality_v0
                0x0000000000000000        0x0 /Users/stevefar/nacl_sdk/pepper_45/toolchain/mac_x86_newlib/bin/../lib/gcc/x86_64-nacl/4.4.3/crtbegin.o
 .rela.text._ZSt13set_terminatePFvvE
                0x0000000000000000        0x0 /Users/stevefar/nacl_sdk/pepper_45/toolchain/mac_x86_newlib/bin/../lib/gcc/x86_64-nacl/4.4.3/crtbegin.o
 .rela.text._ZSt14set_unexpectedPFvvE
                0x0000000000000000        0x0 /Users/stevefar/nacl_sdk/pepper_45/toolchain/mac_x86_newlib/bin/../lib/gcc/x86_64-nacl/4.4.3/crtbegin.o
 .rela.text._ZN10__cxxabiv111__terminateEPFvvE
                0x0000000000000000        0x0 /Users/stevefar/nacl_sdk/pepper_45/toolchain/mac_x86_newlib/bin/../lib/gcc/x86_64-nacl/4.4.3/crtbegin.o
 .rela.text._ZSt9terminatev
                0x0000000000000000        0x0 /Users/stevefar/nacl_sdk/pepper_45/toolchain/mac_x86_newlib/bin/../lib/gcc/x86_64-nacl/4.4.3/crtbegin.o
 .rela.text._ZSt10unexpectedv
                0x0000000000000000        0x0 /Users/stevefar/nacl_sdk/pepper_45/toolchain/mac_x86_newlib/bin/../lib/gcc/x86_64-nacl/4.4.3/crtbegin.o
 .rela.text.__cxa_rethrow
                0x0000000000000000        0x0 /Users/stevefar/nacl_sdk/pepper_45/toolchain/mac_x86_newlib/bin/../lib/gcc/x86_64-nacl/4.4.3/crtbegin.o
 .rela.text.__cxa_throw
                0x0000000000000000        0x0 /Users/stevefar/nacl_sdk/pepper_45/toolchain/mac_x86_newlib/bin/../lib/gcc/x86_64-nacl/4.4.3/crtbegin.o
 .rela.text._ZL23__gxx_exception_cleanup19_Unwind_Reason_CodeP17_Unwind_Exception
                0x0000000000000000        0x0 /Users/stevefar/nacl_sdk/pepper_45/toolchain/mac_x86_newlib/bin/../lib/gcc/x86_64-nacl/4.4.3/crtbegin.o
 .rela.text._ZN10__cxxabiv1L7acquireEPx
                0x0000000000000000        0x0 /Users/stevefar/nacl_sdk/pepper_45/toolchain/mac_x86_newlib/bin/../lib/gcc/x86_64-nacl/4.4.3/crtbegin.o
 .rela.text._ZN9__gnu_cxx26__concurrence_unlock_errorD1Ev
                0x0000000000000000        0x0 /Users/stevefar/nacl_sdk/pepper_45/toolchain/mac_x86_newlib/bin/../lib/gcc/x86_64-nacl/4.4.3/crtbegin.o
 .rela.text._ZN9__gnu_cxx24__concurrence_lock_errorD1Ev
                0x0000000000000000        0x0 /Users/stevefar/nacl_sdk/pepper_45/toolchain/mac_x86_newlib/bin/../lib/gcc/x86_64-nacl/4.4.3/crtbegin.o
 .rela.text._ZN9__gnu_cxx20recursive_init_errorD1Ev
                0x0000000000000000        0x0 /Users/stevefar/nacl_sdk/pepper_45/toolchain/mac_x86_newlib/bin/../lib/gcc/x86_64-nacl/4.4.3/crtbegin.o
 .rela.text._ZN9__gnu_cxx20recursive_init_errorD2Ev
                0x0000000000000000        0x0 /Users/stevefar/nacl_sdk/pepper_45/toolchain/mac_x86_newlib/bin/../lib/gcc/x86_64-nacl/4.4.3/crtbegin.o
 .rela.text._ZN9__gnu_cxx26__concurrence_unlock_errorD0Ev
                0x0000000000000000        0x0 /Users/stevefar/nacl_sdk/pepper_45/toolchain/mac_x86_newlib/bin/../lib/gcc/x86_64-nacl/4.4.3/crtbegin.o
 .rela.text._ZN9__gnu_cxx24__concurrence_lock_errorD0Ev
                0x0000000000000000        0x0 /Users/stevefar/nacl_sdk/pepper_45/toolchain/mac_x86_newlib/bin/../lib/gcc/x86_64-nacl/4.4.3/crtbegin.o
 .rela.text._ZN9__gnu_cxx20recursive_init_errorD0Ev
                0x0000000000000000        0x0 /Users/stevefar/nacl_sdk/pepper_45/toolchain/mac_x86_newlib/bin/../lib/gcc/x86_64-nacl/4.4.3/crtbegin.o
 .rela.text.__cxa_guard_release
                0x0000000000000000        0x0 /Users/stevefar/nacl_sdk/pepper_45/toolchain/mac_x86_newlib/bin/../lib/gcc/x86_64-nacl/4.4.3/crtbegin.o
 .rela.text.__cxa_guard_abort
                0x0000000000000000        0x0 /Users/stevefar/nacl_sdk/pepper_45/toolchain/mac_x86_newlib/bin/../lib/gcc/x86_64-nacl/4.4.3/crtbegin.o
 .rela.text.__cxa_guard_acquire
                0x0000000000000000        0x0 /Users/stevefar/nacl_sdk/pepper_45/toolchain/mac_x86_newlib/bin/../lib/gcc/x86_64-nacl/4.4.3/crtbegin.o
 .rela.text._Znwj
                0x0000000000000000        0x0 /Users/stevefar/nacl_sdk/pepper_45/toolchain/mac_x86_newlib/bin/../lib/gcc/x86_64-nacl/4.4.3/crtbegin.o
 .rela.text.__cxa_pure_virtual
                0x0000000000000000        0x0 /Users/stevefar/nacl_sdk/pepper_45/toolchain/mac_x86_newlib/bin/../lib/gcc/x86_64-nacl/4.4.3/crtbegin.o
 .rela.text._ZN10__cxxabiv120__si_class_type_infoD1Ev
                0x0000000000000000        0x0 /Users/stevefar/nacl_sdk/pepper_45/toolchain/mac_x86_newlib/bin/../lib/gcc/x86_64-nacl/4.4.3/crtbegin.o
 .rela.text._ZN10__cxxabiv120__si_class_type_infoD2Ev
                0x0000000000000000        0x0 /Users/stevefar/nacl_sdk/pepper_45/toolchain/mac_x86_newlib/bin/../lib/gcc/x86_64-nacl/4.4.3/crtbegin.o
 .rela.text._ZN10__cxxabiv120__si_class_type_infoD0Ev
                0x0000000000000000        0x0 /Users/stevefar/nacl_sdk/pepper_45/toolchain/mac_x86_newlib/bin/../lib/gcc/x86_64-nacl/4.4.3/crtbegin.o
 .rela.text._ZNSt9type_infoD2Ev
                0x0000000000000000        0x0 /Users/stevefar/nacl_sdk/pepper_45/toolchain/mac_x86_newlib/bin/../lib/gcc/x86_64-nacl/4.4.3/crtbegin.o
 .rela.text._ZNSt9type_infoD1Ev
                0x0000000000000000        0x0 /Users/stevefar/nacl_sdk/pepper_45/toolchain/mac_x86_newlib/bin/../lib/gcc/x86_64-nacl/4.4.3/crtbegin.o
 .rela.text._ZNSt9type_infoD0Ev
                0x0000000000000000        0x0 /Users/stevefar/nacl_sdk/pepper_45/toolchain/mac_x86_newlib/bin/../lib/gcc/x86_64-nacl/4.4.3/crtbegin.o
 .rela.text._ZSt18__throw_bad_typeidv
                0x0000000000000000        0x0 /Users/stevefar/nacl_sdk/pepper_45/toolchain/mac_x86_newlib/bin/../lib/gcc/x86_64-nacl/4.4.3/crtbegin.o
 .rela.text._ZSt16__throw_bad_castv
                0x0000000000000000        0x0 /Users/stevefar/nacl_sdk/pepper_45/toolchain/mac_x86_newlib/bin/../lib/gcc/x86_64-nacl/4.4.3/crtbegin.o
 .rela.text._ZSt17__throw_bad_allocv
                0x0000000000000000        0x0 /Users/stevefar/nacl_sdk/pepper_45/toolchain/mac_x86_newlib/bin/../lib/gcc/x86_64-nacl/4.4.3/crtbegin.o
 .rela.text._ZSt21__throw_bad_exceptionv
                0x0000000000000000        0x0 /Users/stevefar/nacl_sdk/pepper_45/toolchain/mac_x86_newlib/bin/../lib/gcc/x86_64-nacl/4.4.3/crtbegin.o
 .rela.text._ZNSt15underflow_errorD1Ev
                0x0000000000000000        0x0 /Users/stevefar/nacl_sdk/pepper_45/toolchain/mac_x86_newlib/bin/../lib/gcc/x86_64-nacl/4.4.3/crtbegin.o
 .rela.text._ZNSt14overflow_errorD1Ev
                0x0000000000000000        0x0 /Users/stevefar/nacl_sdk/pepper_45/toolchain/mac_x86_newlib/bin/../lib/gcc/x86_64-nacl/4.4.3/crtbegin.o
 .rela.text._ZNSt11range_errorD1Ev
                0x0000000000000000        0x0 /Users/stevefar/nacl_sdk/pepper_45/toolchain/mac_x86_newlib/bin/../lib/gcc/x86_64-nacl/4.4.3/crtbegin.o
 .rela.text._ZNSt15underflow_errorD0Ev
                0x0000000000000000        0x0 /Users/stevefar/nacl_sdk/pepper_45/toolchain/mac_x86_newlib/bin/../lib/gcc/x86_64-nacl/4.4.3/crtbegin.o
 .rela.text._ZNSt14overflow_errorD0Ev
                0x0000000000000000        0x0 /Users/stevefar/nacl_sdk/pepper_45/toolchain/mac_x86_newlib/bin/../lib/gcc/x86_64-nacl/4.4.3/crtbegin.o
 .rela.text._ZNSt11range_errorD0Ev
                0x0000000000000000        0x0 /Users/stevefar/nacl_sdk/pepper_45/toolchain/mac_x86_newlib/bin/../lib/gcc/x86_64-nacl/4.4.3/crtbegin.o
 .rela.text._ZNSt12out_of_rangeD1Ev
                0x0000000000000000        0x0 /Users/stevefar/nacl_sdk/pepper_45/toolchain/mac_x86_newlib/bin/../lib/gcc/x86_64-nacl/4.4.3/crtbegin.o
 .rela.text._ZNSt12out_of_rangeD0Ev
                0x0000000000000000        0x0 /Users/stevefar/nacl_sdk/pepper_45/toolchain/mac_x86_newlib/bin/../lib/gcc/x86_64-nacl/4.4.3/crtbegin.o
 .rela.text._ZNSt12length_errorD1Ev
                0x0000000000000000        0x0 /Users/stevefar/nacl_sdk/pepper_45/toolchain/mac_x86_newlib/bin/../lib/gcc/x86_64-nacl/4.4.3/crtbegin.o
 .rela.text._ZNSt12length_errorD0Ev
                0x0000000000000000        0x0 /Users/stevefar/nacl_sdk/pepper_45/toolchain/mac_x86_newlib/bin/../lib/gcc/x86_64-nacl/4.4.3/crtbegin.o
 .rela.text._ZNSt16invalid_argumentD1Ev
                0x0000000000000000        0x0 /Users/stevefar/nacl_sdk/pepper_45/toolchain/mac_x86_newlib/bin/../lib/gcc/x86_64-nacl/4.4.3/crtbegin.o
 .rela.text._ZNSt16invalid_argumentD0Ev
                0x0000000000000000        0x0 /Users/stevefar/nacl_sdk/pepper_45/toolchain/mac_x86_newlib/bin/../lib/gcc/x86_64-nacl/4.4.3/crtbegin.o
 .rela.text._ZNSt12domain_errorD1Ev
                0x0000000000000000        0x0 /Users/stevefar/nacl_sdk/pepper_45/toolchain/mac_x86_newlib/bin/../lib/gcc/x86_64-nacl/4.4.3/crtbegin.o
 .rela.text._ZNSt12domain_errorD0Ev
                0x0000000000000000        0x0 /Users/stevefar/nacl_sdk/pepper_45/toolchain/mac_x86_newlib/bin/../lib/gcc/x86_64-nacl/4.4.3/crtbegin.o
 .rela.text._ZSt20__throw_system_errori
                0x0000000000000000        0x0 /Users/stevefar/nacl_sdk/pepper_45/toolchain/mac_x86_newlib/bin/../lib/gcc/x86_64-nacl/4.4.3/crtbegin.o
 .rela.text._ZSt19__throw_ios_failurePKc
                0x0000000000000000        0x0 /Users/stevefar/nacl_sdk/pepper_45/toolchain/mac_x86_newlib/bin/../lib/gcc/x86_64-nacl/4.4.3/crtbegin.o
 .rela.text._ZSt23__throw_underflow_errorPKc
                0x0000000000000000        0x0 /Users/stevefar/nacl_sdk/pepper_45/toolchain/mac_x86_newlib/bin/../lib/gcc/x86_64-nacl/4.4.3/crtbegin.o
 .rela.text._ZSt22__throw_overflow_errorPKc
                0x0000000000000000        0x0 /Users/stevefar/nacl_sdk/pepper_45/toolchain/mac_x86_newlib/bin/../lib/gcc/x86_64-nacl/4.4.3/crtbegin.o
 .rela.text._ZSt19__throw_range_errorPKc
                0x0000000000000000        0x0 /Users/stevefar/nacl_sdk/pepper_45/toolchain/mac_x86_newlib/bin/../lib/gcc/x86_64-nacl/4.4.3/crtbegin.o
 .rela.text._ZSt21__throw_runtime_errorPKc
                0x0000000000000000        0x0 /Users/stevefar/nacl_sdk/pepper_45/toolchain/mac_x86_newlib/bin/../lib/gcc/x86_64-nacl/4.4.3/crtbegin.o
 .rela.text._ZSt20__throw_out_of_rangePKc
                0x0000000000000000        0x0 /Users/stevefar/nacl_sdk/pepper_45/toolchain/mac_x86_newlib/bin/../lib/gcc/x86_64-nacl/4.4.3/crtbegin.o
 .rela.text._ZSt20__throw_length_errorPKc
                0x0000000000000000        0x0 /Users/stevefar/nacl_sdk/pepper_45/toolchain/mac_x86_newlib/bin/../lib/gcc/x86_64-nacl/4.4.3/crtbegin.o
 .rela.text._ZSt24__throw_invalid_argumentPKc
                0x0000000000000000        0x0 /Users/stevefar/nacl_sdk/pepper_45/toolchain/mac_x86_newlib/bin/../lib/gcc/x86_64-nacl/4.4.3/crtbegin.o
 .rela.text._ZSt20__throw_domain_errorPKc
                0x0000000000000000        0x0 /Users/stevefar/nacl_sdk/pepper_45/toolchain/mac_x86_newlib/bin/../lib/gcc/x86_64-nacl/4.4.3/crtbegin.o
 .rela.text._ZSt19__throw_logic_errorPKc
                0x0000000000000000        0x0 /Users/stevefar/nacl_sdk/pepper_45/toolchain/mac_x86_newlib/bin/../lib/gcc/x86_64-nacl/4.4.3/crtbegin.o
 .rela.text._ZNSt8ios_base7failureC1ERKSs
                0x0000000000000000        0x0 /Users/stevefar/nacl_sdk/pepper_45/toolchain/mac_x86_newlib/bin/../lib/gcc/x86_64-nacl/4.4.3/crtbegin.o
 .rela.text._ZNSt8ios_base7failureC2ERKSs
                0x0000000000000000        0x0 /Users/stevefar/nacl_sdk/pepper_45/toolchain/mac_x86_newlib/bin/../lib/gcc/x86_64-nacl/4.4.3/crtbegin.o
 .rela.text._ZNSt8ios_base7failureD0Ev
                0x0000000000000000        0x0 /Users/stevefar/nacl_sdk/pepper_45/toolchain/mac_x86_newlib/bin/../lib/gcc/x86_64-nacl/4.4.3/crtbegin.o
 .rela.text._ZNSt8ios_base7failureD1Ev
                0x0000000000000000        0x0 /Users/stevefar/nacl_sdk/pepper_45/toolchain/mac_x86_newlib/bin/../lib/gcc/x86_64-nacl/4.4.3/crtbegin.o
 .rela.text._ZNSt8ios_base7failureD2Ev
                0x0000000000000000        0x0 /Users/stevefar/nacl_sdk/pepper_45/toolchain/mac_x86_newlib/bin/../lib/gcc/x86_64-nacl/4.4.3/crtbegin.o
 .rela.text._ZNSt13runtime_errorC1ERKSs
                0x0000000000000000        0x0 /Users/stevefar/nacl_sdk/pepper_45/toolchain/mac_x86_newlib/bin/../lib/gcc/x86_64-nacl/4.4.3/crtbegin.o
 .rela.text._ZNSt13runtime_errorC2ERKSs
                0x0000000000000000        0x0 /Users/stevefar/nacl_sdk/pepper_45/toolchain/mac_x86_newlib/bin/../lib/gcc/x86_64-nacl/4.4.3/crtbegin.o
 .rela.text._ZNSt15underflow_errorC1ERKSs
                0x0000000000000000        0x0 /Users/stevefar/nacl_sdk/pepper_45/toolchain/mac_x86_newlib/bin/../lib/gcc/x86_64-nacl/4.4.3/crtbegin.o
 .rela.text._ZNSt15underflow_errorC2ERKSs
                0x0000000000000000        0x0 /Users/stevefar/nacl_sdk/pepper_45/toolchain/mac_x86_newlib/bin/../lib/gcc/x86_64-nacl/4.4.3/crtbegin.o
 .rela.text._ZNSt14overflow_errorC1ERKSs
                0x0000000000000000        0x0 /Users/stevefar/nacl_sdk/pepper_45/toolchain/mac_x86_newlib/bin/../lib/gcc/x86_64-nacl/4.4.3/crtbegin.o
 .rela.text._ZNSt14overflow_errorC2ERKSs
                0x0000000000000000        0x0 /Users/stevefar/nacl_sdk/pepper_45/toolchain/mac_x86_newlib/bin/../lib/gcc/x86_64-nacl/4.4.3/crtbegin.o
 .rela.text._ZNSt11range_errorC1ERKSs
                0x0000000000000000        0x0 /Users/stevefar/nacl_sdk/pepper_45/toolchain/mac_x86_newlib/bin/../lib/gcc/x86_64-nacl/4.4.3/crtbegin.o
 .rela.text._ZNSt11range_errorC2ERKSs
                0x0000000000000000        0x0 /Users/stevefar/nacl_sdk/pepper_45/toolchain/mac_x86_newlib/bin/../lib/gcc/x86_64-nacl/4.4.3/crtbegin.o
 .rela.text._ZNSt11logic_errorC1ERKSs
                0x0000000000000000        0x0 /Users/stevefar/nacl_sdk/pepper_45/toolchain/mac_x86_newlib/bin/../lib/gcc/x86_64-nacl/4.4.3/crtbegin.o
 .rela.text._ZNSt11logic_errorC2ERKSs
                0x0000000000000000        0x0 /Users/stevefar/nacl_sdk/pepper_45/toolchain/mac_x86_newlib/bin/../lib/gcc/x86_64-nacl/4.4.3/crtbegin.o
 .rela.text._ZNSt12out_of_rangeC1ERKSs
                0x0000000000000000        0x0 /Users/stevefar/nacl_sdk/pepper_45/toolchain/mac_x86_newlib/bin/../lib/gcc/x86_64-nacl/4.4.3/crtbegin.o
 .rela.text._ZNSt12out_of_rangeC2ERKSs
                0x0000000000000000        0x0 /Users/stevefar/nacl_sdk/pepper_45/toolchain/mac_x86_newlib/bin/../lib/gcc/x86_64-nacl/4.4.3/crtbegin.o
 .rela.text._ZNSt12length_errorC1ERKSs
                0x0000000000000000        0x0 /Users/stevefar/nacl_sdk/pepper_45/toolchain/mac_x86_newlib/bin/../lib/gcc/x86_64-nacl/4.4.3/crtbegin.o
 .rela.text._ZNSt12length_errorC2ERKSs
                0x0000000000000000        0x0 /Users/stevefar/nacl_sdk/pepper_45/toolchain/mac_x86_newlib/bin/../lib/gcc/x86_64-nacl/4.4.3/crtbegin.o
 .rela.text._ZNSt16invalid_argumentC1ERKSs
                0x0000000000000000        0x0 /Users/stevefar/nacl_sdk/pepper_45/toolchain/mac_x86_newlib/bin/../lib/gcc/x86_64-nacl/4.4.3/crtbegin.o
 .rela.text._ZNSt16invalid_argumentC2ERKSs
                0x0000000000000000        0x0 /Users/stevefar/nacl_sdk/pepper_45/toolchain/mac_x86_newlib/bin/../lib/gcc/x86_64-nacl/4.4.3/crtbegin.o
 .rela.text._ZNSt12domain_errorC1ERKSs
                0x0000000000000000        0x0 /Users/stevefar/nacl_sdk/pepper_45/toolchain/mac_x86_newlib/bin/../lib/gcc/x86_64-nacl/4.4.3/crtbegin.o
 .rela.text._ZNSt12domain_errorC2ERKSs
                0x0000000000000000        0x0 /Users/stevefar/nacl_sdk/pepper_45/toolchain/mac_x86_newlib/bin/../lib/gcc/x86_64-nacl/4.4.3/crtbegin.o
 .rela.text._ZNSt13runtime_errorD2Ev
                0x0000000000000000        0x0 /Users/stevefar/nacl_sdk/pepper_45/toolchain/mac_x86_newlib/bin/../lib/gcc/x86_64-nacl/4.4.3/crtbegin.o
 .rela.text._ZNSt11logic_errorD1Ev
                0x0000000000000000        0x0 /Users/stevefar/nacl_sdk/pepper_45/toolchain/mac_x86_newlib/bin/../lib/gcc/x86_64-nacl/4.4.3/crtbegin.o
 .rela.text._ZNSt11logic_errorD2Ev
                0x0000000000000000        0x0 /Users/stevefar/nacl_sdk/pepper_45/toolchain/mac_x86_newlib/bin/../lib/gcc/x86_64-nacl/4.4.3/crtbegin.o
 .rela.text._ZNSt13runtime_errorD0Ev
                0x0000000000000000        0x0 /Users/stevefar/nacl_sdk/pepper_45/toolchain/mac_x86_newlib/bin/../lib/gcc/x86_64-nacl/4.4.3/crtbegin.o
 .rela.text._ZNSt13runtime_errorD1Ev
                0x0000000000000000        0x0 /Users/stevefar/nacl_sdk/pepper_45/toolchain/mac_x86_newlib/bin/../lib/gcc/x86_64-nacl/4.4.3/crtbegin.o
 .rela.text._ZNSt11logic_errorD0Ev
                0x0000000000000000        0x0 /Users/stevefar/nacl_sdk/pepper_45/toolchain/mac_x86_newlib/bin/../lib/gcc/x86_64-nacl/4.4.3/crtbegin.o
 .rela.text._ZNSt14error_categoryD1Ev
                0x0000000000000000        0x0 /Users/stevefar/nacl_sdk/pepper_45/toolchain/mac_x86_newlib/bin/../lib/gcc/x86_64-nacl/4.4.3/crtbegin.o
 .rela.text._ZN12_GLOBAL__N_122generic_error_categoryD1Ev
                0x0000000000000000        0x0 /Users/stevefar/nacl_sdk/pepper_45/toolchain/mac_x86_newlib/bin/../lib/gcc/x86_64-nacl/4.4.3/crtbegin.o
 .rela.text._ZN12_GLOBAL__N_121system_error_categoryD1Ev
                0x0000000000000000        0x0 /Users/stevefar/nacl_sdk/pepper_45/toolchain/mac_x86_newlib/bin/../lib/gcc/x86_64-nacl/4.4.3/crtbegin.o
 .rela.text._ZNSt14error_categoryD0Ev
                0x0000000000000000        0x0 /Users/stevefar/nacl_sdk/pepper_45/toolchain/mac_x86_newlib/bin/../lib/gcc/x86_64-nacl/4.4.3/crtbegin.o
 .rela.text._ZN12_GLOBAL__N_122generic_error_categoryD0Ev
                0x0000000000000000        0x0 /Users/stevefar/nacl_sdk/pepper_45/toolchain/mac_x86_newlib/bin/../lib/gcc/x86_64-nacl/4.4.3/crtbegin.o
 .rela.text._ZN12_GLOBAL__N_121system_error_categoryD0Ev
                0x0000000000000000        0x0 /Users/stevefar/nacl_sdk/pepper_45/toolchain/mac_x86_newlib/bin/../lib/gcc/x86_64-nacl/4.4.3/crtbegin.o
 .rela.text._GLOBAL__I__ZSt15system_categoryv
                0x0000000000000000        0x0 /Users/stevefar/nacl_sdk/pepper_45/toolchain/mac_x86_newlib/bin/../lib/gcc/x86_64-nacl/4.4.3/crtbegin.o
 .rela.text._ZNK12_GLOBAL__N_122generic_error_category7messageEi
                0x0000000000000000        0x0 /Users/stevefar/nacl_sdk/pepper_45/toolchain/mac_x86_newlib/bin/../lib/gcc/x86_64-nacl/4.4.3/crtbegin.o
 .rela.text._ZNK12_GLOBAL__N_121system_error_category7messageEi
                0x0000000000000000        0x0 /Users/stevefar/nacl_sdk/pepper_45/toolchain/mac_x86_newlib/bin/../lib/gcc/x86_64-nacl/4.4.3/crtbegin.o
 .rela.text._ZNSt12system_errorD0Ev
                0x0000000000000000        0x0 /Users/stevefar/nacl_sdk/pepper_45/toolchain/mac_x86_newlib/bin/../lib/gcc/x86_64-nacl/4.4.3/crtbegin.o
 .rela.text._ZNSt12system_errorD1Ev
                0x0000000000000000        0x0 /Users/stevefar/nacl_sdk/pepper_45/toolchain/mac_x86_newlib/bin/../lib/gcc/x86_64-nacl/4.4.3/crtbegin.o
 .rela.text._ZNSt12system_errorD2Ev
                0x0000000000000000        0x0 /Users/stevefar/nacl_sdk/pepper_45/toolchain/mac_x86_newlib/bin/../lib/gcc/x86_64-nacl/4.4.3/crtbegin.o
 .rela.text._ZNSt8bad_castD1Ev
                0x0000000000000000        0x0 /Users/stevefar/nacl_sdk/pepper_45/toolchain/mac_x86_newlib/bin/../lib/gcc/x86_64-nacl/4.4.3/crtbegin.o
 .rela.text._ZNSt8bad_castD2Ev
                0x0000000000000000        0x0 /Users/stevefar/nacl_sdk/pepper_45/toolchain/mac_x86_newlib/bin/../lib/gcc/x86_64-nacl/4.4.3/crtbegin.o
 .rela.text._ZNSt8bad_castD0Ev
                0x0000000000000000        0x0 /Users/stevefar/nacl_sdk/pepper_45/toolchain/mac_x86_newlib/bin/../lib/gcc/x86_64-nacl/4.4.3/crtbegin.o
 .rela.text._ZNSt10bad_typeidD1Ev
                0x0000000000000000        0x0 /Users/stevefar/nacl_sdk/pepper_45/toolchain/mac_x86_newlib/bin/../lib/gcc/x86_64-nacl/4.4.3/crtbegin.o
 .rela.text._ZNSt10bad_typeidD2Ev
                0x0000000000000000        0x0 /Users/stevefar/nacl_sdk/pepper_45/toolchain/mac_x86_newlib/bin/../lib/gcc/x86_64-nacl/4.4.3/crtbegin.o
 .rela.text._ZNSt10bad_typeidD0Ev
                0x0000000000000000        0x0 /Users/stevefar/nacl_sdk/pepper_45/toolchain/mac_x86_newlib/bin/../lib/gcc/x86_64-nacl/4.4.3/crtbegin.o
 .rela.text._ZN9__gnu_cxx13__scoped_lockD1Ev
                0x0000000000000000        0x0 /Users/stevefar/nacl_sdk/pepper_45/toolchain/mac_x86_newlib/bin/../lib/gcc/x86_64-nacl/4.4.3/crtbegin.o
 .rela.text.__cxa_free_dependent_exception
                0x0000000000000000        0x0 /Users/stevefar/nacl_sdk/pepper_45/toolchain/mac_x86_newlib/bin/../lib/gcc/x86_64-nacl/4.4.3/crtbegin.o
 .rela.text.__cxa_free_exception
                0x0000000000000000        0x0 /Users/stevefar/nacl_sdk/pepper_45/toolchain/mac_x86_newlib/bin/../lib/gcc/x86_64-nacl/4.4.3/crtbegin.o
 .rela.text.__cxa_allocate_exception
                0x0000000000000000        0x0 /Users/stevefar/nacl_sdk/pepper_45/toolchain/mac_x86_newlib/bin/../lib/gcc/x86_64-nacl/4.4.3/crtbegin.o
 .rela.text.__cxa_allocate_dependent_exception
                0x0000000000000000        0x0 /Users/stevefar/nacl_sdk/pepper_45/toolchain/mac_x86_newlib/bin/../lib/gcc/x86_64-nacl/4.4.3/crtbegin.o
 .rela.text._ZNSt9exceptionD2Ev
                0x0000000000000000        0x0 /Users/stevefar/nacl_sdk/pepper_45/toolchain/mac_x86_newlib/bin/../lib/gcc/x86_64-nacl/4.4.3/crtbegin.o
 .rela.text._ZNSt9exceptionD1Ev
                0x0000000000000000        0x0 /Users/stevefar/nacl_sdk/pepper_45/toolchain/mac_x86_newlib/bin/../lib/gcc/x86_64-nacl/4.4.3/crtbegin.o
 .rela.text._ZNSt13bad_exceptionD2Ev
                0x0000000000000000        0x0 /Users/stevefar/nacl_sdk/pepper_45/toolchain/mac_x86_newlib/bin/../lib/gcc/x86_64-nacl/4.4.3/crtbegin.o
 .rela.text._ZNSt13bad_exceptionD1Ev
                0x0000000000000000        0x0 /Users/stevefar/nacl_sdk/pepper_45/toolchain/mac_x86_newlib/bin/../lib/gcc/x86_64-nacl/4.4.3/crtbegin.o
 .rela.text._ZN10__cxxabiv115__forced_unwindD2Ev
                0x0000000000000000        0x0 /Users/stevefar/nacl_sdk/pepper_45/toolchain/mac_x86_newlib/bin/../lib/gcc/x86_64-nacl/4.4.3/crtbegin.o
 .rela.text._ZN10__cxxabiv115__forced_unwindD1Ev
                0x0000000000000000        0x0 /Users/stevefar/nacl_sdk/pepper_45/toolchain/mac_x86_newlib/bin/../lib/gcc/x86_64-nacl/4.4.3/crtbegin.o
 .rela.text._ZN10__cxxabiv119__foreign_exceptionD2Ev
                0x0000000000000000        0x0 /Users/stevefar/nacl_sdk/pepper_45/toolchain/mac_x86_newlib/bin/../lib/gcc/x86_64-nacl/4.4.3/crtbegin.o
 .rela.text._ZN10__cxxabiv119__foreign_exceptionD1Ev
                0x0000000000000000        0x0 /Users/stevefar/nacl_sdk/pepper_45/toolchain/mac_x86_newlib/bin/../lib/gcc/x86_64-nacl/4.4.3/crtbegin.o
 .rela.text._ZN10__cxxabiv119__foreign_exceptionD0Ev
                0x0000000000000000        0x0 /Users/stevefar/nacl_sdk/pepper_45/toolchain/mac_x86_newlib/bin/../lib/gcc/x86_64-nacl/4.4.3/crtbegin.o
 .rela.text._ZN10__cxxabiv115__forced_unwindD0Ev
                0x0000000000000000        0x0 /Users/stevefar/nacl_sdk/pepper_45/toolchain/mac_x86_newlib/bin/../lib/gcc/x86_64-nacl/4.4.3/crtbegin.o
 .rela.text._ZNSt9exceptionD0Ev
                0x0000000000000000        0x0 /Users/stevefar/nacl_sdk/pepper_45/toolchain/mac_x86_newlib/bin/../lib/gcc/x86_64-nacl/4.4.3/crtbegin.o
 .rela.text._ZNSt13bad_exceptionD0Ev
                0x0000000000000000        0x0 /Users/stevefar/nacl_sdk/pepper_45/toolchain/mac_x86_newlib/bin/../lib/gcc/x86_64-nacl/4.4.3/crtbegin.o
 .rela.text._ZNSt9bad_allocD1Ev
                0x0000000000000000        0x0 /Users/stevefar/nacl_sdk/pepper_45/toolchain/mac_x86_newlib/bin/../lib/gcc/x86_64-nacl/4.4.3/crtbegin.o
 .rela.text._ZNSt9bad_allocD2Ev
                0x0000000000000000        0x0 /Users/stevefar/nacl_sdk/pepper_45/toolchain/mac_x86_newlib/bin/../lib/gcc/x86_64-nacl/4.4.3/crtbegin.o
 .rela.text._ZNSt9bad_allocD0Ev
                0x0000000000000000        0x0 /Users/stevefar/nacl_sdk/pepper_45/toolchain/mac_x86_newlib/bin/../lib/gcc/x86_64-nacl/4.4.3/crtbegin.o
 .rela.text._ZN9__gnu_cxx27__verbose_terminate_handlerEv
                0x0000000000000000        0x0 /Users/stevefar/nacl_sdk/pepper_45/toolchain/mac_x86_newlib/bin/../lib/gcc/x86_64-nacl/4.4.3/crtbegin.o
 *(.rela.fini)
 *(.rela.rodata .rela.rodata.* .rela.gnu.linkonce.r.*)
 .rela.rodata._ZTV6Module
                0x0000000000000000        0x0 /Users/stevefar/nacl_sdk/pepper_45/toolchain/mac_x86_newlib/bin/../lib/gcc/x86_64-nacl/4.4.3/crtbegin.o
 .rela.rodata._ZTI6Module
                0x0000000000000000        0x0 /Users/stevefar/nacl_sdk/pepper_45/toolchain/mac_x86_newlib/bin/../lib/gcc/x86_64-nacl/4.4.3/crtbegin.o
 .rela.rodata._ZTV8Instance
                0x0000000000000000        0x0 /Users/stevefar/nacl_sdk/pepper_45/toolchain/mac_x86_newlib/bin/../lib/gcc/x86_64-nacl/4.4.3/crtbegin.o
 .rela.rodata._ZTI8Instance
                0x0000000000000000        0x0 /Users/stevefar/nacl_sdk/pepper_45/toolchain/mac_x86_newlib/bin/../lib/gcc/x86_64-nacl/4.4.3/crtbegin.o
 .rela.rodata._ZTVN2pp8InstanceE
                0x0000000000000000        0x0 /Users/stevefar/nacl_sdk/pepper_45/toolchain/mac_x86_newlib/bin/../lib/gcc/x86_64-nacl/4.4.3/crtbegin.o
 .rela.rodata._ZTIN2pp8InstanceE
                0x0000000000000000        0x0 /Users/stevefar/nacl_sdk/pepper_45/toolchain/mac_x86_newlib/bin/../lib/gcc/x86_64-nacl/4.4.3/crtbegin.o
 .rela.rodata._ZTVN2pp6ModuleE
                0x0000000000000000        0x0 /Users/stevefar/nacl_sdk/pepper_45/toolchain/mac_x86_newlib/bin/../lib/gcc/x86_64-nacl/4.4.3/crtbegin.o
 .rela.rodata._ZTIN2pp6ModuleE
                0x0000000000000000        0x0 /Users/stevefar/nacl_sdk/pepper_45/toolchain/mac_x86_newlib/bin/../lib/gcc/x86_64-nacl/4.4.3/crtbegin.o
 .rela.rodata._ZTVN2pp9URLLoaderE
                0x0000000000000000        0x0 /Users/stevefar/nacl_sdk/pepper_45/toolchain/mac_x86_newlib/bin/../lib/gcc/x86_64-nacl/4.4.3/crtbegin.o
 .rela.rodata._ZTIN2pp9URLLoaderE
                0x0000000000000000        0x0 /Users/stevefar/nacl_sdk/pepper_45/toolchain/mac_x86_newlib/bin/../lib/gcc/x86_64-nacl/4.4.3/crtbegin.o
 .rela.rodata._ZTVN2pp4ViewE
                0x0000000000000000        0x0 /Users/stevefar/nacl_sdk/pepper_45/toolchain/mac_x86_newlib/bin/../lib/gcc/x86_64-nacl/4.4.3/crtbegin.o
 .rela.rodata._ZTIN2pp4ViewE
                0x0000000000000000        0x0 /Users/stevefar/nacl_sdk/pepper_45/toolchain/mac_x86_newlib/bin/../lib/gcc/x86_64-nacl/4.4.3/crtbegin.o
 .rela.rodata._ZTVN2pp8ResourceE
                0x0000000000000000        0x0 /Users/stevefar/nacl_sdk/pepper_45/toolchain/mac_x86_newlib/bin/../lib/gcc/x86_64-nacl/4.4.3/crtbegin.o
 .rela.rodata._ZTIN2pp8ResourceE
                0x0000000000000000        0x0 /Users/stevefar/nacl_sdk/pepper_45/toolchain/mac_x86_newlib/bin/../lib/gcc/x86_64-nacl/4.4.3/crtbegin.o
 .rela.rodata._ZTVN2pp15URLResponseInfoE
                0x0000000000000000        0x0 /Users/stevefar/nacl_sdk/pepper_45/toolchain/mac_x86_newlib/bin/../lib/gcc/x86_64-nacl/4.4.3/crtbegin.o
 .rela.rodata._ZTIN2pp15URLResponseInfoE
                0x0000000000000000        0x0 /Users/stevefar/nacl_sdk/pepper_45/toolchain/mac_x86_newlib/bin/../lib/gcc/x86_64-nacl/4.4.3/crtbegin.o
 .rela.rodata._ZTVN2pp7FileRefE
                0x0000000000000000        0x0 /Users/stevefar/nacl_sdk/pepper_45/toolchain/mac_x86_newlib/bin/../lib/gcc/x86_64-nacl/4.4.3/crtbegin.o
 .rela.rodata._ZTIN2pp7FileRefE
                0x0000000000000000        0x0 /Users/stevefar/nacl_sdk/pepper_45/toolchain/mac_x86_newlib/bin/../lib/gcc/x86_64-nacl/4.4.3/crtbegin.o
 .rela.rodata._ZTVN2pp3VarE
                0x0000000000000000        0x0 /Users/stevefar/nacl_sdk/pepper_45/toolchain/mac_x86_newlib/bin/../lib/gcc/x86_64-nacl/4.4.3/crtbegin.o
 .rela.rodata._ZTIN2pp3VarE
                0x0000000000000000        0x0 /Users/stevefar/nacl_sdk/pepper_45/toolchain/mac_x86_newlib/bin/../lib/gcc/x86_64-nacl/4.4.3/crtbegin.o
 .rela.rodata._ZTVN2pp10InputEventE
                0x0000000000000000        0x0 /Users/stevefar/nacl_sdk/pepper_45/toolchain/mac_x86_newlib/bin/../lib/gcc/x86_64-nacl/4.4.3/crtbegin.o
 .rela.rodata._ZTIN2pp10InputEventE
                0x0000000000000000        0x0 /Users/stevefar/nacl_sdk/pepper_45/toolchain/mac_x86_newlib/bin/../lib/gcc/x86_64-nacl/4.4.3/crtbegin.o
 .rela.rodata._ZTVN2pp13IMEInputEventE
                0x0000000000000000        0x0 /Users/stevefar/nacl_sdk/pepper_45/toolchain/mac_x86_newlib/bin/../lib/gcc/x86_64-nacl/4.4.3/crtbegin.o
 .rela.rodata._ZTIN2pp13IMEInputEventE
                0x0000000000000000        0x0 /Users/stevefar/nacl_sdk/pepper_45/toolchain/mac_x86_newlib/bin/../lib/gcc/x86_64-nacl/4.4.3/crtbegin.o
 .rela.rodata._ZTVN2pp15TouchInputEventE
                0x0000000000000000        0x0 /Users/stevefar/nacl_sdk/pepper_45/toolchain/mac_x86_newlib/bin/../lib/gcc/x86_64-nacl/4.4.3/crtbegin.o
 .rela.rodata._ZTIN2pp15TouchInputEventE
                0x0000000000000000        0x0 /Users/stevefar/nacl_sdk/pepper_45/toolchain/mac_x86_newlib/bin/../lib/gcc/x86_64-nacl/4.4.3/crtbegin.o
 .rela.rodata._ZTVN2pp18KeyboardInputEventE
                0x0000000000000000        0x0 /Users/stevefar/nacl_sdk/pepper_45/toolchain/mac_x86_newlib/bin/../lib/gcc/x86_64-nacl/4.4.3/crtbegin.o
 .rela.rodata._ZTIN2pp18KeyboardInputEventE
                0x0000000000000000        0x0 /Users/stevefar/nacl_sdk/pepper_45/toolchain/mac_x86_newlib/bin/../lib/gcc/x86_64-nacl/4.4.3/crtbegin.o
 .rela.rodata._ZTVN2pp15WheelInputEventE
                0x0000000000000000        0x0 /Users/stevefar/nacl_sdk/pepper_45/toolchain/mac_x86_newlib/bin/../lib/gcc/x86_64-nacl/4.4.3/crtbegin.o
 .rela.rodata._ZTIN2pp15WheelInputEventE
                0x0000000000000000        0x0 /Users/stevefar/nacl_sdk/pepper_45/toolchain/mac_x86_newlib/bin/../lib/gcc/x86_64-nacl/4.4.3/crtbegin.o
 .rela.rodata._ZTVN2pp15MouseInputEventE
                0x0000000000000000        0x0 /Users/stevefar/nacl_sdk/pepper_45/toolchain/mac_x86_newlib/bin/../lib/gcc/x86_64-nacl/4.4.3/crtbegin.o
 .rela.rodata._ZTIN2pp15MouseInputEventE
                0x0000000000000000        0x0 /Users/stevefar/nacl_sdk/pepper_45/toolchain/mac_x86_newlib/bin/../lib/gcc/x86_64-nacl/4.4.3/crtbegin.o
 .rela.rodata._ZTVN10__cxxabiv117__class_type_infoE
                0x0000000000000000        0x0 /Users/stevefar/nacl_sdk/pepper_45/toolchain/mac_x86_newlib/bin/../lib/gcc/x86_64-nacl/4.4.3/crtbegin.o
 .rela.rodata._ZTIN10__cxxabiv117__class_type_infoE
                0x0000000000000000        0x0 /Users/stevefar/nacl_sdk/pepper_45/toolchain/mac_x86_newlib/bin/../lib/gcc/x86_64-nacl/4.4.3/crtbegin.o
 .rela.rodata._ZTVN9__gnu_cxx20recursive_init_errorE
                0x0000000000000000        0x0 /Users/stevefar/nacl_sdk/pepper_45/toolchain/mac_x86_newlib/bin/../lib/gcc/x86_64-nacl/4.4.3/crtbegin.o
 .rela.rodata._ZTIN9__gnu_cxx20recursive_init_errorE
                0x0000000000000000        0x0 /Users/stevefar/nacl_sdk/pepper_45/toolchain/mac_x86_newlib/bin/../lib/gcc/x86_64-nacl/4.4.3/crtbegin.o
 .rela.rodata._ZTIN9__gnu_cxx26__concurrence_unlock_errorE
                0x0000000000000000        0x0 /Users/stevefar/nacl_sdk/pepper_45/toolchain/mac_x86_newlib/bin/../lib/gcc/x86_64-nacl/4.4.3/crtbegin.o
 .rela.rodata._ZTVN9__gnu_cxx26__concurrence_unlock_errorE
                0x0000000000000000        0x0 /Users/stevefar/nacl_sdk/pepper_45/toolchain/mac_x86_newlib/bin/../lib/gcc/x86_64-nacl/4.4.3/crtbegin.o
 .rela.rodata._ZTIN9__gnu_cxx24__concurrence_lock_errorE
                0x0000000000000000        0x0 /Users/stevefar/nacl_sdk/pepper_45/toolchain/mac_x86_newlib/bin/../lib/gcc/x86_64-nacl/4.4.3/crtbegin.o
 .rela.rodata._ZTVN9__gnu_cxx24__concurrence_lock_errorE
                0x0000000000000000        0x0 /Users/stevefar/nacl_sdk/pepper_45/toolchain/mac_x86_newlib/bin/../lib/gcc/x86_64-nacl/4.4.3/crtbegin.o
 .rela.rodata._ZTVN10__cxxabiv120__si_class_type_infoE
                0x0000000000000000        0x0 /Users/stevefar/nacl_sdk/pepper_45/toolchain/mac_x86_newlib/bin/../lib/gcc/x86_64-nacl/4.4.3/crtbegin.o
 .rela.rodata._ZTIN10__cxxabiv120__si_class_type_infoE
                0x0000000000000000        0x0 /Users/stevefar/nacl_sdk/pepper_45/toolchain/mac_x86_newlib/bin/../lib/gcc/x86_64-nacl/4.4.3/crtbegin.o
 .rela.rodata._ZTVSt9type_info
                0x0000000000000000        0x0 /Users/stevefar/nacl_sdk/pepper_45/toolchain/mac_x86_newlib/bin/../lib/gcc/x86_64-nacl/4.4.3/crtbegin.o
 .rela.rodata._ZTISt9type_info
                0x0000000000000000        0x0 /Users/stevefar/nacl_sdk/pepper_45/toolchain/mac_x86_newlib/bin/../lib/gcc/x86_64-nacl/4.4.3/crtbegin.o
 .rela.rodata._ZTISt15underflow_error
                0x0000000000000000        0x0 /Users/stevefar/nacl_sdk/pepper_45/toolchain/mac_x86_newlib/bin/../lib/gcc/x86_64-nacl/4.4.3/crtbegin.o
 .rela.rodata._ZTVSt15underflow_error
                0x0000000000000000        0x0 /Users/stevefar/nacl_sdk/pepper_45/toolchain/mac_x86_newlib/bin/../lib/gcc/x86_64-nacl/4.4.3/crtbegin.o
 .rela.rodata._ZTISt14overflow_error
                0x0000000000000000        0x0 /Users/stevefar/nacl_sdk/pepper_45/toolchain/mac_x86_newlib/bin/../lib/gcc/x86_64-nacl/4.4.3/crtbegin.o
 .rela.rodata._ZTVSt14overflow_error
                0x0000000000000000        0x0 /Users/stevefar/nacl_sdk/pepper_45/toolchain/mac_x86_newlib/bin/../lib/gcc/x86_64-nacl/4.4.3/crtbegin.o
 .rela.rodata._ZTISt11range_error
                0x0000000000000000        0x0 /Users/stevefar/nacl_sdk/pepper_45/toolchain/mac_x86_newlib/bin/../lib/gcc/x86_64-nacl/4.4.3/crtbegin.o
 .rela.rodata._ZTVSt11range_error
                0x0000000000000000        0x0 /Users/stevefar/nacl_sdk/pepper_45/toolchain/mac_x86_newlib/bin/../lib/gcc/x86_64-nacl/4.4.3/crtbegin.o
 .rela.rodata._ZTISt12out_of_range
                0x0000000000000000        0x0 /Users/stevefar/nacl_sdk/pepper_45/toolchain/mac_x86_newlib/bin/../lib/gcc/x86_64-nacl/4.4.3/crtbegin.o
 .rela.rodata._ZTVSt12out_of_range
                0x0000000000000000        0x0 /Users/stevefar/nacl_sdk/pepper_45/toolchain/mac_x86_newlib/bin/../lib/gcc/x86_64-nacl/4.4.3/crtbegin.o
 .rela.rodata._ZTISt12length_error
                0x0000000000000000        0x0 /Users/stevefar/nacl_sdk/pepper_45/toolchain/mac_x86_newlib/bin/../lib/gcc/x86_64-nacl/4.4.3/crtbegin.o
 .rela.rodata._ZTVSt12length_error
                0x0000000000000000        0x0 /Users/stevefar/nacl_sdk/pepper_45/toolchain/mac_x86_newlib/bin/../lib/gcc/x86_64-nacl/4.4.3/crtbegin.o
 .rela.rodata._ZTISt16invalid_argument
                0x0000000000000000        0x0 /Users/stevefar/nacl_sdk/pepper_45/toolchain/mac_x86_newlib/bin/../lib/gcc/x86_64-nacl/4.4.3/crtbegin.o
 .rela.rodata._ZTVSt16invalid_argument
                0x0000000000000000        0x0 /Users/stevefar/nacl_sdk/pepper_45/toolchain/mac_x86_newlib/bin/../lib/gcc/x86_64-nacl/4.4.3/crtbegin.o
 .rela.rodata._ZTISt12domain_error
                0x0000000000000000        0x0 /Users/stevefar/nacl_sdk/pepper_45/toolchain/mac_x86_newlib/bin/../lib/gcc/x86_64-nacl/4.4.3/crtbegin.o
 .rela.rodata._ZTVSt12domain_error
                0x0000000000000000        0x0 /Users/stevefar/nacl_sdk/pepper_45/toolchain/mac_x86_newlib/bin/../lib/gcc/x86_64-nacl/4.4.3/crtbegin.o
 .rela.rodata._ZTVNSt8ios_base7failureE
                0x0000000000000000        0x0 /Users/stevefar/nacl_sdk/pepper_45/toolchain/mac_x86_newlib/bin/../lib/gcc/x86_64-nacl/4.4.3/crtbegin.o
 .rela.rodata._ZTINSt8ios_base7failureE
                0x0000000000000000        0x0 /Users/stevefar/nacl_sdk/pepper_45/toolchain/mac_x86_newlib/bin/../lib/gcc/x86_64-nacl/4.4.3/crtbegin.o
 .rela.rodata._ZTVSt13runtime_error
                0x0000000000000000        0x0 /Users/stevefar/nacl_sdk/pepper_45/toolchain/mac_x86_newlib/bin/../lib/gcc/x86_64-nacl/4.4.3/crtbegin.o
 .rela.rodata._ZTVSt11logic_error
                0x0000000000000000        0x0 /Users/stevefar/nacl_sdk/pepper_45/toolchain/mac_x86_newlib/bin/../lib/gcc/x86_64-nacl/4.4.3/crtbegin.o
 .rela.rodata._ZTISt13runtime_error
                0x0000000000000000        0x0 /Users/stevefar/nacl_sdk/pepper_45/toolchain/mac_x86_newlib/bin/../lib/gcc/x86_64-nacl/4.4.3/crtbegin.o
 .rela.rodata._ZTISt11logic_error
                0x0000000000000000        0x0 /Users/stevefar/nacl_sdk/pepper_45/toolchain/mac_x86_newlib/bin/../lib/gcc/x86_64-nacl/4.4.3/crtbegin.o
 .rela.rodata._ZTVSt14error_category
                0x0000000000000000        0x0 /Users/stevefar/nacl_sdk/pepper_45/toolchain/mac_x86_newlib/bin/../lib/gcc/x86_64-nacl/4.4.3/crtbegin.o
 .rela.rodata._ZTVSt12system_error
                0x0000000000000000        0x0 /Users/stevefar/nacl_sdk/pepper_45/toolchain/mac_x86_newlib/bin/../lib/gcc/x86_64-nacl/4.4.3/crtbegin.o
 .rela.rodata._ZTISt12system_error
                0x0000000000000000        0x0 /Users/stevefar/nacl_sdk/pepper_45/toolchain/mac_x86_newlib/bin/../lib/gcc/x86_64-nacl/4.4.3/crtbegin.o
 .rela.rodata._ZTISt14error_category
                0x0000000000000000        0x0 /Users/stevefar/nacl_sdk/pepper_45/toolchain/mac_x86_newlib/bin/../lib/gcc/x86_64-nacl/4.4.3/crtbegin.o
 .rela.rodata._ZTIN12_GLOBAL__N_122generic_error_categoryE
                0x0000000000000000        0x0 /Users/stevefar/nacl_sdk/pepper_45/toolchain/mac_x86_newlib/bin/../lib/gcc/x86_64-nacl/4.4.3/crtbegin.o
 .rela.rodata._ZTIN12_GLOBAL__N_121system_error_categoryE
                0x0000000000000000        0x0 /Users/stevefar/nacl_sdk/pepper_45/toolchain/mac_x86_newlib/bin/../lib/gcc/x86_64-nacl/4.4.3/crtbegin.o
 .rela.rodata._ZTVSt8bad_cast
                0x0000000000000000        0x0 /Users/stevefar/nacl_sdk/pepper_45/toolchain/mac_x86_newlib/bin/../lib/gcc/x86_64-nacl/4.4.3/crtbegin.o
 .rela.rodata._ZTISt8bad_cast
                0x0000000000000000        0x0 /Users/stevefar/nacl_sdk/pepper_45/toolchain/mac_x86_newlib/bin/../lib/gcc/x86_64-nacl/4.4.3/crtbegin.o
 .rela.rodata._ZTVSt10bad_typeid
                0x0000000000000000        0x0 /Users/stevefar/nacl_sdk/pepper_45/toolchain/mac_x86_newlib/bin/../lib/gcc/x86_64-nacl/4.4.3/crtbegin.o
 .rela.rodata._ZTISt10bad_typeid
                0x0000000000000000        0x0 /Users/stevefar/nacl_sdk/pepper_45/toolchain/mac_x86_newlib/bin/../lib/gcc/x86_64-nacl/4.4.3/crtbegin.o
 .rela.rodata._ZTVN10__cxxabiv119__foreign_exceptionE
                0x0000000000000000        0x0 /Users/stevefar/nacl_sdk/pepper_45/toolchain/mac_x86_newlib/bin/../lib/gcc/x86_64-nacl/4.4.3/crtbegin.o
 .rela.rodata._ZTVN10__cxxabiv115__forced_unwindE
                0x0000000000000000        0x0 /Users/stevefar/nacl_sdk/pepper_45/toolchain/mac_x86_newlib/bin/../lib/gcc/x86_64-nacl/4.4.3/crtbegin.o
 .rela.rodata._ZTVSt13bad_exception
                0x0000000000000000        0x0 /Users/stevefar/nacl_sdk/pepper_45/toolchain/mac_x86_newlib/bin/../lib/gcc/x86_64-nacl/4.4.3/crtbegin.o
 .rela.rodata._ZTVSt9exception
                0x0000000000000000        0x0 /Users/stevefar/nacl_sdk/pepper_45/toolchain/mac_x86_newlib/bin/../lib/gcc/x86_64-nacl/4.4.3/crtbegin.o
 .rela.rodata._ZTIN10__cxxabiv119__foreign_exceptionE
                0x0000000000000000        0x0 /Users/stevefar/nacl_sdk/pepper_45/toolchain/mac_x86_newlib/bin/../lib/gcc/x86_64-nacl/4.4.3/crtbegin.o
 .rela.rodata._ZTIN10__cxxabiv115__forced_unwindE
                0x0000000000000000        0x0 /Users/stevefar/nacl_sdk/pepper_45/toolchain/mac_x86_newlib/bin/../lib/gcc/x86_64-nacl/4.4.3/crtbegin.o
 .rela.rodata._ZTISt13bad_exception
                0x0000000000000000        0x0 /Users/stevefar/nacl_sdk/pepper_45/toolchain/mac_x86_newlib/bin/../lib/gcc/x86_64-nacl/4.4.3/crtbegin.o
 .rela.rodata._ZTISt9exception
                0x0000000000000000        0x0 /Users/stevefar/nacl_sdk/pepper_45/toolchain/mac_x86_newlib/bin/../lib/gcc/x86_64-nacl/4.4.3/crtbegin.o
 .rela.rodata._ZTVSt9bad_alloc
                0x0000000000000000        0x0 /Users/stevefar/nacl_sdk/pepper_45/toolchain/mac_x86_newlib/bin/../lib/gcc/x86_64-nacl/4.4.3/crtbegin.o
 .rela.rodata._ZTISt9bad_alloc
                0x0000000000000000        0x0 /Users/stevefar/nacl_sdk/pepper_45/toolchain/mac_x86_newlib/bin/../lib/gcc/x86_64-nacl/4.4.3/crtbegin.o
 *(.rela.data .rela.data.* .rela.gnu.linkonce.d.*)
 .rela.data._ZN10__cxxabiv119__terminate_handlerE
                0x0000000000000000        0x0 /Users/stevefar/nacl_sdk/pepper_45/toolchain/mac_x86_newlib/bin/../lib/gcc/x86_64-nacl/4.4.3/crtbegin.o
 *(.rela.tdata .rela.tdata.* .rela.gnu.linkonce.td.*)
 *(.rela.tbss .rela.tbss.* .rela.gnu.linkonce.tb.*)
 *(.rela.ctors)
 *(.rela.dtors)
 *(.rela.got)
 .rela.got      0x0000000000000000        0x0 /Users/stevefar/nacl_sdk/pepper_45/toolchain/mac_x86_newlib/bin/../lib/gcc/x86_64-nacl/4.4.3/crtbegin.o
 *(.rela.bss .rela.bss.* .rela.gnu.linkonce.b.*)
 *(.rela.ldata .rela.ldata.* .rela.gnu.linkonce.l.*)
 *(.rela.lbss .rela.lbss.* .rela.gnu.linkonce.lb.*)
 *(.rela.lrodata .rela.lrodata.* .rela.gnu.linkonce.lr.*)
 *(.rela.ifunc)
 .rela.eh_frame
                0x0000000000000000        0x0 /Users/stevefar/nacl_sdk/pepper_45/toolchain/mac_x86_newlib/bin/../lib/gcc/x86_64-nacl/4.4.3/crtbegin.o
 .rela.gcc_except_table._Znwj
                0x0000000000000000        0x0 /Users/stevefar/nacl_sdk/pepper_45/toolchain/mac_x86_newlib/bin/../lib/gcc/x86_64-nacl/4.4.3/crtbegin.o
 .rela.gcc_except_table._ZN9__gnu_cxx27__verbose_terminate_handlerEv
                0x0000000000000000        0x0 /Users/stevefar/nacl_sdk/pepper_45/toolchain/mac_x86_newlib/bin/../lib/gcc/x86_64-nacl/4.4.3/crtbegin.o

.rela.plt       0x00000000100201f0        0x0
 *(.rela.plt)
                0x00000000100201f0                PROVIDE (__rela_iplt_start, .)
 *(.rela.iplt)
 .rela.iplt     0x0000000000000000        0x0 /Users/stevefar/nacl_sdk/pepper_45/toolchain/mac_x86_newlib/bin/../lib/gcc/x86_64-nacl/4.4.3/crtbegin.o
                0x00000000100201f0                PROVIDE (__rela_iplt_end, .)

.rodata         0x0000000010020200     0x4fd6
 *(.rodata .rodata.* .gnu.linkonce.r.*)
 .rodata.str1.1
                0x0000000010020200       0x17 newlib/Release/multi_platform_x86_64.o
 *fill*         0x0000000010020217        0x9 
 .rodata._ZTV6Module
                0x0000000010020220       0x18 newlib/Release/multi_platform_x86_64.o
                0x0000000010020220                _ZTV6Module
 .rodata._ZTI6Module
                0x0000000010020238        0xc newlib/Release/multi_platform_x86_64.o
                0x0000000010020238                _ZTI6Module
 .rodata._ZTS6Module
                0x0000000010020244        0x8 newlib/Release/multi_platform_x86_64.o
                0x0000000010020244                _ZTS6Module
 *fill*         0x000000001002024c       0x14 
 .rodata._ZTV8Instance
                0x0000000010020260       0x2c newlib/Release/multi_platform_x86_64.o
                0x0000000010020260                _ZTV8Instance
 .rodata._ZTI8Instance
                0x000000001002028c        0xc newlib/Release/multi_platform_x86_64.o
                0x000000001002028c                _ZTI8Instance
 .rodata._ZTS8Instance
                0x0000000010020298        0xa newlib/Release/multi_platform_x86_64.o
                0x0000000010020298                _ZTS8Instance
 .rodata.str1.1
                0x00000000100202a2       0x58 /Users/stevefar/nacl_sdk/pepper_45/lib/newlib_x86_64/Release/libppapi_cpp.a(instance_x86_64.o)
 *fill*         0x00000000100202fa        0x6 
 .rodata._ZTVN2pp8InstanceE
                0x0000000010020300       0x2c /Users/stevefar/nacl_sdk/pepper_45/lib/newlib_x86_64/Release/libppapi_cpp.a(instance_x86_64.o)
                0x0000000010020300                _ZTVN2pp8InstanceE
 .rodata._ZTSN2pp8InstanceE
                0x000000001002032c        0xf /Users/stevefar/nacl_sdk/pepper_45/lib/newlib_x86_64/Release/libppapi_cpp.a(instance_x86_64.o)
                0x000000001002032c                _ZTSN2pp8InstanceE
 *fill*         0x000000001002033b        0x1 
 .rodata._ZTIN2pp8InstanceE
                0x000000001002033c        0x8 /Users/stevefar/nacl_sdk/pepper_45/lib/newlib_x86_64/Release/libppapi_cpp.a(instance_x86_64.o)
                0x000000001002033c                _ZTIN2pp8InstanceE
 .rodata.str1.1
                0x0000000010020344       0x43 /Users/stevefar/nacl_sdk/pepper_45/lib/newlib_x86_64/Release/libppapi_cpp.a(module_x86_64.o)
 *fill*         0x0000000010020387        0x9 
 .rodata._ZTVN2pp6ModuleE
                0x0000000010020390       0x18 /Users/stevefar/nacl_sdk/pepper_45/lib/newlib_x86_64/Release/libppapi_cpp.a(module_x86_64.o)
                0x0000000010020390                _ZTVN2pp6ModuleE
 .rodata._ZTSN2pp6ModuleE
                0x00000000100203a8        0xd /Users/stevefar/nacl_sdk/pepper_45/lib/newlib_x86_64/Release/libppapi_cpp.a(module_x86_64.o)
                0x00000000100203a8                _ZTSN2pp6ModuleE
 *fill*         0x00000000100203b5        0x3 
 .rodata._ZTIN2pp6ModuleE
                0x00000000100203b8        0x8 /Users/stevefar/nacl_sdk/pepper_45/lib/newlib_x86_64/Release/libppapi_cpp.a(module_x86_64.o)
                0x00000000100203b8                _ZTIN2pp6ModuleE
 .rodata        0x00000000100203c0        0x4 /Users/stevefar/nacl_sdk/pepper_45/lib/newlib_x86_64/Release/libppapi_cpp.a(module_x86_64.o)
 *fill*         0x00000000100203c4        0xc 
 .rodata._ZTVN2pp9URLLoaderE
                0x00000000100203d0       0x10 /Users/stevefar/nacl_sdk/pepper_45/lib/newlib_x86_64/Release/libppapi_cpp.a(module_x86_64.o)
                0x00000000100203d0                _ZTVN2pp9URLLoaderE
 .rodata._ZTIN2pp9URLLoaderE
                0x00000000100203e0        0xc /Users/stevefar/nacl_sdk/pepper_45/lib/newlib_x86_64/Release/libppapi_cpp.a(module_x86_64.o)
                0x00000000100203e0                _ZTIN2pp9URLLoaderE
 *fill*         0x00000000100203ec        0x4 
 .rodata._ZTSN2pp9URLLoaderE
                0x00000000100203f0       0x10 /Users/stevefar/nacl_sdk/pepper_45/lib/newlib_x86_64/Release/libppapi_cpp.a(module_x86_64.o)
                0x00000000100203f0                _ZTSN2pp9URLLoaderE
 .rodata._ZTVN2pp4ViewE
                0x0000000010020400       0x10 /Users/stevefar/nacl_sdk/pepper_45/lib/newlib_x86_64/Release/libppapi_cpp.a(module_x86_64.o)
                0x0000000010020400                _ZTVN2pp4ViewE
 .rodata._ZTIN2pp4ViewE
                0x0000000010020410        0xc /Users/stevefar/nacl_sdk/pepper_45/lib/newlib_x86_64/Release/libppapi_cpp.a(module_x86_64.o)
                0x0000000010020410                _ZTIN2pp4ViewE
 .rodata._ZTSN2pp4ViewE
                0x000000001002041c        0xb /Users/stevefar/nacl_sdk/pepper_45/lib/newlib_x86_64/Release/libppapi_cpp.a(module_x86_64.o)
                0x000000001002041c                _ZTSN2pp4ViewE
 *fill*         0x0000000010020427        0x9 
 .rodata._ZTVN2pp8ResourceE
                0x0000000010020430       0x10 /Users/stevefar/nacl_sdk/pepper_45/lib/newlib_x86_64/Release/libppapi_cpp.a(resource_x86_64.o)
                0x0000000010020430                _ZTVN2pp8ResourceE
 .rodata._ZTSN2pp8ResourceE
                0x0000000010020440        0xf /Users/stevefar/nacl_sdk/pepper_45/lib/newlib_x86_64/Release/libppapi_cpp.a(resource_x86_64.o)
                0x0000000010020440                _ZTSN2pp8ResourceE
 *fill*         0x000000001002044f        0x1 
 .rodata._ZTIN2pp8ResourceE
                0x0000000010020450        0x8 /Users/stevefar/nacl_sdk/pepper_45/lib/newlib_x86_64/Release/libppapi_cpp.a(resource_x86_64.o)
                0x0000000010020450                _ZTIN2pp8ResourceE
 .rodata.str1.1
                0x0000000010020458       0x12 /Users/stevefar/nacl_sdk/pepper_45/lib/newlib_x86_64/Release/libppapi_cpp.a(url_loader_x86_64.o)
 *fill*         0x000000001002046a        0x6 
 .rodata._ZTVN2pp15URLResponseInfoE
                0x0000000010020470       0x10 /Users/stevefar/nacl_sdk/pepper_45/lib/newlib_x86_64/Release/libppapi_cpp.a(url_loader_x86_64.o)
                0x0000000010020470                _ZTVN2pp15URLResponseInfoE
 .rodata._ZTIN2pp15URLResponseInfoE
                0x0000000010020480        0xc /Users/stevefar/nacl_sdk/pepper_45/lib/newlib_x86_64/Release/libppapi_cpp.a(url_loader_x86_64.o)
                0x0000000010020480                _ZTIN2pp15URLResponseInfoE
 *fill*         0x000000001002048c        0x4 
 .rodata._ZTSN2pp15URLResponseInfoE
                0x0000000010020490       0x17 /Users/stevefar/nacl_sdk/pepper_45/lib/newlib_x86_64/Release/libppapi_cpp.a(url_loader_x86_64.o)
                0x0000000010020490                _ZTSN2pp15URLResponseInfoE
 .rodata.str1.1
                0x00000000100204a7       0x18 /Users/stevefar/nacl_sdk/pepper_45/lib/newlib_x86_64/Release/libppapi_cpp.a(url_response_info_x86_64.o)
 *fill*         0x00000000100204bf        0x1 
 .rodata._ZTVN2pp7FileRefE
                0x00000000100204c0       0x10 /Users/stevefar/nacl_sdk/pepper_45/lib/newlib_x86_64/Release/libppapi_cpp.a(url_response_info_x86_64.o)
                0x00000000100204c0                _ZTVN2pp7FileRefE
 .rodata._ZTIN2pp7FileRefE
                0x00000000100204d0        0xc /Users/stevefar/nacl_sdk/pepper_45/lib/newlib_x86_64/Release/libppapi_cpp.a(url_response_info_x86_64.o)
                0x00000000100204d0                _ZTIN2pp7FileRefE
 .rodata._ZTSN2pp7FileRefE
                0x00000000100204dc        0xe /Users/stevefar/nacl_sdk/pepper_45/lib/newlib_x86_64/Release/libppapi_cpp.a(url_response_info_x86_64.o)
                0x00000000100204dc                _ZTSN2pp7FileRefE
 .rodata.str1.1
                0x00000000100204ea       0xad /Users/stevefar/nacl_sdk/pepper_45/lib/newlib_x86_64/Release/libppapi_cpp.a(var_x86_64.o)
 *fill*         0x0000000010020597        0x1 
 .rodata        0x0000000010020598       0x30 /Users/stevefar/nacl_sdk/pepper_45/lib/newlib_x86_64/Release/libppapi_cpp.a(var_x86_64.o)
 *fill*         0x00000000100205c8        0x8 
 .rodata._ZTVN2pp3VarE
                0x00000000100205d0       0x14 /Users/stevefar/nacl_sdk/pepper_45/lib/newlib_x86_64/Release/libppapi_cpp.a(var_x86_64.o)
                0x00000000100205d0                _ZTVN2pp3VarE
 .rodata._ZTSN2pp3VarE
                0x00000000100205e4        0xa /Users/stevefar/nacl_sdk/pepper_45/lib/newlib_x86_64/Release/libppapi_cpp.a(var_x86_64.o)
                0x00000000100205e4                _ZTSN2pp3VarE
 *fill*         0x00000000100205ee        0x2 
 .rodata._ZTIN2pp3VarE
                0x00000000100205f0        0x8 /Users/stevefar/nacl_sdk/pepper_45/lib/newlib_x86_64/Release/libppapi_cpp.a(var_x86_64.o)
                0x00000000100205f0                _ZTIN2pp3VarE
 .rodata.str1.1
                0x00000000100205f8       0x27 /Users/stevefar/nacl_sdk/pepper_45/lib/newlib_x86_64/Release/libppapi_cpp.a(view_x86_64.o)
 *fill*         0x000000001002061f        0x1 
 .rodata.cst4   0x0000000010020620        0x4 /Users/stevefar/nacl_sdk/pepper_45/lib/newlib_x86_64/Release/libppapi_cpp.a(view_x86_64.o)
 .rodata.str1.1
                0x0000000010020624       0x30 /Users/stevefar/nacl_sdk/pepper_45/lib/newlib_x86_64/Release/libppapi_cpp.a(file_ref_x86_64.o)
 .rodata.str1.1
                0x0000000010020654       0x94 /Users/stevefar/nacl_sdk/pepper_45/lib/newlib_x86_64/Release/libppapi_cpp.a(input_event_x86_64.o)
                                         0xa7 (size before relaxing)
 *fill*         0x00000000100206e8        0x8 
 .rodata._ZTVN2pp10InputEventE
                0x00000000100206f0       0x10 /Users/stevefar/nacl_sdk/pepper_45/lib/newlib_x86_64/Release/libppapi_cpp.a(input_event_x86_64.o)
                0x00000000100206f0                _ZTVN2pp10InputEventE
 .rodata._ZTSN2pp10InputEventE
                0x0000000010020700       0x12 /Users/stevefar/nacl_sdk/pepper_45/lib/newlib_x86_64/Release/libppapi_cpp.a(input_event_x86_64.o)
                0x0000000010020700                _ZTSN2pp10InputEventE
 *fill*         0x0000000010020712        0x2 
 .rodata._ZTIN2pp10InputEventE
                0x0000000010020714        0xc /Users/stevefar/nacl_sdk/pepper_45/lib/newlib_x86_64/Release/libppapi_cpp.a(input_event_x86_64.o)
                0x0000000010020714                _ZTIN2pp10InputEventE
 .rodata._ZTVN2pp13IMEInputEventE
                0x0000000010020720       0x10 /Users/stevefar/nacl_sdk/pepper_45/lib/newlib_x86_64/Release/libppapi_cpp.a(input_event_x86_64.o)
                0x0000000010020720                _ZTVN2pp13IMEInputEventE
 .rodata._ZTIN2pp13IMEInputEventE
                0x0000000010020730        0xc /Users/stevefar/nacl_sdk/pepper_45/lib/newlib_x86_64/Release/libppapi_cpp.a(input_event_x86_64.o)
                0x0000000010020730                _ZTIN2pp13IMEInputEventE
 *fill*         0x000000001002073c        0x4 
 .rodata._ZTSN2pp13IMEInputEventE
                0x0000000010020740       0x15 /Users/stevefar/nacl_sdk/pepper_45/lib/newlib_x86_64/Release/libppapi_cpp.a(input_event_x86_64.o)
                0x0000000010020740                _ZTSN2pp13IMEInputEventE
 *fill*         0x0000000010020755        0xb 
 .rodata._ZTVN2pp15TouchInputEventE
                0x0000000010020760       0x10 /Users/stevefar/nacl_sdk/pepper_45/lib/newlib_x86_64/Release/libppapi_cpp.a(input_event_x86_64.o)
                0x0000000010020760                _ZTVN2pp15TouchInputEventE
 .rodata._ZTIN2pp15TouchInputEventE
                0x0000000010020770        0xc /Users/stevefar/nacl_sdk/pepper_45/lib/newlib_x86_64/Release/libppapi_cpp.a(input_event_x86_64.o)
                0x0000000010020770                _ZTIN2pp15TouchInputEventE
 *fill*         0x000000001002077c        0x4 
 .rodata._ZTSN2pp15TouchInputEventE
                0x0000000010020780       0x17 /Users/stevefar/nacl_sdk/pepper_45/lib/newlib_x86_64/Release/libppapi_cpp.a(input_event_x86_64.o)
                0x0000000010020780                _ZTSN2pp15TouchInputEventE
 *fill*         0x0000000010020797        0x9 
 .rodata._ZTVN2pp18KeyboardInputEventE
                0x00000000100207a0       0x10 /Users/stevefar/nacl_sdk/pepper_45/lib/newlib_x86_64/Release/libppapi_cpp.a(input_event_x86_64.o)
                0x00000000100207a0                _ZTVN2pp18KeyboardInputEventE
 .rodata._ZTIN2pp18KeyboardInputEventE
                0x00000000100207b0        0xc /Users/stevefar/nacl_sdk/pepper_45/lib/newlib_x86_64/Release/libppapi_cpp.a(input_event_x86_64.o)
                0x00000000100207b0                _ZTIN2pp18KeyboardInputEventE
 *fill*         0x00000000100207bc        0x4 
 .rodata._ZTSN2pp18KeyboardInputEventE
                0x00000000100207c0       0x1a /Users/stevefar/nacl_sdk/pepper_45/lib/newlib_x86_64/Release/libppapi_cpp.a(input_event_x86_64.o)
                0x00000000100207c0                _ZTSN2pp18KeyboardInputEventE
 *fill*         0x00000000100207da        0x6 
 .rodata._ZTVN2pp15WheelInputEventE
                0x00000000100207e0       0x10 /Users/stevefar/nacl_sdk/pepper_45/lib/newlib_x86_64/Release/libppapi_cpp.a(input_event_x86_64.o)
                0x00000000100207e0                _ZTVN2pp15WheelInputEventE
 .rodata._ZTIN2pp15WheelInputEventE
                0x00000000100207f0        0xc /Users/stevefar/nacl_sdk/pepper_45/lib/newlib_x86_64/Release/libppapi_cpp.a(input_event_x86_64.o)
                0x00000000100207f0                _ZTIN2pp15WheelInputEventE
 *fill*         0x00000000100207fc        0x4 
 .rodata._ZTSN2pp15WheelInputEventE
                0x0000000010020800       0x17 /Users/stevefar/nacl_sdk/pepper_45/lib/newlib_x86_64/Release/libppapi_cpp.a(input_event_x86_64.o)
                0x0000000010020800                _ZTSN2pp15WheelInputEventE
 *fill*         0x0000000010020817        0x9 
 .rodata._ZTVN2pp15MouseInputEventE
                0x0000000010020820       0x10 /Users/stevefar/nacl_sdk/pepper_45/lib/newlib_x86_64/Release/libppapi_cpp.a(input_event_x86_64.o)
                0x0000000010020820                _ZTVN2pp15MouseInputEventE
 .rodata._ZTIN2pp15MouseInputEventE
                0x0000000010020830        0xc /Users/stevefar/nacl_sdk/pepper_45/lib/newlib_x86_64/Release/libppapi_cpp.a(input_event_x86_64.o)
                0x0000000010020830                _ZTIN2pp15MouseInputEventE
 *fill*         0x000000001002083c        0x4 
 .rodata._ZTSN2pp15MouseInputEventE
                0x0000000010020840       0x17 /Users/stevefar/nacl_sdk/pepper_45/lib/newlib_x86_64/Release/libppapi_cpp.a(input_event_x86_64.o)
                0x0000000010020840                _ZTSN2pp15MouseInputEventE
 *fill*         0x0000000010020857        0x1 
 .rodata.str1.8
                0x0000000010020858       0x99 /Users/stevefar/nacl_sdk/pepper_45/toolchain/mac_x86_newlib/bin/../lib/gcc/x86_64-nacl/4.4.3/../../../../x86_64-nacl/lib/../lib64/libppapi_stub.a(ppapi_plugin_start_8da67623.o)
 .rodata.str1.1
                0x00000000100208f1       0x17 /Users/stevefar/nacl_sdk/pepper_45/toolchain/mac_x86_newlib/bin/../lib/gcc/x86_64-nacl/4.4.3/../../../../x86_64-nacl/lib/../lib64/libppapi_stub.a(ppapi_plugin_start_8da67623.o)
 .rodata.str1.1
                0x0000000010020908        0xc /Users/stevefar/nacl_sdk/pepper_45/toolchain/mac_x86_newlib/bin/../lib/gcc/x86_64-nacl/4.4.3/../../../../x86_64-nacl/lib/../lib64/libpthread.a(nc_thread_7e478b15.o)
 .rodata        0x0000000010020914        0x4 /Users/stevefar/nacl_sdk/pepper_45/toolchain/mac_x86_newlib/bin/../lib/gcc/x86_64-nacl/4.4.3/../../../../x86_64-nacl/lib/../lib64/libpthread.a(nc_thread_7e478b15.o)
                0x0000000010020914                __nc_kMaxCachedMemoryBlocks
 .rodata.str1.1
                0x0000000010020918       0x14 /Users/stevefar/nacl_sdk/pepper_45/toolchain/mac_x86_newlib/bin/../lib/gcc/x86_64-nacl/4.4.3/../../../../x86_64-nacl/lib/../lib64/libpthread.a(dynamic_annotations_33ba59cc.o)
                                         0x16 (size before relaxing)
 .rodata.str1.1
                0x000000001002092c       0x27 /Users/stevefar/nacl_sdk/pepper_45/toolchain/mac_x86_newlib/bin/../lib/gcc/x86_64-nacl/4.4.3/../../../../x86_64-nacl/lib/../lib64/libpthread.a(nc_init_irt_d3daafc0.o)
 .rodata.str1.1
                0x0000000010020953      0x11d /Users/stevefar/nacl_sdk/pepper_45/toolchain/mac_x86_newlib/bin/../lib/gcc/x86_64-nacl/4.4.3/../../../../x86_64-nacl/lib/../lib64/libstdc++.a(string-inst.o)
 .rodata.str1.8
                0x0000000010020a70       0x2a /Users/stevefar/nacl_sdk/pepper_45/toolchain/mac_x86_newlib/bin/../lib/gcc/x86_64-nacl/4.4.3/../../../../x86_64-nacl/lib/../lib64/libstdc++.a(string-inst.o)
 *fill*         0x0000000010020a9a        0x2 
 .rodata._ZNSs4nposE
                0x0000000010020a9c        0x4 /Users/stevefar/nacl_sdk/pepper_45/toolchain/mac_x86_newlib/bin/../lib/gcc/x86_64-nacl/4.4.3/../../../../x86_64-nacl/lib/../lib64/libstdc++.a(string-inst.o)
                0x0000000010020a9c                _ZNSs4nposE
 .rodata._ZNSs4_Rep11_S_max_sizeE
                0x0000000010020aa0        0x4 /Users/stevefar/nacl_sdk/pepper_45/toolchain/mac_x86_newlib/bin/../lib/gcc/x86_64-nacl/4.4.3/../../../../x86_64-nacl/lib/../lib64/libstdc++.a(string-inst.o)
                0x0000000010020aa0                _ZNSs4_Rep11_S_max_sizeE
 .rodata._ZNSs4_Rep11_S_terminalE
                0x0000000010020aa4        0x1 /Users/stevefar/nacl_sdk/pepper_45/toolchain/mac_x86_newlib/bin/../lib/gcc/x86_64-nacl/4.4.3/../../../../x86_64-nacl/lib/../lib64/libstdc++.a(string-inst.o)
                0x0000000010020aa4                _ZNSs4_Rep11_S_terminalE
 *fill*         0x0000000010020aa5       0x1b 
 .rodata._ZTVN10__cxxabiv117__class_type_infoE
                0x0000000010020ac0       0x2c /Users/stevefar/nacl_sdk/pepper_45/toolchain/mac_x86_newlib/bin/../lib/gcc/x86_64-nacl/4.4.3/../../../../x86_64-nacl/lib/../lib64/libstdc++.a(class_type_info.o)
                0x0000000010020ac0                _ZTVN10__cxxabiv117__class_type_infoE
 *fill*         0x0000000010020aec       0x14 
 .rodata._ZTSN10__cxxabiv117__class_type_infoE
                0x0000000010020b00       0x22 /Users/stevefar/nacl_sdk/pepper_45/toolchain/mac_x86_newlib/bin/../lib/gcc/x86_64-nacl/4.4.3/../../../../x86_64-nacl/lib/../lib64/libstdc++.a(class_type_info.o)
                0x0000000010020b00                _ZTSN10__cxxabiv117__class_type_infoE
 *fill*         0x0000000010020b22        0x2 
 .rodata._ZTIN10__cxxabiv117__class_type_infoE
                0x0000000010020b24        0xc /Users/stevefar/nacl_sdk/pepper_45/toolchain/mac_x86_newlib/bin/../lib/gcc/x86_64-nacl/4.4.3/../../../../x86_64-nacl/lib/../lib64/libstdc++.a(class_type_info.o)
                0x0000000010020b24                _ZTIN10__cxxabiv117__class_type_infoE
 .rodata._ZL28read_encoded_value_with_basehjPKhPj
                0x0000000010020b30       0x68 /Users/stevefar/nacl_sdk/pepper_45/toolchain/mac_x86_newlib/bin/../lib/gcc/x86_64-nacl/4.4.3/../../../../x86_64-nacl/lib/../lib64/libstdc++.a(eh_personality.o)
 .rodata.str1.8
                0x0000000010020b98       0x4e /Users/stevefar/nacl_sdk/pepper_45/toolchain/mac_x86_newlib/bin/../lib/gcc/x86_64-nacl/4.4.3/../../../../x86_64-nacl/lib/../lib64/libstdc++.a(guard.o)
 *fill*         0x0000000010020be6        0xa 
 .rodata._ZTVN9__gnu_cxx20recursive_init_errorE
                0x0000000010020bf0       0x14 /Users/stevefar/nacl_sdk/pepper_45/toolchain/mac_x86_newlib/bin/../lib/gcc/x86_64-nacl/4.4.3/../../../../x86_64-nacl/lib/../lib64/libstdc++.a(guard.o)
                0x0000000010020bf0                _ZTVN9__gnu_cxx20recursive_init_errorE
 *fill*         0x0000000010020c04       0x1c 
 .rodata._ZTSN9__gnu_cxx20recursive_init_errorE
                0x0000000010020c20       0x23 /Users/stevefar/nacl_sdk/pepper_45/toolchain/mac_x86_newlib/bin/../lib/gcc/x86_64-nacl/4.4.3/../../../../x86_64-nacl/lib/../lib64/libstdc++.a(guard.o)
                0x0000000010020c20                _ZTSN9__gnu_cxx20recursive_init_errorE
 *fill*         0x0000000010020c43        0x1 
 .rodata._ZTIN9__gnu_cxx20recursive_init_errorE
                0x0000000010020c44        0xc /Users/stevefar/nacl_sdk/pepper_45/toolchain/mac_x86_newlib/bin/../lib/gcc/x86_64-nacl/4.4.3/../../../../x86_64-nacl/lib/../lib64/libstdc++.a(guard.o)
                0x0000000010020c44                _ZTIN9__gnu_cxx20recursive_init_errorE
 .rodata._ZTIN9__gnu_cxx26__concurrence_unlock_errorE
                0x0000000010020c50        0xc /Users/stevefar/nacl_sdk/pepper_45/toolchain/mac_x86_newlib/bin/../lib/gcc/x86_64-nacl/4.4.3/../../../../x86_64-nacl/lib/../lib64/libstdc++.a(guard.o)
                0x0000000010020c50                _ZTIN9__gnu_cxx26__concurrence_unlock_errorE
 *fill*         0x0000000010020c5c        0x4 
 .rodata._ZTSN9__gnu_cxx26__concurrence_unlock_errorE
                0x0000000010020c60       0x29 /Users/stevefar/nacl_sdk/pepper_45/toolchain/mac_x86_newlib/bin/../lib/gcc/x86_64-nacl/4.4.3/../../../../x86_64-nacl/lib/../lib64/libstdc++.a(guard.o)
                0x0000000010020c60                _ZTSN9__gnu_cxx26__concurrence_unlock_errorE
 *fill*         0x0000000010020c89        0x7 
 .rodata._ZTVN9__gnu_cxx26__concurrence_unlock_errorE
                0x0000000010020c90       0x14 /Users/stevefar/nacl_sdk/pepper_45/toolchain/mac_x86_newlib/bin/../lib/gcc/x86_64-nacl/4.4.3/../../../../x86_64-nacl/lib/../lib64/libstdc++.a(guard.o)
                0x0000000010020c90                _ZTVN9__gnu_cxx26__concurrence_unlock_errorE
 .rodata._ZTIN9__gnu_cxx24__concurrence_lock_errorE
                0x0000000010020ca4        0xc /Users/stevefar/nacl_sdk/pepper_45/toolchain/mac_x86_newlib/bin/../lib/gcc/x86_64-nacl/4.4.3/../../../../x86_64-nacl/lib/../lib64/libstdc++.a(guard.o)
                0x0000000010020ca4                _ZTIN9__gnu_cxx24__concurrence_lock_errorE
 *fill*         0x0000000010020cb0       0x10 
 .rodata._ZTSN9__gnu_cxx24__concurrence_lock_errorE
                0x0000000010020cc0       0x27 /Users/stevefar/nacl_sdk/pepper_45/toolchain/mac_x86_newlib/bin/../lib/gcc/x86_64-nacl/4.4.3/../../../../x86_64-nacl/lib/../lib64/libstdc++.a(guard.o)
                0x0000000010020cc0                _ZTSN9__gnu_cxx24__concurrence_lock_errorE
 *fill*         0x0000000010020ce7        0x9 
 .rodata._ZTVN9__gnu_cxx24__concurrence_lock_errorE
                0x0000000010020cf0       0x14 /Users/stevefar/nacl_sdk/pepper_45/toolchain/mac_x86_newlib/bin/../lib/gcc/x86_64-nacl/4.4.3/../../../../x86_64-nacl/lib/../lib64/libstdc++.a(guard.o)
                0x0000000010020cf0                _ZTVN9__gnu_cxx24__concurrence_lock_errorE
 .rodata.str1.1
                0x0000000010020d04       0x1c /Users/stevefar/nacl_sdk/pepper_45/toolchain/mac_x86_newlib/bin/../lib/gcc/x86_64-nacl/4.4.3/../../../../x86_64-nacl/lib/../lib64/libstdc++.a(pure.o)
 .rodata._ZTVN10__cxxabiv120__si_class_type_infoE
                0x0000000010020d20       0x2c /Users/stevefar/nacl_sdk/pepper_45/toolchain/mac_x86_newlib/bin/../lib/gcc/x86_64-nacl/4.4.3/../../../../x86_64-nacl/lib/../lib64/libstdc++.a(si_class_type_info.o)
                0x0000000010020d20                _ZTVN10__cxxabiv120__si_class_type_infoE
 *fill*         0x0000000010020d4c       0x14 
 .rodata._ZTSN10__cxxabiv120__si_class_type_infoE
                0x0000000010020d60       0x25 /Users/stevefar/nacl_sdk/pepper_45/toolchain/mac_x86_newlib/bin/../lib/gcc/x86_64-nacl/4.4.3/../../../../x86_64-nacl/lib/../lib64/libstdc++.a(si_class_type_info.o)
                0x0000000010020d60                _ZTSN10__cxxabiv120__si_class_type_infoE
 *fill*         0x0000000010020d85        0x3 
 .rodata._ZTIN10__cxxabiv120__si_class_type_infoE
                0x0000000010020d88        0xc /Users/stevefar/nacl_sdk/pepper_45/toolchain/mac_x86_newlib/bin/../lib/gcc/x86_64-nacl/4.4.3/../../../../x86_64-nacl/lib/../lib64/libstdc++.a(si_class_type_info.o)
                0x0000000010020d88                _ZTIN10__cxxabiv120__si_class_type_infoE
 *fill*         0x0000000010020d94        0xc 
 .rodata._ZTVSt9type_info
                0x0000000010020da0       0x20 /Users/stevefar/nacl_sdk/pepper_45/toolchain/mac_x86_newlib/bin/../lib/gcc/x86_64-nacl/4.4.3/../../../../x86_64-nacl/lib/../lib64/libstdc++.a(tinfo.o)
                0x0000000010020da0                _ZTVSt9type_info
 .rodata._ZTSSt9type_info
                0x0000000010020dc0        0xd /Users/stevefar/nacl_sdk/pepper_45/toolchain/mac_x86_newlib/bin/../lib/gcc/x86_64-nacl/4.4.3/../../../../x86_64-nacl/lib/../lib64/libstdc++.a(tinfo.o)
                0x0000000010020dc0                _ZTSSt9type_info
 *fill*         0x0000000010020dcd        0x3 
 .rodata._ZTISt9type_info
                0x0000000010020dd0        0x8 /Users/stevefar/nacl_sdk/pepper_45/toolchain/mac_x86_newlib/bin/../lib/gcc/x86_64-nacl/4.4.3/../../../../x86_64-nacl/lib/../lib64/libstdc++.a(tinfo.o)
                0x0000000010020dd0                _ZTISt9type_info
 .rodata.str1.1
                0x0000000000000000       0x1c /Users/stevefar/nacl_sdk/pepper_45/toolchain/mac_x86_newlib/bin/../lib/gcc/x86_64-nacl/4.4.3/../../../../x86_64-nacl/lib/../lib64/libstdc++.a(functexcept.o)
                                          0x1 (size before relaxing)
 .rodata._ZTISt15underflow_error
                0x0000000010020dd8        0xc /Users/stevefar/nacl_sdk/pepper_45/toolchain/mac_x86_newlib/bin/../lib/gcc/x86_64-nacl/4.4.3/../../../../x86_64-nacl/lib/../lib64/libstdc++.a(functexcept.o)
                0x0000000010020dd8                _ZTISt15underflow_error
 *fill*         0x0000000010020de4        0xc 
 .rodata._ZTSSt15underflow_error
                0x0000000010020df0       0x14 /Users/stevefar/nacl_sdk/pepper_45/toolchain/mac_x86_newlib/bin/../lib/gcc/x86_64-nacl/4.4.3/../../../../x86_64-nacl/lib/../lib64/libstdc++.a(functexcept.o)
                0x0000000010020df0                _ZTSSt15underflow_error
 *fill*         0x0000000010020e04        0xc 
 .rodata._ZTVSt15underflow_error
                0x0000000010020e10       0x14 /Users/stevefar/nacl_sdk/pepper_45/toolchain/mac_x86_newlib/bin/../lib/gcc/x86_64-nacl/4.4.3/../../../../x86_64-nacl/lib/../lib64/libstdc++.a(functexcept.o)
                0x0000000010020e10                _ZTVSt15underflow_error
 .rodata._ZTISt14overflow_error
                0x0000000010020e24        0xc /Users/stevefar/nacl_sdk/pepper_45/toolchain/mac_x86_newlib/bin/../lib/gcc/x86_64-nacl/4.4.3/../../../../x86_64-nacl/lib/../lib64/libstdc++.a(functexcept.o)
                0x0000000010020e24                _ZTISt14overflow_error
 .rodata._ZTSSt14overflow_error
                0x0000000010020e30       0x13 /Users/stevefar/nacl_sdk/pepper_45/toolchain/mac_x86_newlib/bin/../lib/gcc/x86_64-nacl/4.4.3/../../../../x86_64-nacl/lib/../lib64/libstdc++.a(functexcept.o)
                0x0000000010020e30                _ZTSSt14overflow_error
 *fill*         0x0000000010020e43        0xd 
 .rodata._ZTVSt14overflow_error
                0x0000000010020e50       0x14 /Users/stevefar/nacl_sdk/pepper_45/toolchain/mac_x86_newlib/bin/../lib/gcc/x86_64-nacl/4.4.3/../../../../x86_64-nacl/lib/../lib64/libstdc++.a(functexcept.o)
                0x0000000010020e50                _ZTVSt14overflow_error
 .rodata._ZTISt11range_error
                0x0000000010020e64        0xc /Users/stevefar/nacl_sdk/pepper_45/toolchain/mac_x86_newlib/bin/../lib/gcc/x86_64-nacl/4.4.3/../../../../x86_64-nacl/lib/../lib64/libstdc++.a(functexcept.o)
                0x0000000010020e64                _ZTISt11range_error
 .rodata._ZTSSt11range_error
                0x0000000010020e70       0x10 /Users/stevefar/nacl_sdk/pepper_45/toolchain/mac_x86_newlib/bin/../lib/gcc/x86_64-nacl/4.4.3/../../../../x86_64-nacl/lib/../lib64/libstdc++.a(functexcept.o)
                0x0000000010020e70                _ZTSSt11range_error
 .rodata._ZTVSt11range_error
                0x0000000010020e80       0x14 /Users/stevefar/nacl_sdk/pepper_45/toolchain/mac_x86_newlib/bin/../lib/gcc/x86_64-nacl/4.4.3/../../../../x86_64-nacl/lib/../lib64/libstdc++.a(functexcept.o)
                0x0000000010020e80                _ZTVSt11range_error
 .rodata._ZTISt12out_of_range
                0x0000000010020e94        0xc /Users/stevefar/nacl_sdk/pepper_45/toolchain/mac_x86_newlib/bin/../lib/gcc/x86_64-nacl/4.4.3/../../../../x86_64-nacl/lib/../lib64/libstdc++.a(functexcept.o)
                0x0000000010020e94                _ZTISt12out_of_range
 .rodata._ZTSSt12out_of_range
                0x0000000010020ea0       0x11 /Users/stevefar/nacl_sdk/pepper_45/toolchain/mac_x86_newlib/bin/../lib/gcc/x86_64-nacl/4.4.3/../../../../x86_64-nacl/lib/../lib64/libstdc++.a(functexcept.o)
                0x0000000010020ea0                _ZTSSt12out_of_range
 *fill*         0x0000000010020eb1        0xf 
 .rodata._ZTVSt12out_of_range
                0x0000000010020ec0       0x14 /Users/stevefar/nacl_sdk/pepper_45/toolchain/mac_x86_newlib/bin/../lib/gcc/x86_64-nacl/4.4.3/../../../../x86_64-nacl/lib/../lib64/libstdc++.a(functexcept.o)
                0x0000000010020ec0                _ZTVSt12out_of_range
 .rodata._ZTISt12length_error
                0x0000000010020ed4        0xc /Users/stevefar/nacl_sdk/pepper_45/toolchain/mac_x86_newlib/bin/../lib/gcc/x86_64-nacl/4.4.3/../../../../x86_64-nacl/lib/../lib64/libstdc++.a(functexcept.o)
                0x0000000010020ed4                _ZTISt12length_error
 .rodata._ZTSSt12length_error
                0x0000000010020ee0       0x11 /Users/stevefar/nacl_sdk/pepper_45/toolchain/mac_x86_newlib/bin/../lib/gcc/x86_64-nacl/4.4.3/../../../../x86_64-nacl/lib/../lib64/libstdc++.a(functexcept.o)
                0x0000000010020ee0                _ZTSSt12length_error
 *fill*         0x0000000010020ef1        0xf 
 .rodata._ZTVSt12length_error
                0x0000000010020f00       0x14 /Users/stevefar/nacl_sdk/pepper_45/toolchain/mac_x86_newlib/bin/../lib/gcc/x86_64-nacl/4.4.3/../../../../x86_64-nacl/lib/../lib64/libstdc++.a(functexcept.o)
                0x0000000010020f00                _ZTVSt12length_error
 .rodata._ZTISt16invalid_argument
                0x0000000010020f14        0xc /Users/stevefar/nacl_sdk/pepper_45/toolchain/mac_x86_newlib/bin/../lib/gcc/x86_64-nacl/4.4.3/../../../../x86_64-nacl/lib/../lib64/libstdc++.a(functexcept.o)
                0x0000000010020f14                _ZTISt16invalid_argument
 .rodata._ZTSSt16invalid_argument
                0x0000000010020f20       0x15 /Users/stevefar/nacl_sdk/pepper_45/toolchain/mac_x86_newlib/bin/../lib/gcc/x86_64-nacl/4.4.3/../../../../x86_64-nacl/lib/../lib64/libstdc++.a(functexcept.o)
                0x0000000010020f20                _ZTSSt16invalid_argument
 *fill*         0x0000000010020f35        0xb 
 .rodata._ZTVSt16invalid_argument
                0x0000000010020f40       0x14 /Users/stevefar/nacl_sdk/pepper_45/toolchain/mac_x86_newlib/bin/../lib/gcc/x86_64-nacl/4.4.3/../../../../x86_64-nacl/lib/../lib64/libstdc++.a(functexcept.o)
                0x0000000010020f40                _ZTVSt16invalid_argument
 .rodata._ZTISt12domain_error
                0x0000000010020f54        0xc /Users/stevefar/nacl_sdk/pepper_45/toolchain/mac_x86_newlib/bin/../lib/gcc/x86_64-nacl/4.4.3/../../../../x86_64-nacl/lib/../lib64/libstdc++.a(functexcept.o)
                0x0000000010020f54                _ZTISt12domain_error
 .rodata._ZTSSt12domain_error
                0x0000000010020f60       0x11 /Users/stevefar/nacl_sdk/pepper_45/toolchain/mac_x86_newlib/bin/../lib/gcc/x86_64-nacl/4.4.3/../../../../x86_64-nacl/lib/../lib64/libstdc++.a(functexcept.o)
                0x0000000010020f60                _ZTSSt12domain_error
 *fill*         0x0000000010020f71        0xf 
 .rodata._ZTVSt12domain_error
                0x0000000010020f80       0x14 /Users/stevefar/nacl_sdk/pepper_45/toolchain/mac_x86_newlib/bin/../lib/gcc/x86_64-nacl/4.4.3/../../../../x86_64-nacl/lib/../lib64/libstdc++.a(functexcept.o)
                0x0000000010020f80                _ZTVSt12domain_error
 *fill*         0x0000000010020f94        0xc 
 .rodata._ZTVNSt8ios_base7failureE
                0x0000000010020fa0       0x14 /Users/stevefar/nacl_sdk/pepper_45/toolchain/mac_x86_newlib/bin/../lib/gcc/x86_64-nacl/4.4.3/../../../../x86_64-nacl/lib/../lib64/libstdc++.a(ios_failure.o)
                0x0000000010020fa0                _ZTVNSt8ios_base7failureE
 *fill*         0x0000000010020fb4        0xc 
 .rodata._ZTSNSt8ios_base7failureE
                0x0000000010020fc0       0x16 /Users/stevefar/nacl_sdk/pepper_45/toolchain/mac_x86_newlib/bin/../lib/gcc/x86_64-nacl/4.4.3/../../../../x86_64-nacl/lib/../lib64/libstdc++.a(ios_failure.o)
                0x0000000010020fc0                _ZTSNSt8ios_base7failureE
 *fill*         0x0000000010020fd6        0x2 
 .rodata._ZTINSt8ios_base7failureE
                0x0000000010020fd8        0xc /Users/stevefar/nacl_sdk/pepper_45/toolchain/mac_x86_newlib/bin/../lib/gcc/x86_64-nacl/4.4.3/../../../../x86_64-nacl/lib/../lib64/libstdc++.a(ios_failure.o)
                0x0000000010020fd8                _ZTINSt8ios_base7failureE
 *fill*         0x0000000010020fe4        0xc 
 .rodata._ZTVSt13runtime_error
                0x0000000010020ff0       0x14 /Users/stevefar/nacl_sdk/pepper_45/toolchain/mac_x86_newlib/bin/../lib/gcc/x86_64-nacl/4.4.3/../../../../x86_64-nacl/lib/../lib64/libstdc++.a(stdexcept.o)
                0x0000000010020ff0                _ZTVSt13runtime_error
 *fill*         0x0000000010021004        0xc 
 .rodata._ZTVSt11logic_error
                0x0000000010021010       0x14 /Users/stevefar/nacl_sdk/pepper_45/toolchain/mac_x86_newlib/bin/../lib/gcc/x86_64-nacl/4.4.3/../../../../x86_64-nacl/lib/../lib64/libstdc++.a(stdexcept.o)
                0x0000000010021010                _ZTVSt11logic_error
 *fill*         0x0000000010021024        0xc 
 .rodata._ZTSSt13runtime_error
                0x0000000010021030       0x12 /Users/stevefar/nacl_sdk/pepper_45/toolchain/mac_x86_newlib/bin/../lib/gcc/x86_64-nacl/4.4.3/../../../../x86_64-nacl/lib/../lib64/libstdc++.a(stdexcept.o)
                0x0000000010021030                _ZTSSt13runtime_error
 *fill*         0x0000000010021042        0x2 
 .rodata._ZTISt13runtime_error
                0x0000000010021044        0xc /Users/stevefar/nacl_sdk/pepper_45/toolchain/mac_x86_newlib/bin/../lib/gcc/x86_64-nacl/4.4.3/../../../../x86_64-nacl/lib/../lib64/libstdc++.a(stdexcept.o)
                0x0000000010021044                _ZTISt13runtime_error
 .rodata._ZTSSt11logic_error
                0x0000000010021050       0x10 /Users/stevefar/nacl_sdk/pepper_45/toolchain/mac_x86_newlib/bin/../lib/gcc/x86_64-nacl/4.4.3/../../../../x86_64-nacl/lib/../lib64/libstdc++.a(stdexcept.o)
                0x0000000010021050                _ZTSSt11logic_error
 .rodata._ZTISt11logic_error
                0x0000000010021060        0xc /Users/stevefar/nacl_sdk/pepper_45/toolchain/mac_x86_newlib/bin/../lib/gcc/x86_64-nacl/4.4.3/../../../../x86_64-nacl/lib/../lib64/libstdc++.a(stdexcept.o)
                0x0000000010021060                _ZTISt11logic_error
 .rodata.str1.1
                0x000000001002106c        0x8 /Users/stevefar/nacl_sdk/pepper_45/toolchain/mac_x86_newlib/bin/../lib/gcc/x86_64-nacl/4.4.3/../../../../x86_64-nacl/lib/../lib64/libstdc++.a(system_error.o)
                                          0xf (size before relaxing)
 *fill*         0x0000000010021074        0xc 
 .rodata._ZTVSt14error_category
                0x0000000010021080       0x24 /Users/stevefar/nacl_sdk/pepper_45/toolchain/mac_x86_newlib/bin/../lib/gcc/x86_64-nacl/4.4.3/../../../../x86_64-nacl/lib/../lib64/libstdc++.a(system_error.o)
                0x0000000010021080                _ZTVSt14error_category
 *fill*         0x00000000100210a4        0xc 
 .rodata._ZTVSt12system_error
                0x00000000100210b0       0x14 /Users/stevefar/nacl_sdk/pepper_45/toolchain/mac_x86_newlib/bin/../lib/gcc/x86_64-nacl/4.4.3/../../../../x86_64-nacl/lib/../lib64/libstdc++.a(system_error.o)
                0x00000000100210b0                _ZTVSt12system_error
 *fill*         0x00000000100210c4        0xc 
 .rodata._ZTSSt12system_error
                0x00000000100210d0       0x11 /Users/stevefar/nacl_sdk/pepper_45/toolchain/mac_x86_newlib/bin/../lib/gcc/x86_64-nacl/4.4.3/../../../../x86_64-nacl/lib/../lib64/libstdc++.a(system_error.o)
                0x00000000100210d0                _ZTSSt12system_error
 *fill*         0x00000000100210e1        0x3 
 .rodata._ZTISt12system_error
                0x00000000100210e4        0xc /Users/stevefar/nacl_sdk/pepper_45/toolchain/mac_x86_newlib/bin/../lib/gcc/x86_64-nacl/4.4.3/../../../../x86_64-nacl/lib/../lib64/libstdc++.a(system_error.o)
                0x00000000100210e4                _ZTISt12system_error
 .rodata._ZTSSt14error_category
                0x00000000100210f0       0x13 /Users/stevefar/nacl_sdk/pepper_45/toolchain/mac_x86_newlib/bin/../lib/gcc/x86_64-nacl/4.4.3/../../../../x86_64-nacl/lib/../lib64/libstdc++.a(system_error.o)
                0x00000000100210f0                _ZTSSt14error_category
 *fill*         0x0000000010021103        0x1 
 .rodata._ZTISt14error_category
                0x0000000010021104        0x8 /Users/stevefar/nacl_sdk/pepper_45/toolchain/mac_x86_newlib/bin/../lib/gcc/x86_64-nacl/4.4.3/../../../../x86_64-nacl/lib/../lib64/libstdc++.a(system_error.o)
                0x0000000010021104                _ZTISt14error_category
 *fill*         0x000000001002110c       0x14 
 .rodata._ZTVN12_GLOBAL__N_122generic_error_categoryE
                0x0000000010021120       0x24 /Users/stevefar/nacl_sdk/pepper_45/toolchain/mac_x86_newlib/bin/../lib/gcc/x86_64-nacl/4.4.3/../../../../x86_64-nacl/lib/../lib64/libstdc++.a(system_error.o)
 *fill*         0x0000000010021144       0x1c 
 .rodata._ZTSN12_GLOBAL__N_122generic_error_categoryE
                0x0000000010021160       0x29 /Users/stevefar/nacl_sdk/pepper_45/toolchain/mac_x86_newlib/bin/../lib/gcc/x86_64-nacl/4.4.3/../../../../x86_64-nacl/lib/../lib64/libstdc++.a(system_error.o)
 *fill*         0x0000000010021189       0x17 
 .rodata._ZTVN12_GLOBAL__N_121system_error_categoryE
                0x00000000100211a0       0x24 /Users/stevefar/nacl_sdk/pepper_45/toolchain/mac_x86_newlib/bin/../lib/gcc/x86_64-nacl/4.4.3/../../../../x86_64-nacl/lib/../lib64/libstdc++.a(system_error.o)
 *fill*         0x00000000100211c4       0x1c 
 .rodata._ZTSN12_GLOBAL__N_121system_error_categoryE
                0x00000000100211e0       0x28 /Users/stevefar/nacl_sdk/pepper_45/toolchain/mac_x86_newlib/bin/../lib/gcc/x86_64-nacl/4.4.3/../../../../x86_64-nacl/lib/../lib64/libstdc++.a(system_error.o)
 .rodata._ZTIN12_GLOBAL__N_122generic_error_categoryE
                0x0000000010021208        0xc /Users/stevefar/nacl_sdk/pepper_45/toolchain/mac_x86_newlib/bin/../lib/gcc/x86_64-nacl/4.4.3/../../../../x86_64-nacl/lib/../lib64/libstdc++.a(system_error.o)
 .rodata._ZTIN12_GLOBAL__N_121system_error_categoryE
                0x0000000010021214        0xc /Users/stevefar/nacl_sdk/pepper_45/toolchain/mac_x86_newlib/bin/../lib/gcc/x86_64-nacl/4.4.3/../../../../x86_64-nacl/lib/../lib64/libstdc++.a(system_error.o)
 .rodata.str1.1
                0x0000000010021220        0xe /Users/stevefar/nacl_sdk/pepper_45/toolchain/mac_x86_newlib/bin/../lib/gcc/x86_64-nacl/4.4.3/../../../../x86_64-nacl/lib/../lib64/libstdc++.a(bad_cast.o)
 *fill*         0x000000001002122e        0x2 
 .rodata._ZTVSt8bad_cast
                0x0000000010021230       0x14 /Users/stevefar/nacl_sdk/pepper_45/toolchain/mac_x86_newlib/bin/../lib/gcc/x86_64-nacl/4.4.3/../../../../x86_64-nacl/lib/../lib64/libstdc++.a(bad_cast.o)
                0x0000000010021230                _ZTVSt8bad_cast
 .rodata._ZTSSt8bad_cast
                0x0000000010021244        0xc /Users/stevefar/nacl_sdk/pepper_45/toolchain/mac_x86_newlib/bin/../lib/gcc/x86_64-nacl/4.4.3/../../../../x86_64-nacl/lib/../lib64/libstdc++.a(bad_cast.o)
                0x0000000010021244                _ZTSSt8bad_cast
 .rodata._ZTISt8bad_cast
                0x0000000010021250        0xc /Users/stevefar/nacl_sdk/pepper_45/toolchain/mac_x86_newlib/bin/../lib/gcc/x86_64-nacl/4.4.3/../../../../x86_64-nacl/lib/../lib64/libstdc++.a(bad_cast.o)
                0x0000000010021250                _ZTISt8bad_cast
 .rodata.str1.1
                0x000000001002125c       0x10 /Users/stevefar/nacl_sdk/pepper_45/toolchain/mac_x86_newlib/bin/../lib/gcc/x86_64-nacl/4.4.3/../../../../x86_64-nacl/lib/../lib64/libstdc++.a(bad_typeid.o)
 *fill*         0x000000001002126c        0x4 
 .rodata._ZTVSt10bad_typeid
                0x0000000010021270       0x14 /Users/stevefar/nacl_sdk/pepper_45/toolchain/mac_x86_newlib/bin/../lib/gcc/x86_64-nacl/4.4.3/../../../../x86_64-nacl/lib/../lib64/libstdc++.a(bad_typeid.o)
                0x0000000010021270                _ZTVSt10bad_typeid
 .rodata._ZTSSt10bad_typeid
                0x0000000010021284        0xf /Users/stevefar/nacl_sdk/pepper_45/toolchain/mac_x86_newlib/bin/../lib/gcc/x86_64-nacl/4.4.3/../../../../x86_64-nacl/lib/../lib64/libstdc++.a(bad_typeid.o)
                0x0000000010021284                _ZTSSt10bad_typeid
 *fill*         0x0000000010021293        0x1 
 .rodata._ZTISt10bad_typeid
                0x0000000010021294        0xc /Users/stevefar/nacl_sdk/pepper_45/toolchain/mac_x86_newlib/bin/../lib/gcc/x86_64-nacl/4.4.3/../../../../x86_64-nacl/lib/../lib64/libstdc++.a(bad_typeid.o)
                0x0000000010021294                _ZTISt10bad_typeid
 .rodata.str1.8
                0x0000000000000000       0x4e /Users/stevefar/nacl_sdk/pepper_45/toolchain/mac_x86_newlib/bin/../lib/gcc/x86_64-nacl/4.4.3/../../../../x86_64-nacl/lib/../lib64/libstdc++.a(eh_alloc.o)
 .rodata.str1.1
                0x00000000100212a0       0x22 /Users/stevefar/nacl_sdk/pepper_45/toolchain/mac_x86_newlib/bin/../lib/gcc/x86_64-nacl/4.4.3/../../../../x86_64-nacl/lib/../lib64/libstdc++.a(eh_exception.o)
 *fill*         0x00000000100212c2        0xe 
 .rodata._ZTVN10__cxxabiv119__foreign_exceptionE
                0x00000000100212d0       0x14 /Users/stevefar/nacl_sdk/pepper_45/toolchain/mac_x86_newlib/bin/../lib/gcc/x86_64-nacl/4.4.3/../../../../x86_64-nacl/lib/../lib64/libstdc++.a(eh_exception.o)
                0x00000000100212d0                _ZTVN10__cxxabiv119__foreign_exceptionE
 *fill*         0x00000000100212e4        0xc 
 .rodata._ZTVN10__cxxabiv115__forced_unwindE
                0x00000000100212f0       0x14 /Users/stevefar/nacl_sdk/pepper_45/toolchain/mac_x86_newlib/bin/../lib/gcc/x86_64-nacl/4.4.3/../../../../x86_64-nacl/lib/../lib64/libstdc++.a(eh_exception.o)
                0x00000000100212f0                _ZTVN10__cxxabiv115__forced_unwindE
 *fill*         0x0000000010021304        0xc 
 .rodata._ZTVSt13bad_exception
                0x0000000010021310       0x14 /Users/stevefar/nacl_sdk/pepper_45/toolchain/mac_x86_newlib/bin/../lib/gcc/x86_64-nacl/4.4.3/../../../../x86_64-nacl/lib/../lib64/libstdc++.a(eh_exception.o)
                0x0000000010021310                _ZTVSt13bad_exception
 *fill*         0x0000000010021324        0xc 
 .rodata._ZTVSt9exception
                0x0000000010021330       0x14 /Users/stevefar/nacl_sdk/pepper_45/toolchain/mac_x86_newlib/bin/../lib/gcc/x86_64-nacl/4.4.3/../../../../x86_64-nacl/lib/../lib64/libstdc++.a(eh_exception.o)
                0x0000000010021330                _ZTVSt9exception
 *fill*         0x0000000010021344       0x1c 
 .rodata._ZTSN10__cxxabiv119__foreign_exceptionE
                0x0000000010021360       0x24 /Users/stevefar/nacl_sdk/pepper_45/toolchain/mac_x86_newlib/bin/../lib/gcc/x86_64-nacl/4.4.3/../../../../x86_64-nacl/lib/../lib64/libstdc++.a(eh_exception.o)
                0x0000000010021360                _ZTSN10__cxxabiv119__foreign_exceptionE
 .rodata._ZTIN10__cxxabiv119__foreign_exceptionE
                0x0000000010021384        0x8 /Users/stevefar/nacl_sdk/pepper_45/toolchain/mac_x86_newlib/bin/../lib/gcc/x86_64-nacl/4.4.3/../../../../x86_64-nacl/lib/../lib64/libstdc++.a(eh_exception.o)
                0x0000000010021384                _ZTIN10__cxxabiv119__foreign_exceptionE
 *fill*         0x000000001002138c       0x14 
 .rodata._ZTSN10__cxxabiv115__forced_unwindE
                0x00000000100213a0       0x20 /Users/stevefar/nacl_sdk/pepper_45/toolchain/mac_x86_newlib/bin/../lib/gcc/x86_64-nacl/4.4.3/../../../../x86_64-nacl/lib/../lib64/libstdc++.a(eh_exception.o)
                0x00000000100213a0                _ZTSN10__cxxabiv115__forced_unwindE
 .rodata._ZTIN10__cxxabiv115__forced_unwindE
                0x00000000100213c0        0x8 /Users/stevefar/nacl_sdk/pepper_45/toolchain/mac_x86_newlib/bin/../lib/gcc/x86_64-nacl/4.4.3/../../../../x86_64-nacl/lib/../lib64/libstdc++.a(eh_exception.o)
                0x00000000100213c0                _ZTIN10__cxxabiv115__forced_unwindE
 *fill*         0x00000000100213c8        0x8 
 .rodata._ZTSSt13bad_exception
                0x00000000100213d0       0x12 /Users/stevefar/nacl_sdk/pepper_45/toolchain/mac_x86_newlib/bin/../lib/gcc/x86_64-nacl/4.4.3/../../../../x86_64-nacl/lib/../lib64/libstdc++.a(eh_exception.o)
                0x00000000100213d0                _ZTSSt13bad_exception
 *fill*         0x00000000100213e2        0x2 
 .rodata._ZTISt13bad_exception
                0x00000000100213e4        0xc /Users/stevefar/nacl_sdk/pepper_45/toolchain/mac_x86_newlib/bin/../lib/gcc/x86_64-nacl/4.4.3/../../../../x86_64-nacl/lib/../lib64/libstdc++.a(eh_exception.o)
                0x00000000100213e4                _ZTISt13bad_exception
 .rodata._ZTSSt9exception
                0x00000000100213f0        0xd /Users/stevefar/nacl_sdk/pepper_45/toolchain/mac_x86_newlib/bin/../lib/gcc/x86_64-nacl/4.4.3/../../../../x86_64-nacl/lib/../lib64/libstdc++.a(eh_exception.o)
                0x00000000100213f0                _ZTSSt9exception
 *fill*         0x00000000100213fd        0x3 
 .rodata._ZTISt9exception
                0x0000000010021400        0x8 /Users/stevefar/nacl_sdk/pepper_45/toolchain/mac_x86_newlib/bin/../lib/gcc/x86_64-nacl/4.4.3/../../../../x86_64-nacl/lib/../lib64/libstdc++.a(eh_exception.o)
                0x0000000010021400                _ZTISt9exception
 .rodata.str1.1
                0x0000000010021408        0xf /Users/stevefar/nacl_sdk/pepper_45/toolchain/mac_x86_newlib/bin/../lib/gcc/x86_64-nacl/4.4.3/../../../../x86_64-nacl/lib/../lib64/libstdc++.a(new_handler.o)
 .rodata._ZSt7nothrow
                0x0000000010021417        0x1 /Users/stevefar/nacl_sdk/pepper_45/toolchain/mac_x86_newlib/bin/../lib/gcc/x86_64-nacl/4.4.3/../../../../x86_64-nacl/lib/../lib64/libstdc++.a(new_handler.o)
                0x0000000010021417                _ZSt7nothrow
 *fill*         0x0000000010021418        0x8 
 .rodata._ZTVSt9bad_alloc
                0x0000000010021420       0x14 /Users/stevefar/nacl_sdk/pepper_45/toolchain/mac_x86_newlib/bin/../lib/gcc/x86_64-nacl/4.4.3/../../../../x86_64-nacl/lib/../lib64/libstdc++.a(new_handler.o)
                0x0000000010021420                _ZTVSt9bad_alloc
 .rodata._ZTSSt9bad_alloc
                0x0000000010021434        0xd /Users/stevefar/nacl_sdk/pepper_45/toolchain/mac_x86_newlib/bin/../lib/gcc/x86_64-nacl/4.4.3/../../../../x86_64-nacl/lib/../lib64/libstdc++.a(new_handler.o)
                0x0000000010021434                _ZTSSt9bad_alloc
 *fill*         0x0000000010021441        0x3 
 .rodata._ZTISt9bad_alloc
                0x0000000010021444        0xc /Users/stevefar/nacl_sdk/pepper_45/toolchain/mac_x86_newlib/bin/../lib/gcc/x86_64-nacl/4.4.3/../../../../x86_64-nacl/lib/../lib64/libstdc++.a(new_handler.o)
                0x0000000010021444                _ZTISt9bad_alloc
 .rodata.str1.1
                0x0000000010021450       0x2d /Users/stevefar/nacl_sdk/pepper_45/toolchain/mac_x86_newlib/bin/../lib/gcc/x86_64-nacl/4.4.3/../../../../x86_64-nacl/lib/../lib64/libstdc++.a(vterminate.o)
 *fill*         0x000000001002147d        0x3 
 .rodata.str1.8
                0x0000000010021480       0x66 /Users/stevefar/nacl_sdk/pepper_45/toolchain/mac_x86_newlib/bin/../lib/gcc/x86_64-nacl/4.4.3/../../../../x86_64-nacl/lib/../lib64/libstdc++.a(vterminate.o)
 *fill*         0x00000000100214e6       0x1a 
 .rodata        0x0000000010021500     0x1310 /Users/stevefar/nacl_sdk/pepper_45/toolchain/mac_x86_newlib/bin/../lib/gcc/x86_64-nacl/4.4.3/../../../../x86_64-nacl/lib/../lib64/libstdc++.a(cp-demangle.o)
 .rodata.str1.1
                0x0000000010022810      0x436 /Users/stevefar/nacl_sdk/pepper_45/toolchain/mac_x86_newlib/bin/../lib/gcc/x86_64-nacl/4.4.3/../../../../x86_64-nacl/lib/../lib64/libstdc++.a(cp-demangle.o)
                                        0x4ea (size before relaxing)
 *fill*         0x0000000010022c46        0x2 
 .rodata.str1.8
                0x0000000010022c48       0xeb /Users/stevefar/nacl_sdk/pepper_45/toolchain/mac_x86_newlib/bin/../lib/gcc/x86_64-nacl/4.4.3/../../../../x86_64-nacl/lib/../lib64/libstdc++.a(cp-demangle.o)
 *fill*         0x0000000010022d33        0x1 
 .rodata        0x0000000010022d34      0x5b8 /Users/stevefar/nacl_sdk/pepper_45/toolchain/mac_x86_newlib/bin/../lib/gcc/x86_64-nacl/4.4.3/libgcc.a(unwind-dw2.o)
 .rodata        0x00000000100232ec       0x34 /Users/stevefar/nacl_sdk/pepper_45/toolchain/mac_x86_newlib/bin/../lib/gcc/x86_64-nacl/4.4.3/libgcc.a(unwind-dw2-fde-glibc.o)
 .rodata        0x0000000010023320       0x13 /Users/stevefar/nacl_sdk/pepper_45/toolchain/mac_x86_newlib/bin/../lib/gcc/x86_64-nacl/4.4.3/../../../../x86_64-nacl/lib/../lib64/libnacl.a(abort_9f6b5845.o)
 .rodata.str1.1
                0x0000000010023333       0x4e /Users/stevefar/nacl_sdk/pepper_45/toolchain/mac_x86_newlib/bin/../lib/gcc/x86_64-nacl/4.4.3/../../../../x86_64-nacl/lib/../lib64/libnacl.a(malloc_222c4a1e.o)
 *fill*         0x0000000010023381        0x7 
 .rodata.str1.8
                0x0000000010023388       0x5c /Users/stevefar/nacl_sdk/pepper_45/toolchain/mac_x86_newlib/bin/../lib/gcc/x86_64-nacl/4.4.3/../../../../x86_64-nacl/lib/../lib64/libnacl.a(nacl_irt_6de1d53f.o)
 .rodata.str1.1
                0x00000000100233e4       0x88 /Users/stevefar/nacl_sdk/pepper_45/toolchain/mac_x86_newlib/bin/../lib/gcc/x86_64-nacl/4.4.3/../../../../x86_64-nacl/lib/../lib64/libnacl.a(nacl_irt_init_7b4f826e.o)
 .rodata        0x000000001002346c        0x4 /Users/stevefar/nacl_sdk/pepper_45/toolchain/mac_x86_newlib/bin/../lib/gcc/x86_64-nacl/4.4.3/../../../../x86_64-nacl/lib/../lib64/libcrt_common.a(lib_a-impure.o)
                0x000000001002346c                _global_impure_ptr
 .rodata.str1.1
                0x0000000000000000       0x88 /Users/stevefar/nacl_sdk/pepper_45/toolchain/mac_x86_newlib/bin/../lib/gcc/x86_64-nacl/4.4.3/../../../../x86_64-nacl/lib/../lib64/libcrt_common.a(lib_a-impure.o)
                                          0x2 (size before relaxing)
 .rodata.str1.1
                0x0000000010023470      0x56b /Users/stevefar/nacl_sdk/pepper_45/toolchain/mac_x86_newlib/bin/../lib/gcc/x86_64-nacl/4.4.3/../../../../x86_64-nacl/lib/../lib64/libcrt_common.a(lib_a-strerror.o)
                                        0x56c (size before relaxing)
 *fill*         0x00000000100239db        0x5 
 .rodata.str1.8
                0x00000000100239e0      0x1e0 /Users/stevefar/nacl_sdk/pepper_45/toolchain/mac_x86_newlib/bin/../lib/gcc/x86_64-nacl/4.4.3/../../../../x86_64-nacl/lib/../lib64/libcrt_common.a(lib_a-strerror.o)
                                        0x1d9 (size before relaxing)
 .rodata.str1.1
                0x0000000010023bc0       0x39 /Users/stevefar/nacl_sdk/pepper_45/toolchain/mac_x86_newlib/bin/../lib/gcc/x86_64-nacl/4.4.3/../../../../x86_64-nacl/lib/../lib64/libcrt_common.a(lib_a-svfprintf.o)
                                         0x3b (size before relaxing)
 *fill*         0x0000000010023bf9        0x7 
 .rodata        0x0000000010023c00      0x300 /Users/stevefar/nacl_sdk/pepper_45/toolchain/mac_x86_newlib/bin/../lib/gcc/x86_64-nacl/4.4.3/../../../../x86_64-nacl/lib/../lib64/libcrt_common.a(lib_a-svfprintf.o)
 .rodata.cst8   0x0000000010023f00       0x20 /Users/stevefar/nacl_sdk/pepper_45/toolchain/mac_x86_newlib/bin/../lib/gcc/x86_64-nacl/4.4.3/../../../../x86_64-nacl/lib/../lib64/libcrt_common.a(lib_a-svfprintf.o)
 .rodata.cst16  0x0000000010023f20       0x10 /Users/stevefar/nacl_sdk/pepper_45/toolchain/mac_x86_newlib/bin/../lib/gcc/x86_64-nacl/4.4.3/../../../../x86_64-nacl/lib/../lib64/libcrt_common.a(lib_a-svfprintf.o)
 .rodata.str1.1
                0x0000000000000000       0x3b /Users/stevefar/nacl_sdk/pepper_45/toolchain/mac_x86_newlib/bin/../lib/gcc/x86_64-nacl/4.4.3/../../../../x86_64-nacl/lib/../lib64/libcrt_common.a(lib_a-vfprintf.o)
 .rodata        0x0000000010023f30      0x300 /Users/stevefar/nacl_sdk/pepper_45/toolchain/mac_x86_newlib/bin/../lib/gcc/x86_64-nacl/4.4.3/../../../../x86_64-nacl/lib/../lib64/libcrt_common.a(lib_a-vfprintf.o)
 .rodata.cst8   0x0000000000000000       0x20 /Users/stevefar/nacl_sdk/pepper_45/toolchain/mac_x86_newlib/bin/../lib/gcc/x86_64-nacl/4.4.3/../../../../x86_64-nacl/lib/../lib64/libcrt_common.a(lib_a-vfprintf.o)
 .rodata.cst16  0x0000000000000000       0x10 /Users/stevefar/nacl_sdk/pepper_45/toolchain/mac_x86_newlib/bin/../lib/gcc/x86_64-nacl/4.4.3/../../../../x86_64-nacl/lib/../lib64/libcrt_common.a(lib_a-vfprintf.o)
 .rodata.str1.1
                0x0000000010024230        0xd /Users/stevefar/nacl_sdk/pepper_45/toolchain/mac_x86_newlib/bin/../lib/gcc/x86_64-nacl/4.4.3/../../../../x86_64-nacl/lib/../lib64/libcrt_common.a(lib_a-dtoa.o)
                                          0xf (size before relaxing)
 *fill*         0x000000001002423d        0x3 
 .rodata.cst8   0x0000000010024240       0x40 /Users/stevefar/nacl_sdk/pepper_45/toolchain/mac_x86_newlib/bin/../lib/gcc/x86_64-nacl/4.4.3/../../../../x86_64-nacl/lib/../lib64/libcrt_common.a(lib_a-dtoa.o)
                                         0x48 (size before relaxing)
 .rodata.cst16  0x0000000000000000       0x10 /Users/stevefar/nacl_sdk/pepper_45/toolchain/mac_x86_newlib/bin/../lib/gcc/x86_64-nacl/4.4.3/../../../../x86_64-nacl/lib/../lib64/libcrt_common.a(lib_a-dtoa.o)
 .rodata.str1.1
                0x0000000010024280       0xe6 /Users/stevefar/nacl_sdk/pepper_45/toolchain/mac_x86_newlib/bin/../lib/gcc/x86_64-nacl/4.4.3/../../../../x86_64-nacl/lib/../lib64/libcrt_common.a(lib_a-locale.o)
                                         0xf4 (size before relaxing)
 *fill*         0x0000000010024366        0xa 
 .rodata        0x0000000010024370      0x1cc /Users/stevefar/nacl_sdk/pepper_45/toolchain/mac_x86_newlib/bin/../lib/gcc/x86_64-nacl/4.4.3/../../../../x86_64-nacl/lib/../lib64/libcrt_common.a(lib_a-locale.o)
 *fill*         0x000000001002453c        0x4 
 .rodata        0x0000000010024540      0x280 /Users/stevefar/nacl_sdk/pepper_45/toolchain/mac_x86_newlib/bin/../lib/gcc/x86_64-nacl/4.4.3/../../../../x86_64-nacl/lib/../lib64/libcrt_common.a(lib_a-mbtowc_r.o)
 .rodata        0x00000000100247c0      0x154 /Users/stevefar/nacl_sdk/pepper_45/toolchain/mac_x86_newlib/bin/../lib/gcc/x86_64-nacl/4.4.3/../../../../x86_64-nacl/lib/../lib64/libcrt_common.a(lib_a-mprec.o)
                0x00000000100247c0                __mprec_tens
                0x00000000100248a0                __mprec_bigtens
                0x00000000100248e0                __mprec_tinytens
 .rodata.cst8   0x0000000000000000       0x10 /Users/stevefar/nacl_sdk/pepper_45/toolchain/mac_x86_newlib/bin/../lib/gcc/x86_64-nacl/4.4.3/../../../../x86_64-nacl/lib/../lib64/libcrt_common.a(lib_a-mprec.o)
 *fill*         0x0000000010024914        0x4 
 .rodata.cst8   0x0000000010024918        0x8 /Users/stevefar/nacl_sdk/pepper_45/toolchain/mac_x86_newlib/bin/../lib/gcc/x86_64-nacl/4.4.3/../../../../x86_64-nacl/lib/../lib64/libcrt_common.a(lib_a-s_frexp.o)
 .rodata.str1.1
                0x0000000000000000       0x29 /Users/stevefar/nacl_sdk/pepper_45/toolchain/mac_x86_newlib/bin/../lib/gcc/x86_64-nacl/4.4.3/../../../../x86_64-nacl/lib/../lib64/libcrt_common.a(lib_a-svfiprintf.o)
 .rodata        0x0000000010024920      0x300 /Users/stevefar/nacl_sdk/pepper_45/toolchain/mac_x86_newlib/bin/../lib/gcc/x86_64-nacl/4.4.3/../../../../x86_64-nacl/lib/../lib64/libcrt_common.a(lib_a-svfiprintf.o)
 .rodata.str1.1
                0x0000000000000000       0x29 /Users/stevefar/nacl_sdk/pepper_45/toolchain/mac_x86_newlib/bin/../lib/gcc/x86_64-nacl/4.4.3/../../../../x86_64-nacl/lib/../lib64/libcrt_common.a(lib_a-vfiprintf.o)
 .rodata        0x0000000010024c20      0x300 /Users/stevefar/nacl_sdk/pepper_45/toolchain/mac_x86_newlib/bin/../lib/gcc/x86_64-nacl/4.4.3/../../../../x86_64-nacl/lib/../lib64/libcrt_common.a(lib_a-vfiprintf.o)
 .rodata        0x0000000010024f20      0x2a0 /Users/stevefar/nacl_sdk/pepper_45/toolchain/mac_x86_newlib/bin/../lib/gcc/x86_64-nacl/4.4.3/../../../../x86_64-nacl/lib/../lib64/libcrt_common.a(lib_a-ctype_.o)
                0x0000000010024f20                _ctype_
 .rodata.str1.1
                0x00000000100251c0       0x16 /Users/stevefar/nacl_sdk/pepper_45/toolchain/mac_x86_newlib/bin/../lib/gcc/x86_64-nacl/4.4.3/../../../../x86_64-nacl/lib/../lib64/libnacl.a(nacl_irt_fdio_b571b5e7.o)
                                         0x3e (size before relaxing)

.rodata1
 *(.rodata1)

.eh_frame_hdr   0x00000000100251d8     0x2084
 *(.eh_frame_hdr)
 .eh_frame_hdr  0x00000000100251d8     0x2084 newlib/Release/multi_platform_x86_64.o

.eh_frame       0x0000000010027260     0x75b4
 *(.eh_frame)
 .eh_frame      0x0000000010027260        0x0 /Users/stevefar/nacl_sdk/pepper_45/toolchain/mac_x86_newlib/bin/../lib/gcc/x86_64-nacl/4.4.3/crtbegin.o
 .eh_frame      0x0000000010027260      0x100 newlib/Release/multi_platform_x86_64.o
                                         0xf8 (size before relaxing)
 .eh_frame      0x0000000010027360      0x490 /Users/stevefar/nacl_sdk/pepper_45/lib/newlib_x86_64/Release/libppapi_cpp.a(instance_x86_64.o)
                                        0x460 (size before relaxing)
 .eh_frame      0x00000000100277f0      0x408 /Users/stevefar/nacl_sdk/pepper_45/lib/newlib_x86_64/Release/libppapi_cpp.a(module_x86_64.o)
 .eh_frame      0x0000000010027bf8       0x80 /Users/stevefar/nacl_sdk/pepper_45/lib/newlib_x86_64/Release/libppapi_cpp.a(ppp_entrypoints_x86_64.o)
                                         0x88 (size before relaxing)
 .eh_frame      0x0000000010027c78      0x180 /Users/stevefar/nacl_sdk/pepper_45/lib/newlib_x86_64/Release/libppapi_cpp.a(resource_x86_64.o)
                                        0x178 (size before relaxing)
 .eh_frame      0x0000000010027df8      0x200 /Users/stevefar/nacl_sdk/pepper_45/lib/newlib_x86_64/Release/libppapi_cpp.a(url_loader_x86_64.o)
                                        0x248 (size before relaxing)
 .eh_frame      0x0000000010027ff8       0xd8 /Users/stevefar/nacl_sdk/pepper_45/lib/newlib_x86_64/Release/libppapi_cpp.a(url_response_info_x86_64.o)
                                        0x138 (size before relaxing)
 .eh_frame      0x00000000100280d0      0x3b0 /Users/stevefar/nacl_sdk/pepper_45/lib/newlib_x86_64/Release/libppapi_cpp.a(var_x86_64.o)
                                        0x3a0 (size before relaxing)
 .eh_frame      0x0000000010028480      0x190 /Users/stevefar/nacl_sdk/pepper_45/lib/newlib_x86_64/Release/libppapi_cpp.a(view_x86_64.o)
                                        0x1d8 (size before relaxing)
 .eh_frame      0x0000000010028610       0x30 /Users/stevefar/nacl_sdk/pepper_45/lib/newlib_x86_64/Release/libppapi_cpp.a(core_x86_64.o)
                                         0x48 (size before relaxing)
 .eh_frame      0x0000000010028640      0x280 /Users/stevefar/nacl_sdk/pepper_45/lib/newlib_x86_64/Release/libppapi_cpp.a(file_ref_x86_64.o)
                                        0x2c8 (size before relaxing)
 .eh_frame      0x00000000100288c0      0x910 /Users/stevefar/nacl_sdk/pepper_45/lib/newlib_x86_64/Release/libppapi_cpp.a(input_event_x86_64.o)
                                        0x8b8 (size before relaxing)
 .eh_frame      0x00000000100291d0       0x30 /Users/stevefar/nacl_sdk/pepper_45/toolchain/mac_x86_newlib/bin/../lib/gcc/x86_64-nacl/4.4.3/../../../../x86_64-nacl/lib/../lib64/libppapi_stub.a(plugin_main_irt_21ce9d26.o)
 .eh_frame      0x0000000010029200       0x18 /Users/stevefar/nacl_sdk/pepper_45/toolchain/mac_x86_newlib/bin/../lib/gcc/x86_64-nacl/4.4.3/../../../../x86_64-nacl/lib/../lib64/libppapi_stub.a(ppapi_plugin_main_399d0cf7.o)
                                         0x30 (size before relaxing)
 .eh_frame      0x0000000010029218       0x38 /Users/stevefar/nacl_sdk/pepper_45/toolchain/mac_x86_newlib/bin/../lib/gcc/x86_64-nacl/4.4.3/../../../../x86_64-nacl/lib/../lib64/libppapi_stub.a(ppapi_plugin_start_8da67623.o)
                                         0x50 (size before relaxing)
 .eh_frame      0x0000000010029250       0x48 /Users/stevefar/nacl_sdk/pepper_45/toolchain/mac_x86_newlib/bin/../lib/gcc/x86_64-nacl/4.4.3/../../../../x86_64-nacl/lib/../lib64/libppapi_stub.a(thread_creator_ccf263e1.o)
                                         0x58 (size before relaxing)
 .eh_frame      0x0000000010029298      0x448 /Users/stevefar/nacl_sdk/pepper_45/toolchain/mac_x86_newlib/bin/../lib/gcc/x86_64-nacl/4.4.3/../../../../x86_64-nacl/lib/../lib64/libpthread.a(nc_thread_7e478b15.o)
                                        0x3e0 (size before relaxing)
 .eh_frame      0x00000000100296e0      0x140 /Users/stevefar/nacl_sdk/pepper_45/toolchain/mac_x86_newlib/bin/../lib/gcc/x86_64-nacl/4.4.3/../../../../x86_64-nacl/lib/../lib64/libpthread.a(nc_condvar_305aa45a.o)
                                        0x128 (size before relaxing)
 .eh_frame      0x0000000010029820      0x390 /Users/stevefar/nacl_sdk/pepper_45/toolchain/mac_x86_newlib/bin/../lib/gcc/x86_64-nacl/4.4.3/../../../../x86_64-nacl/lib/../lib64/libpthread.a(dynamic_annotations_33ba59cc.o)
                                        0x310 (size before relaxing)
 .eh_frame      0x0000000010029bb0      0x180 /Users/stevefar/nacl_sdk/pepper_45/toolchain/mac_x86_newlib/bin/../lib/gcc/x86_64-nacl/4.4.3/../../../../x86_64-nacl/lib/../lib64/libpthread.a(nc_mutex_86341ae1.o)
                                        0x160 (size before relaxing)
 .eh_frame      0x0000000010029d30       0x18 /Users/stevefar/nacl_sdk/pepper_45/toolchain/mac_x86_newlib/bin/../lib/gcc/x86_64-nacl/4.4.3/../../../../x86_64-nacl/lib/../lib64/libpthread.a(nc_init_irt_d3daafc0.o)
                                         0x30 (size before relaxing)
 .eh_frame      0x0000000010029d48       0xd8 /Users/stevefar/nacl_sdk/pepper_45/toolchain/mac_x86_newlib/bin/../lib/gcc/x86_64-nacl/4.4.3/../../../../x86_64-nacl/lib/../lib64/libstdc++.a(tree.o)
                                         0xd0 (size before relaxing)
 .eh_frame      0x0000000010029e20     0x12f0 /Users/stevefar/nacl_sdk/pepper_45/toolchain/mac_x86_newlib/bin/../lib/gcc/x86_64-nacl/4.4.3/../../../../x86_64-nacl/lib/../lib64/libstdc++.a(string-inst.o)
                                       0x1100 (size before relaxing)
 .eh_frame      0x000000001002b110       0xc8 /Users/stevefar/nacl_sdk/pepper_45/toolchain/mac_x86_newlib/bin/../lib/gcc/x86_64-nacl/4.4.3/../../../../x86_64-nacl/lib/../lib64/libstdc++.a(class_type_info.o)
 .eh_frame      0x000000001002b1d8       0x18 /Users/stevefar/nacl_sdk/pepper_45/toolchain/mac_x86_newlib/bin/../lib/gcc/x86_64-nacl/4.4.3/../../../../x86_64-nacl/lib/../lib64/libstdc++.a(del_op.o)
                                         0x30 (size before relaxing)
 .eh_frame      0x000000001002b1f0       0x68 /Users/stevefar/nacl_sdk/pepper_45/toolchain/mac_x86_newlib/bin/../lib/gcc/x86_64-nacl/4.4.3/../../../../x86_64-nacl/lib/../lib64/libstdc++.a(eh_catch.o)
                                         0x98 (size before relaxing)
 .eh_frame      0x000000001002b258       0x88 /Users/stevefar/nacl_sdk/pepper_45/toolchain/mac_x86_newlib/bin/../lib/gcc/x86_64-nacl/4.4.3/../../../../x86_64-nacl/lib/../lib64/libstdc++.a(eh_globals.o)
                                         0xc0 (size before relaxing)
 .eh_frame      0x000000001002b2e0      0x128 /Users/stevefar/nacl_sdk/pepper_45/toolchain/mac_x86_newlib/bin/../lib/gcc/x86_64-nacl/4.4.3/../../../../x86_64-nacl/lib/../lib64/libstdc++.a(eh_personality.o)
                                        0x150 (size before relaxing)
 .eh_frame      0x000000001002b408       0x90 /Users/stevefar/nacl_sdk/pepper_45/toolchain/mac_x86_newlib/bin/../lib/gcc/x86_64-nacl/4.4.3/../../../../x86_64-nacl/lib/../lib64/libstdc++.a(eh_terminate.o)
                                         0xb8 (size before relaxing)
 .eh_frame      0x000000001002b498       0x48 /Users/stevefar/nacl_sdk/pepper_45/toolchain/mac_x86_newlib/bin/../lib/gcc/x86_64-nacl/4.4.3/../../../../x86_64-nacl/lib/../lib64/libstdc++.a(eh_throw.o)
                                         0x68 (size before relaxing)
 .eh_frame      0x000000001002b4e0      0x158 /Users/stevefar/nacl_sdk/pepper_45/toolchain/mac_x86_newlib/bin/../lib/gcc/x86_64-nacl/4.4.3/../../../../x86_64-nacl/lib/../lib64/libstdc++.a(guard.o)
                                        0x168 (size before relaxing)
 .eh_frame      0x000000001002b638       0x20 /Users/stevefar/nacl_sdk/pepper_45/toolchain/mac_x86_newlib/bin/../lib/gcc/x86_64-nacl/4.4.3/../../../../x86_64-nacl/lib/../lib64/libstdc++.a(new_op.o)
                                         0x40 (size before relaxing)
 .eh_frame      0x000000001002b658       0x18 /Users/stevefar/nacl_sdk/pepper_45/toolchain/mac_x86_newlib/bin/../lib/gcc/x86_64-nacl/4.4.3/../../../../x86_64-nacl/lib/../lib64/libstdc++.a(pure.o)
                                         0x30 (size before relaxing)
 .eh_frame      0x000000001002b670       0x98 /Users/stevefar/nacl_sdk/pepper_45/toolchain/mac_x86_newlib/bin/../lib/gcc/x86_64-nacl/4.4.3/../../../../x86_64-nacl/lib/../lib64/libstdc++.a(si_class_type_info.o)
                                         0xa8 (size before relaxing)
 .eh_frame      0x000000001002b708       0xa8 /Users/stevefar/nacl_sdk/pepper_45/toolchain/mac_x86_newlib/bin/../lib/gcc/x86_64-nacl/4.4.3/../../../../x86_64-nacl/lib/../lib64/libstdc++.a(tinfo.o)
 .eh_frame      0x000000001002b7b0      0x360 /Users/stevefar/nacl_sdk/pepper_45/toolchain/mac_x86_newlib/bin/../lib/gcc/x86_64-nacl/4.4.3/../../../../x86_64-nacl/lib/../lib64/libstdc++.a(functexcept.o)
                                        0x348 (size before relaxing)
 .eh_frame      0x000000001002bb10       0xb8 /Users/stevefar/nacl_sdk/pepper_45/toolchain/mac_x86_newlib/bin/../lib/gcc/x86_64-nacl/4.4.3/../../../../x86_64-nacl/lib/../lib64/libstdc++.a(ios_failure.o)
                                         0xe8 (size before relaxing)
 .eh_frame      0x000000001002bbc8      0x2c0 /Users/stevefar/nacl_sdk/pepper_45/toolchain/mac_x86_newlib/bin/../lib/gcc/x86_64-nacl/4.4.3/../../../../x86_64-nacl/lib/../lib64/libstdc++.a(stdexcept.o)
                                        0x410 (size before relaxing)
 .eh_frame      0x000000001002be88      0x1f0 /Users/stevefar/nacl_sdk/pepper_45/toolchain/mac_x86_newlib/bin/../lib/gcc/x86_64-nacl/4.4.3/../../../../x86_64-nacl/lib/../lib64/libstdc++.a(system_error.o)
 .eh_frame      0x000000001002c078       0x60 /Users/stevefar/nacl_sdk/pepper_45/toolchain/mac_x86_newlib/bin/../lib/gcc/x86_64-nacl/4.4.3/../../../../x86_64-nacl/lib/../lib64/libstdc++.a(bad_cast.o)
                                         0x70 (size before relaxing)
 .eh_frame      0x000000001002c0d8       0x60 /Users/stevefar/nacl_sdk/pepper_45/toolchain/mac_x86_newlib/bin/../lib/gcc/x86_64-nacl/4.4.3/../../../../x86_64-nacl/lib/../lib64/libstdc++.a(bad_typeid.o)
                                         0x70 (size before relaxing)
 .eh_frame      0x000000001002c138       0xc0 /Users/stevefar/nacl_sdk/pepper_45/toolchain/mac_x86_newlib/bin/../lib/gcc/x86_64-nacl/4.4.3/../../../../x86_64-nacl/lib/../lib64/libstdc++.a(eh_alloc.o)
                                        0x170 (size before relaxing)
 .eh_frame      0x000000001002c1f8       0x18 /Users/stevefar/nacl_sdk/pepper_45/toolchain/mac_x86_newlib/bin/../lib/gcc/x86_64-nacl/4.4.3/../../../../x86_64-nacl/lib/../lib64/libstdc++.a(eh_call.o)
                                         0x38 (size before relaxing)
 .eh_frame      0x000000001002c210      0x150 /Users/stevefar/nacl_sdk/pepper_45/toolchain/mac_x86_newlib/bin/../lib/gcc/x86_64-nacl/4.4.3/../../../../x86_64-nacl/lib/../lib64/libstdc++.a(eh_exception.o)
                                        0x138 (size before relaxing)
 .eh_frame      0x000000001002c360       0x78 /Users/stevefar/nacl_sdk/pepper_45/toolchain/mac_x86_newlib/bin/../lib/gcc/x86_64-nacl/4.4.3/../../../../x86_64-nacl/lib/../lib64/libstdc++.a(new_handler.o)
                                         0x88 (size before relaxing)
 .eh_frame      0x000000001002c3d8       0x20 /Users/stevefar/nacl_sdk/pepper_45/toolchain/mac_x86_newlib/bin/../lib/gcc/x86_64-nacl/4.4.3/../../../../x86_64-nacl/lib/../lib64/libstdc++.a(vterminate.o)
                                         0x40 (size before relaxing)
 .eh_frame      0x000000001002c3f8      0x488 /Users/stevefar/nacl_sdk/pepper_45/toolchain/mac_x86_newlib/bin/../lib/gcc/x86_64-nacl/4.4.3/../../../../x86_64-nacl/lib/../lib64/libstdc++.a(cp-demangle.o)
                                        0x458 (size before relaxing)
 .eh_frame      0x000000001002c880       0x18 /Users/stevefar/nacl_sdk/pepper_45/toolchain/mac_x86_newlib/bin/../lib/gcc/x86_64-nacl/4.4.3/../../../../x86_64-nacl/lib/../lib64/libstdc++.a(eh_type.o)
                                         0x30 (size before relaxing)
 .eh_frame      0x000000001002c898      0x3e0 /Users/stevefar/nacl_sdk/pepper_45/toolchain/mac_x86_newlib/bin/../lib/gcc/x86_64-nacl/4.4.3/libgcc.a(unwind-dw2.o)
                                        0x3a0 (size before relaxing)
 .eh_frame      0x000000001002cc78      0x2f8 /Users/stevefar/nacl_sdk/pepper_45/toolchain/mac_x86_newlib/bin/../lib/gcc/x86_64-nacl/4.4.3/libgcc.a(unwind-dw2-fde-glibc.o)
                                        0x2d8 (size before relaxing)
 .eh_frame      0x000000001002cf70       0x18 /Users/stevefar/nacl_sdk/pepper_45/toolchain/mac_x86_newlib/bin/../lib/gcc/x86_64-nacl/4.4.3/../../../../x86_64-nacl/lib/../lib64/libnacl.a(_exit_710c7d0d.o)
                                         0x30 (size before relaxing)
 .eh_frame      0x000000001002cf88       0x18 /Users/stevefar/nacl_sdk/pepper_45/toolchain/mac_x86_newlib/bin/../lib/gcc/x86_64-nacl/4.4.3/../../../../x86_64-nacl/lib/../lib64/libnacl.a(abort_9f6b5845.o)
                                         0x30 (size before relaxing)
 .eh_frame      0x000000001002cfa0      0x3c8 /Users/stevefar/nacl_sdk/pepper_45/toolchain/mac_x86_newlib/bin/../lib/gcc/x86_64-nacl/4.4.3/../../../../x86_64-nacl/lib/../lib64/libnacl.a(malloc_222c4a1e.o)
                                        0x388 (size before relaxing)
 .eh_frame      0x000000001002d368      0x128 /Users/stevefar/nacl_sdk/pepper_45/toolchain/mac_x86_newlib/bin/../lib/gcc/x86_64-nacl/4.4.3/../../../../x86_64-nacl/lib/../lib64/libnacl.a(nacl_irt_6de1d53f.o)
                                        0x118 (size before relaxing)
 .eh_frame      0x000000001002d490       0x18 /Users/stevefar/nacl_sdk/pepper_45/toolchain/mac_x86_newlib/bin/../lib/gcc/x86_64-nacl/4.4.3/../../../../x86_64-nacl/lib/../lib64/libnacl.a(pthread_initialize_minimal_4b6e776b.o)
                                         0x30 (size before relaxing)
 .eh_frame      0x000000001002d4a8       0x18 /Users/stevefar/nacl_sdk/pepper_45/toolchain/mac_x86_newlib/bin/../lib/gcc/x86_64-nacl/4.4.3/../../../../x86_64-nacl/lib/../lib64/libnacl.a(nacl_read_tp_5748ac47.o)
                                         0x30 (size before relaxing)
 .eh_frame      0x000000001002d4c0       0x18 /Users/stevefar/nacl_sdk/pepper_45/toolchain/mac_x86_newlib/bin/../lib/gcc/x86_64-nacl/4.4.3/../../../../x86_64-nacl/lib/../lib64/libnacl.a(nacl_add_tp_7312c7c4.o)
                                         0x30 (size before relaxing)
 .eh_frame      0x000000001002d4d8       0x20 /Users/stevefar/nacl_sdk/pepper_45/toolchain/mac_x86_newlib/bin/../lib/gcc/x86_64-nacl/4.4.3/../../../../x86_64-nacl/lib/../lib64/libnacl.a(mmap_767fb080.o)
                                         0x38 (size before relaxing)
 .eh_frame      0x000000001002d4f8       0x18 /Users/stevefar/nacl_sdk/pepper_45/toolchain/mac_x86_newlib/bin/../lib/gcc/x86_64-nacl/4.4.3/../../../../x86_64-nacl/lib/../lib64/libnacl.a(sched_yield_56c375be.o)
                                         0x30 (size before relaxing)
 .eh_frame      0x000000001002d510       0x20 /Users/stevefar/nacl_sdk/pepper_45/toolchain/mac_x86_newlib/bin/../lib/gcc/x86_64-nacl/4.4.3/../../../../x86_64-nacl/lib/../lib64/libnacl.a(start_fa9ef7de.o)
                                         0x38 (size before relaxing)
 .eh_frame      0x000000001002d530       0x18 /Users/stevefar/nacl_sdk/pepper_45/toolchain/mac_x86_newlib/bin/../lib/gcc/x86_64-nacl/4.4.3/../../../../x86_64-nacl/lib/../lib64/libnacl.a(munmap_d4f09867.o)
                                         0x30 (size before relaxing)
 .eh_frame      0x000000001002d548       0x50 /Users/stevefar/nacl_sdk/pepper_45/toolchain/mac_x86_newlib/bin/../lib/gcc/x86_64-nacl/4.4.3/../../../../x86_64-nacl/lib/../lib64/libnacl.a(tls_bba1975b.o)
                                         0x68 (size before relaxing)
 .eh_frame      0x000000001002d598       0x20 /Users/stevefar/nacl_sdk/pepper_45/toolchain/mac_x86_newlib/bin/../lib/gcc/x86_64-nacl/4.4.3/../../../../x86_64-nacl/lib/../lib64/libnacl.a(write_fb49787f.o)
                                         0x38 (size before relaxing)
 .eh_frame      0x000000001002d5b8       0x18 /Users/stevefar/nacl_sdk/pepper_45/toolchain/mac_x86_newlib/bin/../lib/gcc/x86_64-nacl/4.4.3/../../../../x86_64-nacl/lib/../lib64/libnacl.a(nacl_tls_get_d2f842b5.o)
                                         0x30 (size before relaxing)
 .eh_frame      0x000000001002d5d0       0x38 /Users/stevefar/nacl_sdk/pepper_45/toolchain/mac_x86_newlib/bin/../lib/gcc/x86_64-nacl/4.4.3/../../../../x86_64-nacl/lib/../lib64/libnacl.a(nacl_irt_init_7b4f826e.o)
                                         0x48 (size before relaxing)
 .eh_frame      0x000000001002d608       0x20 /Users/stevefar/nacl_sdk/pepper_45/toolchain/mac_x86_newlib/bin/../lib/gcc/x86_64-nacl/4.4.3/../../../../x86_64-nacl/lib/../lib64/libnacl.a(sysconf_ad295ea2.o)
                                         0x38 (size before relaxing)
 .eh_frame      0x000000001002d628       0x18 /Users/stevefar/nacl_sdk/pepper_45/toolchain/mac_x86_newlib/bin/../lib/gcc/x86_64-nacl/4.4.3/../../../../x86_64-nacl/lib/../lib64/libnacl.a(nacl_tls_init_eb0cd232.o)
                                         0x30 (size before relaxing)
 .eh_frame      0x000000001002d640       0x18 /Users/stevefar/nacl_sdk/pepper_45/toolchain/mac_x86_newlib/bin/../lib/gcc/x86_64-nacl/4.4.3/../../../../x86_64-nacl/lib/../lib64/libcrt_common.a(lib_a-atexit.o)
                                         0x30 (size before relaxing)
 .eh_frame      0x000000001002d658       0x18 /Users/stevefar/nacl_sdk/pepper_45/toolchain/mac_x86_newlib/bin/../lib/gcc/x86_64-nacl/4.4.3/../../../../x86_64-nacl/lib/../lib64/libcrt_common.a(lib_a-cxa_atexit.o)
                                         0x30 (size before relaxing)
 .eh_frame      0x000000001002d670       0x18 /Users/stevefar/nacl_sdk/pepper_45/toolchain/mac_x86_newlib/bin/../lib/gcc/x86_64-nacl/4.4.3/../../../../x86_64-nacl/lib/../lib64/libcrt_common.a(lib_a-errno.o)
                                         0x30 (size before relaxing)
 .eh_frame      0x000000001002d688       0x18 /Users/stevefar/nacl_sdk/pepper_45/toolchain/mac_x86_newlib/bin/../lib/gcc/x86_64-nacl/4.4.3/../../../../x86_64-nacl/lib/../lib64/libcrt_common.a(lib_a-exit.o)
                                         0x30 (size before relaxing)
 .eh_frame      0x000000001002d6a0       0x20 /Users/stevefar/nacl_sdk/pepper_45/toolchain/mac_x86_newlib/bin/../lib/gcc/x86_64-nacl/4.4.3/../../../../x86_64-nacl/lib/../lib64/libcrt_common.a(lib_a-fini.o)
                                         0x38 (size before relaxing)
 .eh_frame      0x000000001002d6c0       0x38 /Users/stevefar/nacl_sdk/pepper_45/toolchain/mac_x86_newlib/bin/../lib/gcc/x86_64-nacl/4.4.3/../../../../x86_64-nacl/lib/../lib64/libcrt_common.a(lib_a-fprintf.o)
                                         0x50 (size before relaxing)
 .eh_frame      0x000000001002d6f8       0x40 /Users/stevefar/nacl_sdk/pepper_45/toolchain/mac_x86_newlib/bin/../lib/gcc/x86_64-nacl/4.4.3/../../../../x86_64-nacl/lib/../lib64/libcrt_common.a(lib_a-fputc.o)
                                         0x58 (size before relaxing)
 .eh_frame      0x000000001002d738       0x40 /Users/stevefar/nacl_sdk/pepper_45/toolchain/mac_x86_newlib/bin/../lib/gcc/x86_64-nacl/4.4.3/../../../../x86_64-nacl/lib/../lib64/libcrt_common.a(lib_a-fputs.o)
                                         0x58 (size before relaxing)
 .eh_frame      0x000000001002d778       0x30 /Users/stevefar/nacl_sdk/pepper_45/toolchain/mac_x86_newlib/bin/../lib/gcc/x86_64-nacl/4.4.3/../../../../x86_64-nacl/lib/../lib64/libcrt_common.a(lib_a-fvwrite.o)
                                         0x48 (size before relaxing)
 .eh_frame      0x000000001002d7a8       0x40 /Users/stevefar/nacl_sdk/pepper_45/toolchain/mac_x86_newlib/bin/../lib/gcc/x86_64-nacl/4.4.3/../../../../x86_64-nacl/lib/../lib64/libcrt_common.a(lib_a-fwrite.o)
                                         0x58 (size before relaxing)
 .eh_frame      0x000000001002d7e8       0x40 /Users/stevefar/nacl_sdk/pepper_45/toolchain/mac_x86_newlib/bin/../lib/gcc/x86_64-nacl/4.4.3/../../../../x86_64-nacl/lib/../lib64/libcrt_common.a(lib_a-getenv.o)
                                         0x50 (size before relaxing)
 .eh_frame      0x000000001002d828       0x48 /Users/stevefar/nacl_sdk/pepper_45/toolchain/mac_x86_newlib/bin/../lib/gcc/x86_64-nacl/4.4.3/../../../../x86_64-nacl/lib/../lib64/libcrt_common.a(lib_a-getenv_r.o)
                                         0x58 (size before relaxing)
 .eh_frame      0x000000001002d870       0x30 /Users/stevefar/nacl_sdk/pepper_45/toolchain/mac_x86_newlib/bin/../lib/gcc/x86_64-nacl/4.4.3/../../../../x86_64-nacl/lib/../lib64/libcrt_common.a(lib_a-impure.o)
                                         0x48 (size before relaxing)
 .eh_frame      0x000000001002d8a0       0x20 /Users/stevefar/nacl_sdk/pepper_45/toolchain/mac_x86_newlib/bin/../lib/gcc/x86_64-nacl/4.4.3/../../../../x86_64-nacl/lib/../lib64/libcrt_common.a(lib_a-init.o)
                                         0x38 (size before relaxing)
 .eh_frame      0x000000001002d8c0       0x18 /Users/stevefar/nacl_sdk/pepper_45/toolchain/mac_x86_newlib/bin/../lib/gcc/x86_64-nacl/4.4.3/../../../../x86_64-nacl/lib/../lib64/libcrt_common.a(lib_a-memchr.o)
                                         0x30 (size before relaxing)
 .eh_frame      0x000000001002d8d8       0x18 /Users/stevefar/nacl_sdk/pepper_45/toolchain/mac_x86_newlib/bin/../lib/gcc/x86_64-nacl/4.4.3/../../../../x86_64-nacl/lib/../lib64/libcrt_common.a(lib_a-memmove.o)
                                         0x30 (size before relaxing)
 .eh_frame      0x000000001002d8f0       0x40 /Users/stevefar/nacl_sdk/pepper_45/toolchain/mac_x86_newlib/bin/../lib/gcc/x86_64-nacl/4.4.3/../../../../x86_64-nacl/lib/../lib64/libcrt_common.a(lib_a-putc.o)
                                         0x50 (size before relaxing)
 .eh_frame      0x000000001002d930       0x48 /Users/stevefar/nacl_sdk/pepper_45/toolchain/mac_x86_newlib/bin/../lib/gcc/x86_64-nacl/4.4.3/../../../../x86_64-nacl/lib/../lib64/libcrt_common.a(lib_a-snprintf.o)
                                         0x60 (size before relaxing)
 .eh_frame      0x000000001002d978       0x38 /Users/stevefar/nacl_sdk/pepper_45/toolchain/mac_x86_newlib/bin/../lib/gcc/x86_64-nacl/4.4.3/../../../../x86_64-nacl/lib/../lib64/libcrt_common.a(lib_a-sprintf.o)
                                         0x50 (size before relaxing)
 .eh_frame      0x000000001002d9b0       0x18 /Users/stevefar/nacl_sdk/pepper_45/toolchain/mac_x86_newlib/bin/../lib/gcc/x86_64-nacl/4.4.3/../../../../x86_64-nacl/lib/../lib64/libcrt_common.a(lib_a-strcpy.o)
                                         0x30 (size before relaxing)
 .eh_frame      0x000000001002d9c8       0x30 /Users/stevefar/nacl_sdk/pepper_45/toolchain/mac_x86_newlib/bin/../lib/gcc/x86_64-nacl/4.4.3/../../../../x86_64-nacl/lib/../lib64/libcrt_common.a(lib_a-strerror.o)
                                         0x48 (size before relaxing)
 .eh_frame      0x000000001002d9f8       0x18 /Users/stevefar/nacl_sdk/pepper_45/toolchain/mac_x86_newlib/bin/../lib/gcc/x86_64-nacl/4.4.3/../../../../x86_64-nacl/lib/../lib64/libcrt_common.a(lib_a-strlen.o)
                                         0x30 (size before relaxing)
 .eh_frame      0x000000001002da10       0x18 /Users/stevefar/nacl_sdk/pepper_45/toolchain/mac_x86_newlib/bin/../lib/gcc/x86_64-nacl/4.4.3/../../../../x86_64-nacl/lib/../lib64/libcrt_common.a(lib_a-strncmp.o)
                                         0x30 (size before relaxing)
 .eh_frame      0x000000001002da28       0x30 /Users/stevefar/nacl_sdk/pepper_45/toolchain/mac_x86_newlib/bin/../lib/gcc/x86_64-nacl/4.4.3/../../../../x86_64-nacl/lib/../lib64/libcrt_common.a(lib_a-svfprintf.o)
                                         0x48 (size before relaxing)
 .eh_frame      0x000000001002da58       0x18 /Users/stevefar/nacl_sdk/pepper_45/toolchain/mac_x86_newlib/bin/../lib/gcc/x86_64-nacl/4.4.3/../../../../x86_64-nacl/lib/../lib64/libcrt_common.a(lib_a-u_strerr.o)
                                         0x30 (size before relaxing)
 .eh_frame      0x000000001002da70       0x70 /Users/stevefar/nacl_sdk/pepper_45/toolchain/mac_x86_newlib/bin/../lib/gcc/x86_64-nacl/4.4.3/../../../../x86_64-nacl/lib/../lib64/libcrt_common.a(lib_a-vfprintf.o)
                                         0x80 (size before relaxing)
 .eh_frame      0x000000001002dae0       0x40 /Users/stevefar/nacl_sdk/pepper_45/toolchain/mac_x86_newlib/bin/../lib/gcc/x86_64-nacl/4.4.3/../../../../x86_64-nacl/lib/../lib64/libcrt_common.a(lib_a-wbuf.o)
                                         0x58 (size before relaxing)
 .eh_frame      0x000000001002db20       0x40 /Users/stevefar/nacl_sdk/pepper_45/toolchain/mac_x86_newlib/bin/../lib/gcc/x86_64-nacl/4.4.3/../../../../x86_64-nacl/lib/../lib64/libcrt_common.a(lib_a-wcrtomb.o)
                                         0x58 (size before relaxing)
 .eh_frame      0x000000001002db60       0x38 /Users/stevefar/nacl_sdk/pepper_45/toolchain/mac_x86_newlib/bin/../lib/gcc/x86_64-nacl/4.4.3/../../../../x86_64-nacl/lib/../lib64/libcrt_common.a(lib_a-wcsrtombs.o)
                                         0x50 (size before relaxing)
 .eh_frame      0x000000001002db98       0x98 /Users/stevefar/nacl_sdk/pepper_45/toolchain/mac_x86_newlib/bin/../lib/gcc/x86_64-nacl/4.4.3/../../../../x86_64-nacl/lib/../lib64/libcrt_common.a(lib_a-wctomb_r.o)
                                         0xa0 (size before relaxing)
 .eh_frame      0x000000001002dc30       0x20 /Users/stevefar/nacl_sdk/pepper_45/toolchain/mac_x86_newlib/bin/../lib/gcc/x86_64-nacl/4.4.3/../../../../x86_64-nacl/lib/../lib64/libcrt_common.a(lib_a-wsetup.o)
                                         0x38 (size before relaxing)
 .eh_frame      0x000000001002dc50       0x20 /Users/stevefar/nacl_sdk/pepper_45/toolchain/mac_x86_newlib/bin/../lib/gcc/x86_64-nacl/4.4.3/../../../../x86_64-nacl/lib/../lib64/libcrt_common.a(lib_a-__atexit.o)
                                         0x38 (size before relaxing)
 .eh_frame      0x000000001002dc70       0x30 /Users/stevefar/nacl_sdk/pepper_45/toolchain/mac_x86_newlib/bin/../lib/gcc/x86_64-nacl/4.4.3/../../../../x86_64-nacl/lib/../lib64/libcrt_common.a(lib_a-__call_atexit.o)
                                         0x48 (size before relaxing)
 .eh_frame      0x000000001002dca0       0x60 /Users/stevefar/nacl_sdk/pepper_45/toolchain/mac_x86_newlib/bin/../lib/gcc/x86_64-nacl/4.4.3/../../../../x86_64-nacl/lib/../lib64/libcrt_common.a(lib_a-dtoa.o)
                                         0x70 (size before relaxing)
 .eh_frame      0x000000001002dd00       0x30 /Users/stevefar/nacl_sdk/pepper_45/toolchain/mac_x86_newlib/bin/../lib/gcc/x86_64-nacl/4.4.3/../../../../x86_64-nacl/lib/../lib64/libcrt_common.a(lib_a-envlock.o)
                                         0x40 (size before relaxing)
 .eh_frame      0x000000001002dd30       0x68 /Users/stevefar/nacl_sdk/pepper_45/toolchain/mac_x86_newlib/bin/../lib/gcc/x86_64-nacl/4.4.3/../../../../x86_64-nacl/lib/../lib64/libcrt_common.a(lib_a-fflush.o)
                                         0x80 (size before relaxing)
 .eh_frame      0x000000001002dd98      0x170 /Users/stevefar/nacl_sdk/pepper_45/toolchain/mac_x86_newlib/bin/../lib/gcc/x86_64-nacl/4.4.3/../../../../x86_64-nacl/lib/../lib64/libcrt_common.a(lib_a-findfp.o)
                                        0x158 (size before relaxing)
 .eh_frame      0x000000001002df08       0x60 /Users/stevefar/nacl_sdk/pepper_45/toolchain/mac_x86_newlib/bin/../lib/gcc/x86_64-nacl/4.4.3/../../../../x86_64-nacl/lib/../lib64/libcrt_common.a(lib_a-fwalk.o)
                                         0x70 (size before relaxing)
 .eh_frame      0x000000001002df68      0x140 /Users/stevefar/nacl_sdk/pepper_45/toolchain/mac_x86_newlib/bin/../lib/gcc/x86_64-nacl/4.4.3/../../../../x86_64-nacl/lib/../lib64/libcrt_common.a(lib_a-locale.o)
                                        0x138 (size before relaxing)
 .eh_frame      0x000000001002e0a8       0x20 /Users/stevefar/nacl_sdk/pepper_45/toolchain/mac_x86_newlib/bin/../lib/gcc/x86_64-nacl/4.4.3/../../../../x86_64-nacl/lib/../lib64/libcrt_common.a(lib_a-makebuf.o)
                                         0x38 (size before relaxing)
 .eh_frame      0x000000001002e0c8       0xa0 /Users/stevefar/nacl_sdk/pepper_45/toolchain/mac_x86_newlib/bin/../lib/gcc/x86_64-nacl/4.4.3/../../../../x86_64-nacl/lib/../lib64/libcrt_common.a(lib_a-mbtowc_r.o)
                                         0xa8 (size before relaxing)
 .eh_frame      0x000000001002e168      0x270 /Users/stevefar/nacl_sdk/pepper_45/toolchain/mac_x86_newlib/bin/../lib/gcc/x86_64-nacl/4.4.3/../../../../x86_64-nacl/lib/../lib64/libcrt_common.a(lib_a-mprec.o)
                                        0x248 (size before relaxing)
 .eh_frame      0x000000001002e3d8       0x18 /Users/stevefar/nacl_sdk/pepper_45/toolchain/mac_x86_newlib/bin/../lib/gcc/x86_64-nacl/4.4.3/../../../../x86_64-nacl/lib/../lib64/libcrt_common.a(lib_a-s_fpclassify.o)
                                         0x30 (size before relaxing)
 .eh_frame      0x000000001002e3f0       0x18 /Users/stevefar/nacl_sdk/pepper_45/toolchain/mac_x86_newlib/bin/../lib/gcc/x86_64-nacl/4.4.3/../../../../x86_64-nacl/lib/../lib64/libcrt_common.a(lib_a-s_frexp.o)
                                         0x30 (size before relaxing)
 .eh_frame      0x000000001002e408       0x80 /Users/stevefar/nacl_sdk/pepper_45/toolchain/mac_x86_newlib/bin/../lib/gcc/x86_64-nacl/4.4.3/../../../../x86_64-nacl/lib/../lib64/libcrt_common.a(lib_a-stdio.o)
                                         0x90 (size before relaxing)
 .eh_frame      0x000000001002e488       0x18 /Users/stevefar/nacl_sdk/pepper_45/toolchain/mac_x86_newlib/bin/../lib/gcc/x86_64-nacl/4.4.3/../../../../x86_64-nacl/lib/../lib64/libcrt_common.a(lib_a-strcasecmp.o)
                                         0x30 (size before relaxing)
 .eh_frame      0x000000001002e4a0       0x18 /Users/stevefar/nacl_sdk/pepper_45/toolchain/mac_x86_newlib/bin/../lib/gcc/x86_64-nacl/4.4.3/../../../../x86_64-nacl/lib/../lib64/libcrt_common.a(lib_a-strcat.o)
                                         0x30 (size before relaxing)
 .eh_frame      0x000000001002e4b8       0x18 /Users/stevefar/nacl_sdk/pepper_45/toolchain/mac_x86_newlib/bin/../lib/gcc/x86_64-nacl/4.4.3/../../../../x86_64-nacl/lib/../lib64/libcrt_common.a(lib_a-strchr.o)
                                         0x30 (size before relaxing)
 .eh_frame      0x000000001002e4d0       0x18 /Users/stevefar/nacl_sdk/pepper_45/toolchain/mac_x86_newlib/bin/../lib/gcc/x86_64-nacl/4.4.3/../../../../x86_64-nacl/lib/../lib64/libcrt_common.a(lib_a-strcmp.o)
                                         0x30 (size before relaxing)
 .eh_frame      0x000000001002e4e8       0x18 /Users/stevefar/nacl_sdk/pepper_45/toolchain/mac_x86_newlib/bin/../lib/gcc/x86_64-nacl/4.4.3/../../../../x86_64-nacl/lib/../lib64/libcrt_common.a(lib_a-strlcpy.o)
                                         0x30 (size before relaxing)
 .eh_frame      0x000000001002e500       0x18 /Users/stevefar/nacl_sdk/pepper_45/toolchain/mac_x86_newlib/bin/../lib/gcc/x86_64-nacl/4.4.3/../../../../x86_64-nacl/lib/../lib64/libcrt_common.a(lib_a-strncasecmp.o)
                                         0x30 (size before relaxing)
 .eh_frame      0x000000001002e518       0x18 /Users/stevefar/nacl_sdk/pepper_45/toolchain/mac_x86_newlib/bin/../lib/gcc/x86_64-nacl/4.4.3/../../../../x86_64-nacl/lib/../lib64/libcrt_common.a(lib_a-strncpy.o)
                                         0x30 (size before relaxing)
 .eh_frame      0x000000001002e530       0x48 /Users/stevefar/nacl_sdk/pepper_45/toolchain/mac_x86_newlib/bin/../lib/gcc/x86_64-nacl/4.4.3/../../../../x86_64-nacl/lib/../lib64/libcrt_common.a(lib_a-strtol.o)
                                         0x60 (size before relaxing)
 .eh_frame      0x000000001002e578       0x60 /Users/stevefar/nacl_sdk/pepper_45/toolchain/mac_x86_newlib/bin/../lib/gcc/x86_64-nacl/4.4.3/../../../../x86_64-nacl/lib/../lib64/libcrt_common.a(lib_a-svfiprintf.o)
                                         0x70 (size before relaxing)
 .eh_frame      0x000000001002e5d8       0xa0 /Users/stevefar/nacl_sdk/pepper_45/toolchain/mac_x86_newlib/bin/../lib/gcc/x86_64-nacl/4.4.3/../../../../x86_64-nacl/lib/../lib64/libcrt_common.a(lib_a-vfiprintf.o)
                                         0xb0 (size before relaxing)
 .eh_frame      0x000000001002e678       0x50 /Users/stevefar/nacl_sdk/pepper_45/toolchain/mac_x86_newlib/bin/../lib/gcc/x86_64-nacl/4.4.3/../../../../x86_64-nacl/lib/../lib64/libcrt_common.a(lib_a-wcsnrtombs.o)
                                         0x68 (size before relaxing)
 .eh_frame      0x000000001002e6c8       0x18 /Users/stevefar/nacl_sdk/pepper_45/toolchain/mac_x86_newlib/bin/../lib/gcc/x86_64-nacl/4.4.3/../../../../x86_64-nacl/lib/../lib64/libcrt_common.a(lib_a-ctype_.o)
                                         0x30 (size before relaxing)
 .eh_frame      0x000000001002e6e0       0x38 /Users/stevefar/nacl_sdk/pepper_45/toolchain/mac_x86_newlib/bin/../lib/gcc/x86_64-nacl/4.4.3/../../../../x86_64-nacl/lib/../lib64/libcrt_common.a(lib_a-fclose.o)
                                         0x50 (size before relaxing)
 .eh_frame      0x000000001002e718       0x50 /Users/stevefar/nacl_sdk/pepper_45/toolchain/mac_x86_newlib/bin/../lib/gcc/x86_64-nacl/4.4.3/../../../../x86_64-nacl/lib/../lib64/libcrt_common.a(lib_a-fputwc.o)
                                         0x60 (size before relaxing)
 .eh_frame      0x000000001002e768       0x18 /Users/stevefar/nacl_sdk/pepper_45/toolchain/mac_x86_newlib/bin/../lib/gcc/x86_64-nacl/4.4.3/../../../../x86_64-nacl/lib/../lib64/libnacl.a(close_e9b92fbd.o)
                                         0x30 (size before relaxing)
 .eh_frame      0x000000001002e780       0x20 /Users/stevefar/nacl_sdk/pepper_45/toolchain/mac_x86_newlib/bin/../lib/gcc/x86_64-nacl/4.4.3/../../../../x86_64-nacl/lib/../lib64/libnacl.a(isatty_02f56e94.o)
                                         0x38 (size before relaxing)
 .eh_frame      0x000000001002e7a0       0x18 /Users/stevefar/nacl_sdk/pepper_45/toolchain/mac_x86_newlib/bin/../lib/gcc/x86_64-nacl/4.4.3/../../../../x86_64-nacl/lib/../lib64/libnacl.a(nacl_irt_fdio_b571b5e7.o)
                                         0x30 (size before relaxing)
 .eh_frame      0x000000001002e7b8       0x18 /Users/stevefar/nacl_sdk/pepper_45/toolchain/mac_x86_newlib/bin/../lib/gcc/x86_64-nacl/4.4.3/../../../../x86_64-nacl/lib/../lib64/libnacl.a(fstat_0540ff63.o)
                                         0x30 (size before relaxing)
 .eh_frame      0x000000001002e7d0       0x20 /Users/stevefar/nacl_sdk/pepper_45/toolchain/mac_x86_newlib/bin/../lib/gcc/x86_64-nacl/4.4.3/../../../../x86_64-nacl/lib/../lib64/libnacl.a(lseek_64d2d05c.o)
                                         0x38 (size before relaxing)
 .eh_frame      0x000000001002e7f0       0x20 /Users/stevefar/nacl_sdk/pepper_45/toolchain/mac_x86_newlib/bin/../lib/gcc/x86_64-nacl/4.4.3/../../../../x86_64-nacl/lib/../lib64/libnacl.a(read_df872e10.o)
                                         0x38 (size before relaxing)
 .eh_frame      0x000000001002e810        0x4 /Users/stevefar/nacl_sdk/pepper_45/toolchain/mac_x86_newlib/bin/../lib/gcc/x86_64-nacl/4.4.3/crtend.o

.gcc_except_table
                0x000000001002e814     0x145c
 *(.gcc_except_table .gcc_except_table.*)
 .gcc_except_table
                0x000000001002e814       0x39 newlib/Release/multi_platform_x86_64.o
 *fill*         0x000000001002e84d        0x3 
 .gcc_except_table
                0x000000001002e850      0x1f5 /Users/stevefar/nacl_sdk/pepper_45/lib/newlib_x86_64/Release/libppapi_cpp.a(instance_x86_64.o)
 *fill*         0x000000001002ea45        0x3 
 .gcc_except_table
                0x000000001002ea48       0xff /Users/stevefar/nacl_sdk/pepper_45/lib/newlib_x86_64/Release/libppapi_cpp.a(module_x86_64.o)
 .gcc_except_table
                0x000000001002eb47      0x110 /Users/stevefar/nacl_sdk/pepper_45/lib/newlib_x86_64/Release/libppapi_cpp.a(url_loader_x86_64.o)
 .gcc_except_table
                0x000000001002ec57       0x3d /Users/stevefar/nacl_sdk/pepper_45/lib/newlib_x86_64/Release/libppapi_cpp.a(url_response_info_x86_64.o)
 .gcc_except_table
                0x000000001002ec94      0x185 /Users/stevefar/nacl_sdk/pepper_45/lib/newlib_x86_64/Release/libppapi_cpp.a(var_x86_64.o)
 .gcc_except_table
                0x000000001002ee19      0x18f /Users/stevefar/nacl_sdk/pepper_45/lib/newlib_x86_64/Release/libppapi_cpp.a(view_x86_64.o)
 .gcc_except_table
                0x000000001002efa8      0x270 /Users/stevefar/nacl_sdk/pepper_45/lib/newlib_x86_64/Release/libppapi_cpp.a(file_ref_x86_64.o)
 .gcc_except_table
                0x000000001002f218      0x567 /Users/stevefar/nacl_sdk/pepper_45/lib/newlib_x86_64/Release/libppapi_cpp.a(input_event_x86_64.o)
 .gcc_except_table._ZNSs4_Rep9_S_createEjjRKSaIcE
                0x000000001002f77f        0xe /Users/stevefar/nacl_sdk/pepper_45/toolchain/mac_x86_newlib/bin/../lib/gcc/x86_64-nacl/4.4.3/../../../../x86_64-nacl/lib/../lib64/libstdc++.a(string-inst.o)
 .gcc_except_table._ZNSsC1ERKSs
                0x000000001002f78d        0xe /Users/stevefar/nacl_sdk/pepper_45/toolchain/mac_x86_newlib/bin/../lib/gcc/x86_64-nacl/4.4.3/../../../../x86_64-nacl/lib/../lib64/libstdc++.a(string-inst.o)
 .gcc_except_table._ZNSsC2ERKSs
                0x000000001002f79b        0xe /Users/stevefar/nacl_sdk/pepper_45/toolchain/mac_x86_newlib/bin/../lib/gcc/x86_64-nacl/4.4.3/../../../../x86_64-nacl/lib/../lib64/libstdc++.a(string-inst.o)
 .gcc_except_table._ZNSsC1ERKSsjj
                0x000000001002f7a9        0xe /Users/stevefar/nacl_sdk/pepper_45/toolchain/mac_x86_newlib/bin/../lib/gcc/x86_64-nacl/4.4.3/../../../../x86_64-nacl/lib/../lib64/libstdc++.a(string-inst.o)
 .gcc_except_table._ZNSsC2ERKSsjj
                0x000000001002f7b7        0xe /Users/stevefar/nacl_sdk/pepper_45/toolchain/mac_x86_newlib/bin/../lib/gcc/x86_64-nacl/4.4.3/../../../../x86_64-nacl/lib/../lib64/libstdc++.a(string-inst.o)
 .gcc_except_table._ZNSs6assignERKSs
                0x000000001002f7c5        0xf /Users/stevefar/nacl_sdk/pepper_45/toolchain/mac_x86_newlib/bin/../lib/gcc/x86_64-nacl/4.4.3/../../../../x86_64-nacl/lib/../lib64/libstdc++.a(string-inst.o)
 .gcc_except_table._ZNSs7reserveEj
                0x000000001002f7d4        0xe /Users/stevefar/nacl_sdk/pepper_45/toolchain/mac_x86_newlib/bin/../lib/gcc/x86_64-nacl/4.4.3/../../../../x86_64-nacl/lib/../lib64/libstdc++.a(string-inst.o)
 .gcc_except_table._ZStplIcSt11char_traitsIcESaIcEESbIT_T0_T1_ERKS6_S8_
                0x000000001002f7e2       0x11 /Users/stevefar/nacl_sdk/pepper_45/toolchain/mac_x86_newlib/bin/../lib/gcc/x86_64-nacl/4.4.3/../../../../x86_64-nacl/lib/../lib64/libstdc++.a(string-inst.o)
 .gcc_except_table._ZStplIcSt11char_traitsIcESaIcEESbIT_T0_T1_ES3_RKS6_
                0x000000001002f7f3        0xe /Users/stevefar/nacl_sdk/pepper_45/toolchain/mac_x86_newlib/bin/../lib/gcc/x86_64-nacl/4.4.3/../../../../x86_64-nacl/lib/../lib64/libstdc++.a(string-inst.o)
 .gcc_except_table._ZStplIcSt11char_traitsIcESaIcEESbIT_T0_T1_EPKS3_RKS6_
                0x000000001002f801        0xe /Users/stevefar/nacl_sdk/pepper_45/toolchain/mac_x86_newlib/bin/../lib/gcc/x86_64-nacl/4.4.3/../../../../x86_64-nacl/lib/../lib64/libstdc++.a(string-inst.o)
 .gcc_except_table._ZNSs9_M_mutateEjjj
                0x000000001002f80f        0xf /Users/stevefar/nacl_sdk/pepper_45/toolchain/mac_x86_newlib/bin/../lib/gcc/x86_64-nacl/4.4.3/../../../../x86_64-nacl/lib/../lib64/libstdc++.a(string-inst.o)
 .gcc_except_table._ZNSs7replaceEjjPKcj
                0x000000001002f81e       0x20 /Users/stevefar/nacl_sdk/pepper_45/toolchain/mac_x86_newlib/bin/../lib/gcc/x86_64-nacl/4.4.3/../../../../x86_64-nacl/lib/../lib64/libstdc++.a(string-inst.o)
 *fill*         0x000000001002f83e        0x2 
 .gcc_except_table.__cxa_begin_catch
                0x000000001002f840       0x15 /Users/stevefar/nacl_sdk/pepper_45/toolchain/mac_x86_newlib/bin/../lib/gcc/x86_64-nacl/4.4.3/../../../../x86_64-nacl/lib/../lib64/libstdc++.a(eh_catch.o)
 *fill*         0x000000001002f855        0x3 
 .gcc_except_table.__cxa_get_globals
                0x000000001002f858       0x15 /Users/stevefar/nacl_sdk/pepper_45/toolchain/mac_x86_newlib/bin/../lib/gcc/x86_64-nacl/4.4.3/../../../../x86_64-nacl/lib/../lib64/libstdc++.a(eh_globals.o)
 *fill*         0x000000001002f86d        0x3 
 .gcc_except_table.__cxa_get_globals_fast
                0x000000001002f870       0x15 /Users/stevefar/nacl_sdk/pepper_45/toolchain/mac_x86_newlib/bin/../lib/gcc/x86_64-nacl/4.4.3/../../../../x86_64-nacl/lib/../lib64/libstdc++.a(eh_globals.o)
 *fill*         0x000000001002f885        0x3 
 .gcc_except_table.__cxa_call_unexpected
                0x000000001002f888       0x24 /Users/stevefar/nacl_sdk/pepper_45/toolchain/mac_x86_newlib/bin/../lib/gcc/x86_64-nacl/4.4.3/../../../../x86_64-nacl/lib/../lib64/libstdc++.a(eh_personality.o)
 .gcc_except_table.__gxx_personality_v0
                0x000000001002f8ac       0x28 /Users/stevefar/nacl_sdk/pepper_45/toolchain/mac_x86_newlib/bin/../lib/gcc/x86_64-nacl/4.4.3/../../../../x86_64-nacl/lib/../lib64/libstdc++.a(eh_personality.o)
 .gcc_except_table._ZN10__cxxabiv111__terminateEPFvvE
                0x000000001002f8d4       0x1c /Users/stevefar/nacl_sdk/pepper_45/toolchain/mac_x86_newlib/bin/../lib/gcc/x86_64-nacl/4.4.3/../../../../x86_64-nacl/lib/../lib64/libstdc++.a(eh_terminate.o)
 .gcc_except_table.__cxa_guard_acquire
                0x000000001002f8f0       0x18 /Users/stevefar/nacl_sdk/pepper_45/toolchain/mac_x86_newlib/bin/../lib/gcc/x86_64-nacl/4.4.3/../../../../x86_64-nacl/lib/../lib64/libstdc++.a(guard.o)
 .gcc_except_table._Znwj
                0x000000001002f908       0x1a /Users/stevefar/nacl_sdk/pepper_45/toolchain/mac_x86_newlib/bin/../lib/gcc/x86_64-nacl/4.4.3/../../../../x86_64-nacl/lib/../lib64/libstdc++.a(new_op.o)
 .gcc_except_table._ZSt20__throw_system_errori
                0x000000001002f922       0x1c /Users/stevefar/nacl_sdk/pepper_45/toolchain/mac_x86_newlib/bin/../lib/gcc/x86_64-nacl/4.4.3/../../../../x86_64-nacl/lib/../lib64/libstdc++.a(functexcept.o)
 .gcc_except_table._ZSt19__throw_ios_failurePKc
                0x000000001002f93e        0xf /Users/stevefar/nacl_sdk/pepper_45/toolchain/mac_x86_newlib/bin/../lib/gcc/x86_64-nacl/4.4.3/../../../../x86_64-nacl/lib/../lib64/libstdc++.a(functexcept.o)
 *fill*         0x000000001002f94d        0x3 
 .gcc_except_table._ZSt23__throw_underflow_errorPKc
                0x000000001002f950       0x25 /Users/stevefar/nacl_sdk/pepper_45/toolchain/mac_x86_newlib/bin/../lib/gcc/x86_64-nacl/4.4.3/../../../../x86_64-nacl/lib/../lib64/libstdc++.a(functexcept.o)
 *fill*         0x000000001002f975        0x3 
 .gcc_except_table._ZSt22__throw_overflow_errorPKc
                0x000000001002f978       0x25 /Users/stevefar/nacl_sdk/pepper_45/toolchain/mac_x86_newlib/bin/../lib/gcc/x86_64-nacl/4.4.3/../../../../x86_64-nacl/lib/../lib64/libstdc++.a(functexcept.o)
 *fill*         0x000000001002f99d        0x3 
 .gcc_except_table._ZSt19__throw_range_errorPKc
                0x000000001002f9a0       0x25 /Users/stevefar/nacl_sdk/pepper_45/toolchain/mac_x86_newlib/bin/../lib/gcc/x86_64-nacl/4.4.3/../../../../x86_64-nacl/lib/../lib64/libstdc++.a(functexcept.o)
 *fill*         0x000000001002f9c5        0x3 
 .gcc_except_table._ZSt21__throw_runtime_errorPKc
                0x000000001002f9c8       0x25 /Users/stevefar/nacl_sdk/pepper_45/toolchain/mac_x86_newlib/bin/../lib/gcc/x86_64-nacl/4.4.3/../../../../x86_64-nacl/lib/../lib64/libstdc++.a(functexcept.o)
 *fill*         0x000000001002f9ed        0x3 
 .gcc_except_table._ZSt20__throw_out_of_rangePKc
                0x000000001002f9f0       0x25 /Users/stevefar/nacl_sdk/pepper_45/toolchain/mac_x86_newlib/bin/../lib/gcc/x86_64-nacl/4.4.3/../../../../x86_64-nacl/lib/../lib64/libstdc++.a(functexcept.o)
 *fill*         0x000000001002fa15        0x3 
 .gcc_except_table._ZSt20__throw_length_errorPKc
                0x000000001002fa18       0x25 /Users/stevefar/nacl_sdk/pepper_45/toolchain/mac_x86_newlib/bin/../lib/gcc/x86_64-nacl/4.4.3/../../../../x86_64-nacl/lib/../lib64/libstdc++.a(functexcept.o)
 *fill*         0x000000001002fa3d        0x3 
 .gcc_except_table._ZSt24__throw_invalid_argumentPKc
                0x000000001002fa40       0x25 /Users/stevefar/nacl_sdk/pepper_45/toolchain/mac_x86_newlib/bin/../lib/gcc/x86_64-nacl/4.4.3/../../../../x86_64-nacl/lib/../lib64/libstdc++.a(functexcept.o)
 *fill*         0x000000001002fa65        0x3 
 .gcc_except_table._ZSt20__throw_domain_errorPKc
                0x000000001002fa68       0x25 /Users/stevefar/nacl_sdk/pepper_45/toolchain/mac_x86_newlib/bin/../lib/gcc/x86_64-nacl/4.4.3/../../../../x86_64-nacl/lib/../lib64/libstdc++.a(functexcept.o)
 *fill*         0x000000001002fa8d        0x3 
 .gcc_except_table._ZSt19__throw_logic_errorPKc
                0x000000001002fa90       0x25 /Users/stevefar/nacl_sdk/pepper_45/toolchain/mac_x86_newlib/bin/../lib/gcc/x86_64-nacl/4.4.3/../../../../x86_64-nacl/lib/../lib64/libstdc++.a(functexcept.o)
 *fill*         0x000000001002fab5        0x3 
 .gcc_except_table._ZNSt8ios_base7failureC1ERKSs
                0x000000001002fab8       0x15 /Users/stevefar/nacl_sdk/pepper_45/toolchain/mac_x86_newlib/bin/../lib/gcc/x86_64-nacl/4.4.3/../../../../x86_64-nacl/lib/../lib64/libstdc++.a(ios_failure.o)
 *fill*         0x000000001002facd        0x3 
 .gcc_except_table._ZNSt8ios_base7failureC2ERKSs
                0x000000001002fad0       0x15 /Users/stevefar/nacl_sdk/pepper_45/toolchain/mac_x86_newlib/bin/../lib/gcc/x86_64-nacl/4.4.3/../../../../x86_64-nacl/lib/../lib64/libstdc++.a(ios_failure.o)
 .gcc_except_table._ZNSt13runtime_errorC1ERKSs
                0x000000001002fae5        0xc /Users/stevefar/nacl_sdk/pepper_45/toolchain/mac_x86_newlib/bin/../lib/gcc/x86_64-nacl/4.4.3/../../../../x86_64-nacl/lib/../lib64/libstdc++.a(stdexcept.o)
 .gcc_except_table._ZNSt13runtime_errorC2ERKSs
                0x000000001002faf1        0xc /Users/stevefar/nacl_sdk/pepper_45/toolchain/mac_x86_newlib/bin/../lib/gcc/x86_64-nacl/4.4.3/../../../../x86_64-nacl/lib/../lib64/libstdc++.a(stdexcept.o)
 .gcc_except_table._ZNSt11logic_errorC1ERKSs
                0x000000001002fafd        0xc /Users/stevefar/nacl_sdk/pepper_45/toolchain/mac_x86_newlib/bin/../lib/gcc/x86_64-nacl/4.4.3/../../../../x86_64-nacl/lib/../lib64/libstdc++.a(stdexcept.o)
 .gcc_except_table._ZNSt11logic_errorC2ERKSs
                0x000000001002fb09        0xc /Users/stevefar/nacl_sdk/pepper_45/toolchain/mac_x86_newlib/bin/../lib/gcc/x86_64-nacl/4.4.3/../../../../x86_64-nacl/lib/../lib64/libstdc++.a(stdexcept.o)
 .gcc_except_table._ZNK12_GLOBAL__N_122generic_error_category7messageEi
                0x000000001002fb15        0xc /Users/stevefar/nacl_sdk/pepper_45/toolchain/mac_x86_newlib/bin/../lib/gcc/x86_64-nacl/4.4.3/../../../../x86_64-nacl/lib/../lib64/libstdc++.a(system_error.o)
 .gcc_except_table._ZNK12_GLOBAL__N_121system_error_category7messageEi
                0x000000001002fb21        0xc /Users/stevefar/nacl_sdk/pepper_45/toolchain/mac_x86_newlib/bin/../lib/gcc/x86_64-nacl/4.4.3/../../../../x86_64-nacl/lib/../lib64/libstdc++.a(system_error.o)
 *fill*         0x000000001002fb2d        0x3 
 .gcc_except_table._ZN9__gnu_cxx13__scoped_lockD1Ev
                0x000000001002fb30       0x15 /Users/stevefar/nacl_sdk/pepper_45/toolchain/mac_x86_newlib/bin/../lib/gcc/x86_64-nacl/4.4.3/../../../../x86_64-nacl/lib/../lib64/libstdc++.a(eh_alloc.o)
 *fill*         0x000000001002fb45        0x3 
 .gcc_except_table.__cxa_free_dependent_exception
                0x000000001002fb48       0x31 /Users/stevefar/nacl_sdk/pepper_45/toolchain/mac_x86_newlib/bin/../lib/gcc/x86_64-nacl/4.4.3/../../../../x86_64-nacl/lib/../lib64/libstdc++.a(eh_alloc.o)
 *fill*         0x000000001002fb79        0x3 
 .gcc_except_table.__cxa_free_exception
                0x000000001002fb7c       0x31 /Users/stevefar/nacl_sdk/pepper_45/toolchain/mac_x86_newlib/bin/../lib/gcc/x86_64-nacl/4.4.3/../../../../x86_64-nacl/lib/../lib64/libstdc++.a(eh_alloc.o)
 *fill*         0x000000001002fbad        0x3 
 .gcc_except_table.__cxa_allocate_exception
                0x000000001002fbb0       0x35 /Users/stevefar/nacl_sdk/pepper_45/toolchain/mac_x86_newlib/bin/../lib/gcc/x86_64-nacl/4.4.3/../../../../x86_64-nacl/lib/../lib64/libstdc++.a(eh_alloc.o)
 *fill*         0x000000001002fbe5        0x3 
 .gcc_except_table.__cxa_allocate_dependent_exception
                0x000000001002fbe8       0x35 /Users/stevefar/nacl_sdk/pepper_45/toolchain/mac_x86_newlib/bin/../lib/gcc/x86_64-nacl/4.4.3/../../../../x86_64-nacl/lib/../lib64/libstdc++.a(eh_alloc.o)
 *fill*         0x000000001002fc1d        0x3 
 .gcc_except_table._ZN9__gnu_cxx27__verbose_terminate_handlerEv
                0x000000001002fc20       0x50 /Users/stevefar/nacl_sdk/pepper_45/toolchain/mac_x86_newlib/bin/../lib/gcc/x86_64-nacl/4.4.3/../../../../x86_64-nacl/lib/../lib64/libstdc++.a(vterminate.o)

.exception_ranges
 *(.exception_ranges .exception_ranges*)
                0x000000001002fc70                . = (ALIGN (0x10000) - ((0x10000 - .) & 0xffff))
                0x0000000010030000                . = DATA_SEGMENT_ALIGN (0x10000, 0x10000)

.eh_frame
 *(.eh_frame)

.gcc_except_table
 *(.gcc_except_table .gcc_except_table.*)

.exception_ranges
 *(.exception_ranges .exception_ranges*)

.tdata          0x0000000010030000      0x478
 *(.tdata .tdata.* .gnu.linkonce.td.*)
 .tdata         0x0000000010030000      0x478 /Users/stevefar/nacl_sdk/pepper_45/toolchain/mac_x86_newlib/bin/../lib/gcc/x86_64-nacl/4.4.3/../../../../x86_64-nacl/lib/../lib64/libcrt_common.a(lib_a-impure.o)
                0x0000000010030000                _impure_ptr

.tbss           0x0000000010030478        0x8
 *(.tbss .tbss.* .gnu.linkonce.tb.*)
 .tbss          0x0000000010030478        0x8 /Users/stevefar/nacl_sdk/pepper_45/toolchain/mac_x86_newlib/bin/../lib/gcc/x86_64-nacl/4.4.3/../../../../x86_64-nacl/lib/../lib64/libpthread.a(nc_thread_7e478b15.o)
 *(.tcommon)

.preinit_array  0x0000000010030478        0x0
                0x0000000010030478                PROVIDE (__preinit_array_start, .)
 *(.preinit_array)
                0x0000000010030478                PROVIDE (__preinit_array_end, .)

.init_array     0x0000000010030478        0xc
                0x0000000010030478                PROVIDE (__init_array_start, .)
 *(SORT(.init_array.*) SORT(.ctors.*))
 *(.init_array EXCLUDE_FILE(*crtend?.o *crtend.o *crtbegin?.o *crtbegin.o) .ctors)
 .ctors         0x0000000010030478        0x4 /Users/stevefar/nacl_sdk/pepper_45/toolchain/mac_x86_newlib/bin/../lib/gcc/x86_64-nacl/4.4.3/../../../../x86_64-nacl/lib/../lib64/libstdc++.a(eh_globals.o)
 .ctors         0x000000001003047c        0x4 /Users/stevefar/nacl_sdk/pepper_45/toolchain/mac_x86_newlib/bin/../lib/gcc/x86_64-nacl/4.4.3/../../../../x86_64-nacl/lib/../lib64/libstdc++.a(system_error.o)
 .ctors         0x0000000010030480        0x4 /Users/stevefar/nacl_sdk/pepper_45/toolchain/mac_x86_newlib/bin/../lib/gcc/x86_64-nacl/4.4.3/../../../../x86_64-nacl/lib/../lib64/libstdc++.a(eh_alloc.o)
                0x0000000010030484                PROVIDE (__init_array_end, .)

.fini_array     0x0000000010030484        0x0
                0x0000000010030484                PROVIDE (__fini_array_start, .)
 *(SORT(.fini_array.*) SORT(.dtors.*))
 *(.fini_array EXCLUDE_FILE(*crtend?.o *crtend.o *crtbegin?.o *crtbegin.o) .dtors)
                0x0000000010030484                PROVIDE (__fini_array_end, .)

.ctors          0x0000000010030484        0x8
 *crtbegin.o(.ctors)
 .ctors         0x0000000010030484        0x4 /Users/stevefar/nacl_sdk/pepper_45/toolchain/mac_x86_newlib/bin/../lib/gcc/x86_64-nacl/4.4.3/crtbegin.o
 *crtbegin?.o(.ctors)
 *(EXCLUDE_FILE(*crtend?.o *crtend.o) .ctors)
 *(SORT(.ctors.*))
 *(.ctors)
 .ctors         0x0000000010030488        0x4 /Users/stevefar/nacl_sdk/pepper_45/toolchain/mac_x86_newlib/bin/../lib/gcc/x86_64-nacl/4.4.3/crtend.o

.dtors          0x000000001003048c        0x8
 *crtbegin.o(.dtors)
 .dtors         0x000000001003048c        0x4 /Users/stevefar/nacl_sdk/pepper_45/toolchain/mac_x86_newlib/bin/../lib/gcc/x86_64-nacl/4.4.3/crtbegin.o
 *crtbegin?.o(.dtors)
 *(EXCLUDE_FILE(*crtend?.o *crtend.o) .dtors)
 *(SORT(.dtors.*))
 *(.dtors)
 .dtors         0x0000000010030490        0x4 /Users/stevefar/nacl_sdk/pepper_45/toolchain/mac_x86_newlib/bin/../lib/gcc/x86_64-nacl/4.4.3/crtend.o
                0x0000000010030490                __DTOR_END__

.jcr            0x0000000010030494        0x4
 *(.jcr)
 .jcr           0x0000000010030494        0x0 /Users/stevefar/nacl_sdk/pepper_45/toolchain/mac_x86_newlib/bin/../lib/gcc/x86_64-nacl/4.4.3/crtbegin.o
 .jcr           0x0000000010030494        0x4 /Users/stevefar/nacl_sdk/pepper_45/toolchain/mac_x86_newlib/bin/../lib/gcc/x86_64-nacl/4.4.3/crtend.o

.data.rel.ro    0x0000000010030498       0x14
 *(.data.rel.ro.local* .gnu.linkonce.d.rel.ro.local.*)
 .data.rel.ro.local
                0x0000000010030498        0x8 /Users/stevefar/nacl_sdk/pepper_45/toolchain/mac_x86_newlib/bin/../lib/gcc/x86_64-nacl/4.4.3/../../../../x86_64-nacl/lib/../lib64/libppapi_stub.a(thread_creator_ccf263e1.o)
 *(.data.rel.ro .data.rel.ro.* .gnu.linkonce.d.rel.ro.*)
 .data.rel.ro   0x00000000100304a0        0xc /Users/stevefar/nacl_sdk/pepper_45/toolchain/mac_x86_newlib/bin/../lib/gcc/x86_64-nacl/4.4.3/../../../../x86_64-nacl/lib/../lib64/libppapi_stub.a(ppapi_plugin_main_399d0cf7.o)

.dynamic
 *(.dynamic)

.got            0x00000000100304b0        0x0
 *(.got)
 .got           0x0000000000000000        0x0 /Users/stevefar/nacl_sdk/pepper_45/toolchain/mac_x86_newlib/bin/../lib/gcc/x86_64-nacl/4.4.3/crtbegin.o
 *(.igot)
                0x00000000100304b0                . = DATA_SEGMENT_RELRO_END (., (SIZEOF (.got.plt) >= 0x18)?0x18:0x0)

.got.plt        0x00000000100304b0       0x18
 *(.got.plt)
 .got.plt       0x00000000100304b0       0x18 /Users/stevefar/nacl_sdk/pepper_45/toolchain/mac_x86_newlib/bin/../lib/gcc/x86_64-nacl/4.4.3/crtbegin.o
                0x00000000100304b0                _GLOBAL_OFFSET_TABLE_
 *(.igot.plt)
 .igot.plt      0x0000000000000000        0x0 /Users/stevefar/nacl_sdk/pepper_45/toolchain/mac_x86_newlib/bin/../lib/gcc/x86_64-nacl/4.4.3/crtbegin.o

.data           0x00000000100304e0      0x768
 *(.data .data.* .gnu.linkonce.d.*)
 .data          0x00000000100304e0        0x0 /Users/stevefar/nacl_sdk/pepper_45/toolchain/mac_x86_newlib/bin/../lib/gcc/x86_64-nacl/4.4.3/../../../../x86_64-nacl/lib/../lib64/crti.o
 .data          0x00000000100304e0        0x4 /Users/stevefar/nacl_sdk/pepper_45/toolchain/mac_x86_newlib/bin/../lib/gcc/x86_64-nacl/4.4.3/crtbegin.o
                0x00000000100304e0                __dso_handle
 .data          0x00000000100304e4        0x0 newlib/Release/multi_platform_x86_64.o
 .data          0x00000000100304e4        0xc /Users/stevefar/nacl_sdk/pepper_45/lib/newlib_x86_64/Release/libppapi_cpp.a(instance_x86_64.o)
 .data          0x00000000100304f0       0x18 /Users/stevefar/nacl_sdk/pepper_45/lib/newlib_x86_64/Release/libppapi_cpp.a(module_x86_64.o)
 .data          0x0000000010030508        0x0 /Users/stevefar/nacl_sdk/pepper_45/lib/newlib_x86_64/Release/libppapi_cpp.a(ppp_entrypoints_x86_64.o)
 .data          0x0000000010030508        0x0 /Users/stevefar/nacl_sdk/pepper_45/lib/newlib_x86_64/Release/libppapi_cpp.a(resource_x86_64.o)
 .data          0x0000000010030508        0x0 /Users/stevefar/nacl_sdk/pepper_45/lib/newlib_x86_64/Release/libppapi_cpp.a(url_loader_x86_64.o)
 .data          0x0000000010030508        0x0 /Users/stevefar/nacl_sdk/pepper_45/lib/newlib_x86_64/Release/libppapi_cpp.a(url_response_info_x86_64.o)
 .data          0x0000000010030508        0x0 /Users/stevefar/nacl_sdk/pepper_45/lib/newlib_x86_64/Release/libppapi_cpp.a(var_x86_64.o)
 .data          0x0000000010030508        0x0 /Users/stevefar/nacl_sdk/pepper_45/lib/newlib_x86_64/Release/libppapi_cpp.a(view_x86_64.o)
 .data          0x0000000010030508        0x0 /Users/stevefar/nacl_sdk/pepper_45/lib/newlib_x86_64/Release/libppapi_cpp.a(core_x86_64.o)
 .data          0x0000000010030508        0x0 /Users/stevefar/nacl_sdk/pepper_45/lib/newlib_x86_64/Release/libppapi_cpp.a(file_ref_x86_64.o)
 .data          0x0000000010030508        0x0 /Users/stevefar/nacl_sdk/pepper_45/lib/newlib_x86_64/Release/libppapi_cpp.a(input_event_x86_64.o)
 .data          0x0000000010030508        0x0 /Users/stevefar/nacl_sdk/pepper_45/toolchain/mac_x86_newlib/bin/../lib/gcc/x86_64-nacl/4.4.3/../../../../x86_64-nacl/lib/../lib64/libppapi_stub.a(plugin_main_irt_21ce9d26.o)
 .data          0x0000000010030508        0x0 /Users/stevefar/nacl_sdk/pepper_45/toolchain/mac_x86_newlib/bin/../lib/gcc/x86_64-nacl/4.4.3/../../../../x86_64-nacl/lib/../lib64/libppapi_stub.a(ppapi_plugin_main_399d0cf7.o)
 .data          0x0000000010030508        0x0 /Users/stevefar/nacl_sdk/pepper_45/toolchain/mac_x86_newlib/bin/../lib/gcc/x86_64-nacl/4.4.3/../../../../x86_64-nacl/lib/../lib64/libppapi_stub.a(ppapi_plugin_start_8da67623.o)
 .data          0x0000000010030508        0x0 /Users/stevefar/nacl_sdk/pepper_45/toolchain/mac_x86_newlib/bin/../lib/gcc/x86_64-nacl/4.4.3/../../../../x86_64-nacl/lib/../lib64/libppapi_stub.a(thread_creator_ccf263e1.o)
 .data          0x0000000010030508        0x4 /Users/stevefar/nacl_sdk/pepper_45/toolchain/mac_x86_newlib/bin/../lib/gcc/x86_64-nacl/4.4.3/../../../../x86_64-nacl/lib/../lib64/libpthread.a(nc_thread_7e478b15.o)
                0x0000000010030508                __nc_running_threads_counter
 .data          0x000000001003050c        0x0 /Users/stevefar/nacl_sdk/pepper_45/toolchain/mac_x86_newlib/bin/../lib/gcc/x86_64-nacl/4.4.3/../../../../x86_64-nacl/lib/../lib64/libpthread.a(nc_condvar_305aa45a.o)
 .data          0x000000001003050c        0x4 /Users/stevefar/nacl_sdk/pepper_45/toolchain/mac_x86_newlib/bin/../lib/gcc/x86_64-nacl/4.4.3/../../../../x86_64-nacl/lib/../lib64/libpthread.a(dynamic_annotations_33ba59cc.o)
 .data          0x0000000010030510        0x0 /Users/stevefar/nacl_sdk/pepper_45/toolchain/mac_x86_newlib/bin/../lib/gcc/x86_64-nacl/4.4.3/../../../../x86_64-nacl/lib/../lib64/libpthread.a(nc_mutex_86341ae1.o)
 .data          0x0000000010030510        0x0 /Users/stevefar/nacl_sdk/pepper_45/toolchain/mac_x86_newlib/bin/../lib/gcc/x86_64-nacl/4.4.3/../../../../x86_64-nacl/lib/../lib64/libpthread.a(nc_init_irt_d3daafc0.o)
 .data          0x0000000010030510        0x0 /Users/stevefar/nacl_sdk/pepper_45/toolchain/mac_x86_newlib/bin/../lib/gcc/x86_64-nacl/4.4.3/../../../../x86_64-nacl/lib/../lib64/libstdc++.a(tree.o)
 .data          0x0000000010030510        0x0 /Users/stevefar/nacl_sdk/pepper_45/toolchain/mac_x86_newlib/bin/../lib/gcc/x86_64-nacl/4.4.3/../../../../x86_64-nacl/lib/../lib64/libstdc++.a(string-inst.o)
 .data          0x0000000010030510        0x0 /Users/stevefar/nacl_sdk/pepper_45/toolchain/mac_x86_newlib/bin/../lib/gcc/x86_64-nacl/4.4.3/../../../../x86_64-nacl/lib/../lib64/libstdc++.a(class_type_info.o)
 .data          0x0000000010030510        0x0 /Users/stevefar/nacl_sdk/pepper_45/toolchain/mac_x86_newlib/bin/../lib/gcc/x86_64-nacl/4.4.3/../../../../x86_64-nacl/lib/../lib64/libstdc++.a(del_op.o)
 .data          0x0000000010030510        0x0 /Users/stevefar/nacl_sdk/pepper_45/toolchain/mac_x86_newlib/bin/../lib/gcc/x86_64-nacl/4.4.3/../../../../x86_64-nacl/lib/../lib64/libstdc++.a(eh_catch.o)
 .data          0x0000000010030510        0x0 /Users/stevefar/nacl_sdk/pepper_45/toolchain/mac_x86_newlib/bin/../lib/gcc/x86_64-nacl/4.4.3/../../../../x86_64-nacl/lib/../lib64/libstdc++.a(eh_globals.o)
 .data          0x0000000010030510        0x0 /Users/stevefar/nacl_sdk/pepper_45/toolchain/mac_x86_newlib/bin/../lib/gcc/x86_64-nacl/4.4.3/../../../../x86_64-nacl/lib/../lib64/libstdc++.a(eh_personality.o)
 .data          0x0000000010030510        0x0 /Users/stevefar/nacl_sdk/pepper_45/toolchain/mac_x86_newlib/bin/../lib/gcc/x86_64-nacl/4.4.3/../../../../x86_64-nacl/lib/../lib64/libstdc++.a(eh_terminate.o)
 .data          0x0000000010030510        0x0 /Users/stevefar/nacl_sdk/pepper_45/toolchain/mac_x86_newlib/bin/../lib/gcc/x86_64-nacl/4.4.3/../../../../x86_64-nacl/lib/../lib64/libstdc++.a(eh_throw.o)
 .data          0x0000000010030510        0x0 /Users/stevefar/nacl_sdk/pepper_45/toolchain/mac_x86_newlib/bin/../lib/gcc/x86_64-nacl/4.4.3/../../../../x86_64-nacl/lib/../lib64/libstdc++.a(eh_unex_handler.o)
 .data._ZN10__cxxabiv120__unexpected_handlerE
                0x0000000010030510        0x4 /Users/stevefar/nacl_sdk/pepper_45/toolchain/mac_x86_newlib/bin/../lib/gcc/x86_64-nacl/4.4.3/../../../../x86_64-nacl/lib/../lib64/libstdc++.a(eh_unex_handler.o)
                0x0000000010030510                _ZN10__cxxabiv120__unexpected_handlerE
 .data          0x0000000010030514        0x0 /Users/stevefar/nacl_sdk/pepper_45/toolchain/mac_x86_newlib/bin/../lib/gcc/x86_64-nacl/4.4.3/../../../../x86_64-nacl/lib/../lib64/libstdc++.a(guard.o)
 *fill*         0x0000000010030514        0xc 
 .data._ZZN12_GLOBAL__N_116get_static_mutexEvE4once
                0x0000000010030520       0x18 /Users/stevefar/nacl_sdk/pepper_45/toolchain/mac_x86_newlib/bin/../lib/gcc/x86_64-nacl/4.4.3/../../../../x86_64-nacl/lib/../lib64/libstdc++.a(guard.o)
 .data          0x0000000010030538        0x0 /Users/stevefar/nacl_sdk/pepper_45/toolchain/mac_x86_newlib/bin/../lib/gcc/x86_64-nacl/4.4.3/../../../../x86_64-nacl/lib/../lib64/libstdc++.a(new_op.o)
 .data          0x0000000010030538        0x0 /Users/stevefar/nacl_sdk/pepper_45/toolchain/mac_x86_newlib/bin/../lib/gcc/x86_64-nacl/4.4.3/../../../../x86_64-nacl/lib/../lib64/libstdc++.a(pure.o)
 .data          0x0000000010030538        0x0 /Users/stevefar/nacl_sdk/pepper_45/toolchain/mac_x86_newlib/bin/../lib/gcc/x86_64-nacl/4.4.3/../../../../x86_64-nacl/lib/../lib64/libstdc++.a(si_class_type_info.o)
 .data          0x0000000010030538        0x0 /Users/stevefar/nacl_sdk/pepper_45/toolchain/mac_x86_newlib/bin/../lib/gcc/x86_64-nacl/4.4.3/../../../../x86_64-nacl/lib/../lib64/libstdc++.a(tinfo.o)
 .data          0x0000000010030538        0x0 /Users/stevefar/nacl_sdk/pepper_45/toolchain/mac_x86_newlib/bin/../lib/gcc/x86_64-nacl/4.4.3/../../../../x86_64-nacl/lib/../lib64/libstdc++.a(functexcept.o)
 .data          0x0000000010030538        0x0 /Users/stevefar/nacl_sdk/pepper_45/toolchain/mac_x86_newlib/bin/../lib/gcc/x86_64-nacl/4.4.3/../../../../x86_64-nacl/lib/../lib64/libstdc++.a(ios_failure.o)
 .data          0x0000000010030538        0x0 /Users/stevefar/nacl_sdk/pepper_45/toolchain/mac_x86_newlib/bin/../lib/gcc/x86_64-nacl/4.4.3/../../../../x86_64-nacl/lib/../lib64/libstdc++.a(stdexcept.o)
 .data          0x0000000010030538        0x0 /Users/stevefar/nacl_sdk/pepper_45/toolchain/mac_x86_newlib/bin/../lib/gcc/x86_64-nacl/4.4.3/../../../../x86_64-nacl/lib/../lib64/libstdc++.a(system_error.o)
 .data          0x0000000010030538        0x0 /Users/stevefar/nacl_sdk/pepper_45/toolchain/mac_x86_newlib/bin/../lib/gcc/x86_64-nacl/4.4.3/../../../../x86_64-nacl/lib/../lib64/libstdc++.a(bad_cast.o)
 .data          0x0000000010030538        0x0 /Users/stevefar/nacl_sdk/pepper_45/toolchain/mac_x86_newlib/bin/../lib/gcc/x86_64-nacl/4.4.3/../../../../x86_64-nacl/lib/../lib64/libstdc++.a(bad_typeid.o)
 .data          0x0000000010030538        0x0 /Users/stevefar/nacl_sdk/pepper_45/toolchain/mac_x86_newlib/bin/../lib/gcc/x86_64-nacl/4.4.3/../../../../x86_64-nacl/lib/../lib64/libstdc++.a(eh_alloc.o)
 .data          0x0000000010030538        0x0 /Users/stevefar/nacl_sdk/pepper_45/toolchain/mac_x86_newlib/bin/../lib/gcc/x86_64-nacl/4.4.3/../../../../x86_64-nacl/lib/../lib64/libstdc++.a(eh_call.o)
 .data          0x0000000010030538        0x0 /Users/stevefar/nacl_sdk/pepper_45/toolchain/mac_x86_newlib/bin/../lib/gcc/x86_64-nacl/4.4.3/../../../../x86_64-nacl/lib/../lib64/libstdc++.a(eh_exception.o)
 .data          0x0000000010030538        0x0 /Users/stevefar/nacl_sdk/pepper_45/toolchain/mac_x86_newlib/bin/../lib/gcc/x86_64-nacl/4.4.3/../../../../x86_64-nacl/lib/../lib64/libstdc++.a(eh_term_handler.o)
 .data._ZN10__cxxabiv119__terminate_handlerE
                0x0000000010030538        0x4 /Users/stevefar/nacl_sdk/pepper_45/toolchain/mac_x86_newlib/bin/../lib/gcc/x86_64-nacl/4.4.3/../../../../x86_64-nacl/lib/../lib64/libstdc++.a(eh_term_handler.o)
                0x0000000010030538                _ZN10__cxxabiv119__terminate_handlerE
 .data          0x000000001003053c        0x0 /Users/stevefar/nacl_sdk/pepper_45/toolchain/mac_x86_newlib/bin/../lib/gcc/x86_64-nacl/4.4.3/../../../../x86_64-nacl/lib/../lib64/libstdc++.a(new_handler.o)
 .data          0x000000001003053c        0x0 /Users/stevefar/nacl_sdk/pepper_45/toolchain/mac_x86_newlib/bin/../lib/gcc/x86_64-nacl/4.4.3/../../../../x86_64-nacl/lib/../lib64/libstdc++.a(vterminate.o)
 .data          0x000000001003053c        0x0 /Users/stevefar/nacl_sdk/pepper_45/toolchain/mac_x86_newlib/bin/../lib/gcc/x86_64-nacl/4.4.3/../../../../x86_64-nacl/lib/../lib64/libstdc++.a(cp-demangle.o)
 .data          0x000000001003053c        0x0 /Users/stevefar/nacl_sdk/pepper_45/toolchain/mac_x86_newlib/bin/../lib/gcc/x86_64-nacl/4.4.3/../../../../x86_64-nacl/lib/../lib64/libstdc++.a(eh_type.o)
 *fill*         0x000000001003053c        0x4 
 .data          0x0000000010030540       0x18 /Users/stevefar/nacl_sdk/pepper_45/toolchain/mac_x86_newlib/bin/../lib/gcc/x86_64-nacl/4.4.3/libgcc.a(unwind-dw2.o)
 *fill*         0x0000000010030558        0x8 
 .data          0x0000000010030560       0x14 /Users/stevefar/nacl_sdk/pepper_45/toolchain/mac_x86_newlib/bin/../lib/gcc/x86_64-nacl/4.4.3/libgcc.a(unwind-dw2-fde-glibc.o)
 .data          0x0000000010030574        0x0 /Users/stevefar/nacl_sdk/pepper_45/toolchain/mac_x86_newlib/bin/../lib/gcc/x86_64-nacl/4.4.3/../../../../x86_64-nacl/lib/../lib64/libnacl.a(_exit_710c7d0d.o)
 .data          0x0000000010030574        0x0 /Users/stevefar/nacl_sdk/pepper_45/toolchain/mac_x86_newlib/bin/../lib/gcc/x86_64-nacl/4.4.3/../../../../x86_64-nacl/lib/../lib64/libnacl.a(abort_9f6b5845.o)
 .data          0x0000000010030574        0x4 /Users/stevefar/nacl_sdk/pepper_45/toolchain/mac_x86_newlib/bin/../lib/gcc/x86_64-nacl/4.4.3/../../../../x86_64-nacl/lib/../lib64/libnacl.a(environ_25cd24d8.o)
                0x0000000010030574                environ
 .data          0x0000000010030578        0x0 /Users/stevefar/nacl_sdk/pepper_45/toolchain/mac_x86_newlib/bin/../lib/gcc/x86_64-nacl/4.4.3/../../../../x86_64-nacl/lib/../lib64/libnacl.a(malloc_222c4a1e.o)
 *fill*         0x0000000010030578        0x8 
 .data          0x0000000010030580       0x20 /Users/stevefar/nacl_sdk/pepper_45/toolchain/mac_x86_newlib/bin/../lib/gcc/x86_64-nacl/4.4.3/../../../../x86_64-nacl/lib/../lib64/libnacl.a(nacl_irt_6de1d53f.o)
                0x0000000010030580                __libnacl_irt_fdio
 .data          0x00000000100305a0        0x0 /Users/stevefar/nacl_sdk/pepper_45/toolchain/mac_x86_newlib/bin/../lib/gcc/x86_64-nacl/4.4.3/../../../../x86_64-nacl/lib/../lib64/libnacl.a(pthread_initialize_minimal_4b6e776b.o)
 .data          0x00000000100305a0        0x0 /Users/stevefar/nacl_sdk/pepper_45/toolchain/mac_x86_newlib/bin/../lib/gcc/x86_64-nacl/4.4.3/../../../../x86_64-nacl/lib/../lib64/libnacl.a(nacl_read_tp_5748ac47.o)
 .data          0x00000000100305a0        0x0 /Users/stevefar/nacl_sdk/pepper_45/toolchain/mac_x86_newlib/bin/../lib/gcc/x86_64-nacl/4.4.3/../../../../x86_64-nacl/lib/../lib64/libnacl.a(nacl_add_tp_7312c7c4.o)
 .data          0x00000000100305a0        0x0 /Users/stevefar/nacl_sdk/pepper_45/toolchain/mac_x86_newlib/bin/../lib/gcc/x86_64-nacl/4.4.3/../../../../x86_64-nacl/lib/../lib64/libnacl.a(mmap_767fb080.o)
 .data          0x00000000100305a0        0x0 /Users/stevefar/nacl_sdk/pepper_45/toolchain/mac_x86_newlib/bin/../lib/gcc/x86_64-nacl/4.4.3/../../../../x86_64-nacl/lib/../lib64/libnacl.a(sched_yield_56c375be.o)
 .data          0x00000000100305a0        0x0 /Users/stevefar/nacl_sdk/pepper_45/toolchain/mac_x86_newlib/bin/../lib/gcc/x86_64-nacl/4.4.3/../../../../x86_64-nacl/lib/../lib64/libnacl.a(start_fa9ef7de.o)
 .data          0x00000000100305a0        0x0 /Users/stevefar/nacl_sdk/pepper_45/toolchain/mac_x86_newlib/bin/../lib/gcc/x86_64-nacl/4.4.3/../../../../x86_64-nacl/lib/../lib64/libnacl.a(munmap_d4f09867.o)
 .data          0x00000000100305a0        0x0 /Users/stevefar/nacl_sdk/pepper_45/toolchain/mac_x86_newlib/bin/../lib/gcc/x86_64-nacl/4.4.3/../../../../x86_64-nacl/lib/../lib64/libnacl.a(tls_bba1975b.o)
 .data          0x00000000100305a0        0x0 /Users/stevefar/nacl_sdk/pepper_45/toolchain/mac_x86_newlib/bin/../lib/gcc/x86_64-nacl/4.4.3/../../../../x86_64-nacl/lib/../lib64/libnacl.a(write_fb49787f.o)
 .data          0x00000000100305a0        0x0 /Users/stevefar/nacl_sdk/pepper_45/toolchain/mac_x86_newlib/bin/../lib/gcc/x86_64-nacl/4.4.3/../../../../x86_64-nacl/lib/../lib64/libnacl.a(nacl_tls_get_d2f842b5.o)
 .data          0x00000000100305a0        0x0 /Users/stevefar/nacl_sdk/pepper_45/toolchain/mac_x86_newlib/bin/../lib/gcc/x86_64-nacl/4.4.3/../../../../x86_64-nacl/lib/../lib64/libnacl.a(nacl_irt_init_7b4f826e.o)
 .data          0x00000000100305a0        0x0 /Users/stevefar/nacl_sdk/pepper_45/toolchain/mac_x86_newlib/bin/../lib/gcc/x86_64-nacl/4.4.3/../../../../x86_64-nacl/lib/../lib64/libnacl.a(sysconf_ad295ea2.o)
 .data          0x00000000100305a0        0x0 /Users/stevefar/nacl_sdk/pepper_45/toolchain/mac_x86_newlib/bin/../lib/gcc/x86_64-nacl/4.4.3/../../../../x86_64-nacl/lib/../lib64/libnacl.a(nacl_tls_init_eb0cd232.o)
 .data          0x00000000100305a0        0x0 /Users/stevefar/nacl_sdk/pepper_45/toolchain/mac_x86_newlib/bin/../lib/gcc/x86_64-nacl/4.4.3/../../../../x86_64-nacl/lib/../lib64/libcrt_common.a(lib_a-atexit.o)
 .data          0x00000000100305a0        0x0 /Users/stevefar/nacl_sdk/pepper_45/toolchain/mac_x86_newlib/bin/../lib/gcc/x86_64-nacl/4.4.3/../../../../x86_64-nacl/lib/../lib64/libcrt_common.a(lib_a-cxa_atexit.o)
 .data          0x00000000100305a0        0x0 /Users/stevefar/nacl_sdk/pepper_45/toolchain/mac_x86_newlib/bin/../lib/gcc/x86_64-nacl/4.4.3/../../../../x86_64-nacl/lib/../lib64/libcrt_common.a(lib_a-errno.o)
 .data          0x00000000100305a0        0x0 /Users/stevefar/nacl_sdk/pepper_45/toolchain/mac_x86_newlib/bin/../lib/gcc/x86_64-nacl/4.4.3/../../../../x86_64-nacl/lib/../lib64/libcrt_common.a(lib_a-exit.o)
 .data          0x00000000100305a0        0x0 /Users/stevefar/nacl_sdk/pepper_45/toolchain/mac_x86_newlib/bin/../lib/gcc/x86_64-nacl/4.4.3/../../../../x86_64-nacl/lib/../lib64/libcrt_common.a(lib_a-fini.o)
 .data          0x00000000100305a0        0x0 /Users/stevefar/nacl_sdk/pepper_45/toolchain/mac_x86_newlib/bin/../lib/gcc/x86_64-nacl/4.4.3/../../../../x86_64-nacl/lib/../lib64/libcrt_common.a(lib_a-fprintf.o)
 .data          0x00000000100305a0        0x0 /Users/stevefar/nacl_sdk/pepper_45/toolchain/mac_x86_newlib/bin/../lib/gcc/x86_64-nacl/4.4.3/../../../../x86_64-nacl/lib/../lib64/libcrt_common.a(lib_a-fputc.o)
 .data          0x00000000100305a0        0x0 /Users/stevefar/nacl_sdk/pepper_45/toolchain/mac_x86_newlib/bin/../lib/gcc/x86_64-nacl/4.4.3/../../../../x86_64-nacl/lib/../lib64/libcrt_common.a(lib_a-fputs.o)
 .data          0x00000000100305a0        0x0 /Users/stevefar/nacl_sdk/pepper_45/toolchain/mac_x86_newlib/bin/../lib/gcc/x86_64-nacl/4.4.3/../../../../x86_64-nacl/lib/../lib64/libcrt_common.a(lib_a-fvwrite.o)
 .data          0x00000000100305a0        0x0 /Users/stevefar/nacl_sdk/pepper_45/toolchain/mac_x86_newlib/bin/../lib/gcc/x86_64-nacl/4.4.3/../../../../x86_64-nacl/lib/../lib64/libcrt_common.a(lib_a-fwrite.o)
 .data          0x00000000100305a0        0x0 /Users/stevefar/nacl_sdk/pepper_45/toolchain/mac_x86_newlib/bin/../lib/gcc/x86_64-nacl/4.4.3/../../../../x86_64-nacl/lib/../lib64/libcrt_common.a(lib_a-getenv.o)
 .data          0x00000000100305a0        0x0 /Users/stevefar/nacl_sdk/pepper_45/toolchain/mac_x86_newlib/bin/../lib/gcc/x86_64-nacl/4.4.3/../../../../x86_64-nacl/lib/../lib64/libcrt_common.a(lib_a-getenv_r.o)
 .data          0x00000000100305a0      0x470 /Users/stevefar/nacl_sdk/pepper_45/toolchain/mac_x86_newlib/bin/../lib/gcc/x86_64-nacl/4.4.3/../../../../x86_64-nacl/lib/../lib64/libcrt_common.a(lib_a-impure.o)
 .data          0x0000000010030a10        0x0 /Users/stevefar/nacl_sdk/pepper_45/toolchain/mac_x86_newlib/bin/../lib/gcc/x86_64-nacl/4.4.3/../../../../x86_64-nacl/lib/../lib64/libcrt_common.a(lib_a-init.o)
 .data          0x0000000010030a10        0x0 /Users/stevefar/nacl_sdk/pepper_45/toolchain/mac_x86_newlib/bin/../lib/gcc/x86_64-nacl/4.4.3/../../../../x86_64-nacl/lib/../lib64/libcrt_common.a(lib_a-memchr.o)
 .data          0x0000000010030a10        0x0 /Users/stevefar/nacl_sdk/pepper_45/toolchain/mac_x86_newlib/bin/../lib/gcc/x86_64-nacl/4.4.3/../../../../x86_64-nacl/lib/../lib64/libcrt_common.a(lib_a-memcpy.o)
 .data          0x0000000010030a10        0x0 /Users/stevefar/nacl_sdk/pepper_45/toolchain/mac_x86_newlib/bin/../lib/gcc/x86_64-nacl/4.4.3/../../../../x86_64-nacl/lib/../lib64/libcrt_common.a(lib_a-memmove.o)
 .data          0x0000000010030a10        0x0 /Users/stevefar/nacl_sdk/pepper_45/toolchain/mac_x86_newlib/bin/../lib/gcc/x86_64-nacl/4.4.3/../../../../x86_64-nacl/lib/../lib64/libcrt_common.a(lib_a-memset.o)
 .data          0x0000000010030a10        0x0 /Users/stevefar/nacl_sdk/pepper_45/toolchain/mac_x86_newlib/bin/../lib/gcc/x86_64-nacl/4.4.3/../../../../x86_64-nacl/lib/../lib64/libcrt_common.a(lib_a-putc.o)
 .data          0x0000000010030a10        0x0 /Users/stevefar/nacl_sdk/pepper_45/toolchain/mac_x86_newlib/bin/../lib/gcc/x86_64-nacl/4.4.3/../../../../x86_64-nacl/lib/../lib64/libcrt_common.a(lib_a-snprintf.o)
 .data          0x0000000010030a10        0x0 /Users/stevefar/nacl_sdk/pepper_45/toolchain/mac_x86_newlib/bin/../lib/gcc/x86_64-nacl/4.4.3/../../../../x86_64-nacl/lib/../lib64/libcrt_common.a(lib_a-sprintf.o)
 .data          0x0000000010030a10        0x0 /Users/stevefar/nacl_sdk/pepper_45/toolchain/mac_x86_newlib/bin/../lib/gcc/x86_64-nacl/4.4.3/../../../../x86_64-nacl/lib/../lib64/libcrt_common.a(lib_a-strcpy.o)
 .data          0x0000000010030a10        0x0 /Users/stevefar/nacl_sdk/pepper_45/toolchain/mac_x86_newlib/bin/../lib/gcc/x86_64-nacl/4.4.3/../../../../x86_64-nacl/lib/../lib64/libcrt_common.a(lib_a-strerror.o)
 .data          0x0000000010030a10        0x0 /Users/stevefar/nacl_sdk/pepper_45/toolchain/mac_x86_newlib/bin/../lib/gcc/x86_64-nacl/4.4.3/../../../../x86_64-nacl/lib/../lib64/libcrt_common.a(lib_a-strlen.o)
 .data          0x0000000010030a10        0x0 /Users/stevefar/nacl_sdk/pepper_45/toolchain/mac_x86_newlib/bin/../lib/gcc/x86_64-nacl/4.4.3/../../../../x86_64-nacl/lib/../lib64/libcrt_common.a(lib_a-strncmp.o)
 .data          0x0000000010030a10        0x0 /Users/stevefar/nacl_sdk/pepper_45/toolchain/mac_x86_newlib/bin/../lib/gcc/x86_64-nacl/4.4.3/../../../../x86_64-nacl/lib/../lib64/libcrt_common.a(lib_a-svfprintf.o)
 .data          0x0000000010030a10        0x0 /Users/stevefar/nacl_sdk/pepper_45/toolchain/mac_x86_newlib/bin/../lib/gcc/x86_64-nacl/4.4.3/../../../../x86_64-nacl/lib/../lib64/libcrt_common.a(lib_a-u_strerr.o)
 .data          0x0000000010030a10        0x0 /Users/stevefar/nacl_sdk/pepper_45/toolchain/mac_x86_newlib/bin/../lib/gcc/x86_64-nacl/4.4.3/../../../../x86_64-nacl/lib/../lib64/libcrt_common.a(lib_a-vfprintf.o)
 .data          0x0000000010030a10        0x0 /Users/stevefar/nacl_sdk/pepper_45/toolchain/mac_x86_newlib/bin/../lib/gcc/x86_64-nacl/4.4.3/../../../../x86_64-nacl/lib/../lib64/libcrt_common.a(lib_a-wbuf.o)
 .data          0x0000000010030a10        0x0 /Users/stevefar/nacl_sdk/pepper_45/toolchain/mac_x86_newlib/bin/../lib/gcc/x86_64-nacl/4.4.3/../../../../x86_64-nacl/lib/../lib64/libcrt_common.a(lib_a-wcrtomb.o)
 .data          0x0000000010030a10        0x0 /Users/stevefar/nacl_sdk/pepper_45/toolchain/mac_x86_newlib/bin/../lib/gcc/x86_64-nacl/4.4.3/../../../../x86_64-nacl/lib/../lib64/libcrt_common.a(lib_a-wcsrtombs.o)
 .data          0x0000000010030a10        0x4 /Users/stevefar/nacl_sdk/pepper_45/toolchain/mac_x86_newlib/bin/../lib/gcc/x86_64-nacl/4.4.3/../../../../x86_64-nacl/lib/../lib64/libcrt_common.a(lib_a-wctomb_r.o)
                0x0000000010030a10                __wctomb
 .data          0x0000000010030a14        0x0 /Users/stevefar/nacl_sdk/pepper_45/toolchain/mac_x86_newlib/bin/../lib/gcc/x86_64-nacl/4.4.3/../../../../x86_64-nacl/lib/../lib64/libcrt_common.a(lib_a-wsetup.o)
 .data          0x0000000010030a14        0x0 /Users/stevefar/nacl_sdk/pepper_45/toolchain/mac_x86_newlib/bin/../lib/gcc/x86_64-nacl/4.4.3/../../../../x86_64-nacl/lib/../lib64/libcrt_common.a(lib_a-__atexit.o)
 *fill*         0x0000000010030a14        0xc 
 .data          0x0000000010030a20       0x14 /Users/stevefar/nacl_sdk/pepper_45/toolchain/mac_x86_newlib/bin/../lib/gcc/x86_64-nacl/4.4.3/../../../../x86_64-nacl/lib/../lib64/libcrt_common.a(lib_a-__call_atexit.o)
                0x0000000010030a20                __atexit_lock
 .data          0x0000000010030a34        0x0 /Users/stevefar/nacl_sdk/pepper_45/toolchain/mac_x86_newlib/bin/../lib/gcc/x86_64-nacl/4.4.3/../../../../x86_64-nacl/lib/../lib64/libcrt_common.a(lib_a-dtoa.o)
 *fill*         0x0000000010030a34        0xc 
 .data          0x0000000010030a40       0x14 /Users/stevefar/nacl_sdk/pepper_45/toolchain/mac_x86_newlib/bin/../lib/gcc/x86_64-nacl/4.4.3/../../../../x86_64-nacl/lib/../lib64/libcrt_common.a(lib_a-envlock.o)
 .data          0x0000000010030a54        0x0 /Users/stevefar/nacl_sdk/pepper_45/toolchain/mac_x86_newlib/bin/../lib/gcc/x86_64-nacl/4.4.3/../../../../x86_64-nacl/lib/../lib64/libcrt_common.a(lib_a-fflush.o)
 *fill*         0x0000000010030a54        0xc 
 .data          0x0000000010030a60       0x34 /Users/stevefar/nacl_sdk/pepper_45/toolchain/mac_x86_newlib/bin/../lib/gcc/x86_64-nacl/4.4.3/../../../../x86_64-nacl/lib/../lib64/libcrt_common.a(lib_a-findfp.o)
 .data          0x0000000010030a94        0x0 /Users/stevefar/nacl_sdk/pepper_45/toolchain/mac_x86_newlib/bin/../lib/gcc/x86_64-nacl/4.4.3/../../../../x86_64-nacl/lib/../lib64/libcrt_common.a(lib_a-fwalk.o)
 *fill*         0x0000000010030a94        0xc 
 .data          0x0000000010030aa0      0x1a0 /Users/stevefar/nacl_sdk/pepper_45/toolchain/mac_x86_newlib/bin/../lib/gcc/x86_64-nacl/4.4.3/../../../../x86_64-nacl/lib/../lib64/libcrt_common.a(lib_a-locale.o)
                0x0000000010030aa0                __mb_cur_max
                0x0000000010030ac0                __default_locale
 .data          0x0000000010030c40        0x0 /Users/stevefar/nacl_sdk/pepper_45/toolchain/mac_x86_newlib/bin/../lib/gcc/x86_64-nacl/4.4.3/../../../../x86_64-nacl/lib/../lib64/libcrt_common.a(lib_a-makebuf.o)
 .data          0x0000000010030c40        0x4 /Users/stevefar/nacl_sdk/pepper_45/toolchain/mac_x86_newlib/bin/../lib/gcc/x86_64-nacl/4.4.3/../../../../x86_64-nacl/lib/../lib64/libcrt_common.a(lib_a-mbtowc_r.o)
                0x0000000010030c40                __mbtowc
 .data          0x0000000010030c44        0x0 /Users/stevefar/nacl_sdk/pepper_45/toolchain/mac_x86_newlib/bin/../lib/gcc/x86_64-nacl/4.4.3/../../../../x86_64-nacl/lib/../lib64/libcrt_common.a(lib_a-mprec.o)
 .data          0x0000000010030c44        0x0 /Users/stevefar/nacl_sdk/pepper_45/toolchain/mac_x86_newlib/bin/../lib/gcc/x86_64-nacl/4.4.3/../../../../x86_64-nacl/lib/../lib64/libcrt_common.a(lib_a-s_fpclassify.o)
 .data          0x0000000010030c44        0x0 /Users/stevefar/nacl_sdk/pepper_45/toolchain/mac_x86_newlib/bin/../lib/gcc/x86_64-nacl/4.4.3/../../../../x86_64-nacl/lib/../lib64/libcrt_common.a(lib_a-s_frexp.o)
 .data          0x0000000010030c44        0x0 /Users/stevefar/nacl_sdk/pepper_45/toolchain/mac_x86_newlib/bin/../lib/gcc/x86_64-nacl/4.4.3/../../../../x86_64-nacl/lib/../lib64/libcrt_common.a(lib_a-stdio.o)
 .data          0x0000000010030c44        0x0 /Users/stevefar/nacl_sdk/pepper_45/toolchain/mac_x86_newlib/bin/../lib/gcc/x86_64-nacl/4.4.3/../../../../x86_64-nacl/lib/../lib64/libcrt_common.a(lib_a-strcasecmp.o)
 .data          0x0000000010030c44        0x0 /Users/stevefar/nacl_sdk/pepper_45/toolchain/mac_x86_newlib/bin/../lib/gcc/x86_64-nacl/4.4.3/../../../../x86_64-nacl/lib/../lib64/libcrt_common.a(lib_a-strcat.o)
 .data          0x0000000010030c44        0x0 /Users/stevefar/nacl_sdk/pepper_45/toolchain/mac_x86_newlib/bin/../lib/gcc/x86_64-nacl/4.4.3/../../../../x86_64-nacl/lib/../lib64/libcrt_common.a(lib_a-strchr.o)
 .data          0x0000000010030c44        0x0 /Users/stevefar/nacl_sdk/pepper_45/toolchain/mac_x86_newlib/bin/../lib/gcc/x86_64-nacl/4.4.3/../../../../x86_64-nacl/lib/../lib64/libcrt_common.a(lib_a-strcmp.o)
 .data          0x0000000010030c44        0x0 /Users/stevefar/nacl_sdk/pepper_45/toolchain/mac_x86_newlib/bin/../lib/gcc/x86_64-nacl/4.4.3/../../../../x86_64-nacl/lib/../lib64/libcrt_common.a(lib_a-strlcpy.o)
 .data          0x0000000010030c44        0x0 /Users/stevefar/nacl_sdk/pepper_45/toolchain/mac_x86_newlib/bin/../lib/gcc/x86_64-nacl/4.4.3/../../../../x86_64-nacl/lib/../lib64/libcrt_common.a(lib_a-strncasecmp.o)
 .data          0x0000000010030c44        0x0 /Users/stevefar/nacl_sdk/pepper_45/toolchain/mac_x86_newlib/bin/../lib/gcc/x86_64-nacl/4.4.3/../../../../x86_64-nacl/lib/../lib64/libcrt_common.a(lib_a-strncpy.o)
 .data          0x0000000010030c44        0x0 /Users/stevefar/nacl_sdk/pepper_45/toolchain/mac_x86_newlib/bin/../lib/gcc/x86_64-nacl/4.4.3/../../../../x86_64-nacl/lib/../lib64/libcrt_common.a(lib_a-strtol.o)
 .data          0x0000000010030c44        0x0 /Users/stevefar/nacl_sdk/pepper_45/toolchain/mac_x86_newlib/bin/../lib/gcc/x86_64-nacl/4.4.3/../../../../x86_64-nacl/lib/../lib64/libcrt_common.a(lib_a-svfiprintf.o)
 .data          0x0000000010030c44        0x0 /Users/stevefar/nacl_sdk/pepper_45/toolchain/mac_x86_newlib/bin/../lib/gcc/x86_64-nacl/4.4.3/../../../../x86_64-nacl/lib/../lib64/libcrt_common.a(lib_a-vfiprintf.o)
 .data          0x0000000010030c44        0x0 /Users/stevefar/nacl_sdk/pepper_45/toolchain/mac_x86_newlib/bin/../lib/gcc/x86_64-nacl/4.4.3/../../../../x86_64-nacl/lib/../lib64/libcrt_common.a(lib_a-wcsnrtombs.o)
 .data          0x0000000010030c44        0x4 /Users/stevefar/nacl_sdk/pepper_45/toolchain/mac_x86_newlib/bin/../lib/gcc/x86_64-nacl/4.4.3/../../../../x86_64-nacl/lib/../lib64/libcrt_common.a(lib_a-ctype_.o)
                0x0000000010030c44                __ctype_ptr__
 .data          0x0000000010030c48        0x0 /Users/stevefar/nacl_sdk/pepper_45/toolchain/mac_x86_newlib/bin/../lib/gcc/x86_64-nacl/4.4.3/../../../../x86_64-nacl/lib/../lib64/libcrt_common.a(lib_a-fclose.o)
 .data          0x0000000010030c48        0x0 /Users/stevefar/nacl_sdk/pepper_45/toolchain/mac_x86_newlib/bin/../lib/gcc/x86_64-nacl/4.4.3/../../../../x86_64-nacl/lib/../lib64/libcrt_common.a(lib_a-fputwc.o)
 .data          0x0000000010030c48        0x0 /Users/stevefar/nacl_sdk/pepper_45/toolchain/mac_x86_newlib/bin/../lib/gcc/x86_64-nacl/4.4.3/../../../../x86_64-nacl/lib/../lib64/libnacl.a(close_e9b92fbd.o)
 .data          0x0000000010030c48        0x0 /Users/stevefar/nacl_sdk/pepper_45/toolchain/mac_x86_newlib/bin/../lib/gcc/x86_64-nacl/4.4.3/../../../../x86_64-nacl/lib/../lib64/libnacl.a(isatty_02f56e94.o)
 .data          0x0000000010030c48        0x0 /Users/stevefar/nacl_sdk/pepper_45/toolchain/mac_x86_newlib/bin/../lib/gcc/x86_64-nacl/4.4.3/../../../../x86_64-nacl/lib/../lib64/libnacl.a(nacl_irt_fdio_b571b5e7.o)
 .data          0x0000000010030c48        0x0 /Users/stevefar/nacl_sdk/pepper_45/toolchain/mac_x86_newlib/bin/../lib/gcc/x86_64-nacl/4.4.3/../../../../x86_64-nacl/lib/../lib64/libnacl.a(fstat_0540ff63.o)
 .data          0x0000000010030c48        0x0 /Users/stevefar/nacl_sdk/pepper_45/toolchain/mac_x86_newlib/bin/../lib/gcc/x86_64-nacl/4.4.3/../../../../x86_64-nacl/lib/../lib64/libnacl.a(lseek_64d2d05c.o)
 .data          0x0000000010030c48        0x0 /Users/stevefar/nacl_sdk/pepper_45/toolchain/mac_x86_newlib/bin/../lib/gcc/x86_64-nacl/4.4.3/../../../../x86_64-nacl/lib/../lib64/libnacl.a(read_df872e10.o)
 .data          0x0000000010030c48        0x0 /Users/stevefar/nacl_sdk/pepper_45/toolchain/mac_x86_newlib/bin/../lib/gcc/x86_64-nacl/4.4.3/crtend.o
 .data          0x0000000010030c48        0x0 /Users/stevefar/nacl_sdk/pepper_45/toolchain/mac_x86_newlib/bin/../lib/gcc/x86_64-nacl/4.4.3/../../../../x86_64-nacl/lib/../lib64/crtn.o

.data1
 *(.data1)
                0x0000000010030c48                _edata = .
                0x0000000010030c48                PROVIDE (edata, .)
                0x0000000010030c48                . = .
                0x0000000010030c48                __bss_start = .

.bss            0x0000000010030c60     0x6308
 *(.dynbss)
 *(.bss .bss.* .gnu.linkonce.b.*)
 .bss           0x0000000010030c60        0x0 /Users/stevefar/nacl_sdk/pepper_45/toolchain/mac_x86_newlib/bin/../lib/gcc/x86_64-nacl/4.4.3/../../../../x86_64-nacl/lib/../lib64/crti.o
 .bss           0x0000000010030c60       0x28 /Users/stevefar/nacl_sdk/pepper_45/toolchain/mac_x86_newlib/bin/../lib/gcc/x86_64-nacl/4.4.3/crtbegin.o
 .bss           0x0000000010030c88        0x0 newlib/Release/multi_platform_x86_64.o
 .bss           0x0000000010030c88       0x4c /Users/stevefar/nacl_sdk/pepper_45/lib/newlib_x86_64/Release/libppapi_cpp.a(instance_x86_64.o)
 .bss           0x0000000010030cd4        0x0 /Users/stevefar/nacl_sdk/pepper_45/lib/newlib_x86_64/Release/libppapi_cpp.a(module_x86_64.o)
 .bss           0x0000000010030cd4        0x8 /Users/stevefar/nacl_sdk/pepper_45/lib/newlib_x86_64/Release/libppapi_cpp.a(ppp_entrypoints_x86_64.o)
 .bss           0x0000000010030cdc        0x0 /Users/stevefar/nacl_sdk/pepper_45/lib/newlib_x86_64/Release/libppapi_cpp.a(resource_x86_64.o)
 *fill*         0x0000000010030cdc        0x4 
 .bss           0x0000000010030ce0        0xc /Users/stevefar/nacl_sdk/pepper_45/lib/newlib_x86_64/Release/libppapi_cpp.a(url_loader_x86_64.o)
 *fill*         0x0000000010030cec        0x4 
 .bss           0x0000000010030cf0        0xc /Users/stevefar/nacl_sdk/pepper_45/lib/newlib_x86_64/Release/libppapi_cpp.a(url_response_info_x86_64.o)
 *fill*         0x0000000010030cfc        0x4 
 .bss           0x0000000010030d00       0x2c /Users/stevefar/nacl_sdk/pepper_45/lib/newlib_x86_64/Release/libppapi_cpp.a(var_x86_64.o)
 *fill*         0x0000000010030d2c        0x4 
 .bss           0x0000000010030d30       0x2c /Users/stevefar/nacl_sdk/pepper_45/lib/newlib_x86_64/Release/libppapi_cpp.a(view_x86_64.o)
 .bss           0x0000000010030d5c        0x0 /Users/stevefar/nacl_sdk/pepper_45/lib/newlib_x86_64/Release/libppapi_cpp.a(core_x86_64.o)
 *fill*         0x0000000010030d5c        0x4 
 .bss           0x0000000010030d60       0x2c /Users/stevefar/nacl_sdk/pepper_45/lib/newlib_x86_64/Release/libppapi_cpp.a(file_ref_x86_64.o)
 *fill*         0x0000000010030d8c        0x4 
 .bss           0x0000000010030d90       0x6c /Users/stevefar/nacl_sdk/pepper_45/lib/newlib_x86_64/Release/libppapi_cpp.a(input_event_x86_64.o)
 .bss           0x0000000010030dfc        0x0 /Users/stevefar/nacl_sdk/pepper_45/toolchain/mac_x86_newlib/bin/../lib/gcc/x86_64-nacl/4.4.3/../../../../x86_64-nacl/lib/../lib64/libppapi_stub.a(plugin_main_irt_21ce9d26.o)
 .bss           0x0000000010030dfc        0x0 /Users/stevefar/nacl_sdk/pepper_45/toolchain/mac_x86_newlib/bin/../lib/gcc/x86_64-nacl/4.4.3/../../../../x86_64-nacl/lib/../lib64/libppapi_stub.a(ppapi_plugin_main_399d0cf7.o)
 .bss           0x0000000010030dfc        0x0 /Users/stevefar/nacl_sdk/pepper_45/toolchain/mac_x86_newlib/bin/../lib/gcc/x86_64-nacl/4.4.3/../../../../x86_64-nacl/lib/../lib64/libppapi_stub.a(ppapi_plugin_start_8da67623.o)
 .bss           0x0000000010030dfc        0x0 /Users/stevefar/nacl_sdk/pepper_45/toolchain/mac_x86_newlib/bin/../lib/gcc/x86_64-nacl/4.4.3/../../../../x86_64-nacl/lib/../lib64/libppapi_stub.a(thread_creator_ccf263e1.o)
 *fill*         0x0000000010030dfc        0x4 
 .bss           0x0000000010030e00     0x1020 /Users/stevefar/nacl_sdk/pepper_45/toolchain/mac_x86_newlib/bin/../lib/gcc/x86_64-nacl/4.4.3/../../../../x86_64-nacl/lib/../lib64/libpthread.a(nc_thread_7e478b15.o)
 .bss           0x0000000010031e20        0x0 /Users/stevefar/nacl_sdk/pepper_45/toolchain/mac_x86_newlib/bin/../lib/gcc/x86_64-nacl/4.4.3/../../../../x86_64-nacl/lib/../lib64/libpthread.a(nc_condvar_305aa45a.o)
 .bss           0x0000000010031e20        0x0 /Users/stevefar/nacl_sdk/pepper_45/toolchain/mac_x86_newlib/bin/../lib/gcc/x86_64-nacl/4.4.3/../../../../x86_64-nacl/lib/../lib64/libpthread.a(dynamic_annotations_33ba59cc.o)
 .bss           0x0000000010031e20        0x0 /Users/stevefar/nacl_sdk/pepper_45/toolchain/mac_x86_newlib/bin/../lib/gcc/x86_64-nacl/4.4.3/../../../../x86_64-nacl/lib/../lib64/libpthread.a(nc_mutex_86341ae1.o)
 .bss           0x0000000010031e20        0x0 /Users/stevefar/nacl_sdk/pepper_45/toolchain/mac_x86_newlib/bin/../lib/gcc/x86_64-nacl/4.4.3/../../../../x86_64-nacl/lib/../lib64/libpthread.a(nc_init_irt_d3daafc0.o)
 .bss           0x0000000010031e20        0x0 /Users/stevefar/nacl_sdk/pepper_45/toolchain/mac_x86_newlib/bin/../lib/gcc/x86_64-nacl/4.4.3/../../../../x86_64-nacl/lib/../lib64/libstdc++.a(tree.o)
 .bss           0x0000000010031e20        0x0 /Users/stevefar/nacl_sdk/pepper_45/toolchain/mac_x86_newlib/bin/../lib/gcc/x86_64-nacl/4.4.3/../../../../x86_64-nacl/lib/../lib64/libstdc++.a(string-inst.o)
 .bss._ZNSs4_Rep20_S_empty_rep_storageE
                0x0000000010031e20       0x10 /Users/stevefar/nacl_sdk/pepper_45/toolchain/mac_x86_newlib/bin/../lib/gcc/x86_64-nacl/4.4.3/../../../../x86_64-nacl/lib/../lib64/libstdc++.a(string-inst.o)
                0x0000000010031e20                _ZNSs4_Rep20_S_empty_rep_storageE
 .bss           0x0000000010031e30        0x0 /Users/stevefar/nacl_sdk/pepper_45/toolchain/mac_x86_newlib/bin/../lib/gcc/x86_64-nacl/4.4.3/../../../../x86_64-nacl/lib/../lib64/libstdc++.a(class_type_info.o)
 .bss           0x0000000010031e30        0x0 /Users/stevefar/nacl_sdk/pepper_45/toolchain/mac_x86_newlib/bin/../lib/gcc/x86_64-nacl/4.4.3/../../../../x86_64-nacl/lib/../lib64/libstdc++.a(del_op.o)
 .bss           0x0000000010031e30        0x0 /Users/stevefar/nacl_sdk/pepper_45/toolchain/mac_x86_newlib/bin/../lib/gcc/x86_64-nacl/4.4.3/../../../../x86_64-nacl/lib/../lib64/libstdc++.a(eh_catch.o)
 .bss           0x0000000010031e30        0x0 /Users/stevefar/nacl_sdk/pepper_45/toolchain/mac_x86_newlib/bin/../lib/gcc/x86_64-nacl/4.4.3/../../../../x86_64-nacl/lib/../lib64/libstdc++.a(eh_globals.o)
 .bss._ZL4init  0x0000000010031e30        0x8 /Users/stevefar/nacl_sdk/pepper_45/toolchain/mac_x86_newlib/bin/../lib/gcc/x86_64-nacl/4.4.3/../../../../x86_64-nacl/lib/../lib64/libstdc++.a(eh_globals.o)
 .bss._ZL10eh_globals
                0x0000000010031e38        0x8 /Users/stevefar/nacl_sdk/pepper_45/toolchain/mac_x86_newlib/bin/../lib/gcc/x86_64-nacl/4.4.3/../../../../x86_64-nacl/lib/../lib64/libstdc++.a(eh_globals.o)
 .bss           0x0000000010031e40        0x0 /Users/stevefar/nacl_sdk/pepper_45/toolchain/mac_x86_newlib/bin/../lib/gcc/x86_64-nacl/4.4.3/../../../../x86_64-nacl/lib/../lib64/libstdc++.a(eh_personality.o)
 .bss           0x0000000010031e40        0x0 /Users/stevefar/nacl_sdk/pepper_45/toolchain/mac_x86_newlib/bin/../lib/gcc/x86_64-nacl/4.4.3/../../../../x86_64-nacl/lib/../lib64/libstdc++.a(eh_terminate.o)
 .bss           0x0000000010031e40        0x0 /Users/stevefar/nacl_sdk/pepper_45/toolchain/mac_x86_newlib/bin/../lib/gcc/x86_64-nacl/4.4.3/../../../../x86_64-nacl/lib/../lib64/libstdc++.a(eh_throw.o)
 .bss           0x0000000010031e40        0x0 /Users/stevefar/nacl_sdk/pepper_45/toolchain/mac_x86_newlib/bin/../lib/gcc/x86_64-nacl/4.4.3/../../../../x86_64-nacl/lib/../lib64/libstdc++.a(eh_unex_handler.o)
 .bss           0x0000000010031e40        0x0 /Users/stevefar/nacl_sdk/pepper_45/toolchain/mac_x86_newlib/bin/../lib/gcc/x86_64-nacl/4.4.3/../../../../x86_64-nacl/lib/../lib64/libstdc++.a(guard.o)
 .bss._ZN12_GLOBAL__N_1L12static_mutexE
                0x0000000010031e40        0x4 /Users/stevefar/nacl_sdk/pepper_45/toolchain/mac_x86_newlib/bin/../lib/gcc/x86_64-nacl/4.4.3/../../../../x86_64-nacl/lib/../lib64/libstdc++.a(guard.o)
 *fill*         0x0000000010031e44        0xc 
 .bss._ZN12_GLOBAL__N_110fake_mutexE
                0x0000000010031e50       0x14 /Users/stevefar/nacl_sdk/pepper_45/toolchain/mac_x86_newlib/bin/../lib/gcc/x86_64-nacl/4.4.3/../../../../x86_64-nacl/lib/../lib64/libstdc++.a(guard.o)
 .bss           0x0000000010031e64        0x0 /Users/stevefar/nacl_sdk/pepper_45/toolchain/mac_x86_newlib/bin/../lib/gcc/x86_64-nacl/4.4.3/../../../../x86_64-nacl/lib/../lib64/libstdc++.a(new_op.o)
 .bss           0x0000000010031e64        0x0 /Users/stevefar/nacl_sdk/pepper_45/toolchain/mac_x86_newlib/bin/../lib/gcc/x86_64-nacl/4.4.3/../../../../x86_64-nacl/lib/../lib64/libstdc++.a(pure.o)
 .bss           0x0000000010031e64        0x0 /Users/stevefar/nacl_sdk/pepper_45/toolchain/mac_x86_newlib/bin/../lib/gcc/x86_64-nacl/4.4.3/../../../../x86_64-nacl/lib/../lib64/libstdc++.a(si_class_type_info.o)
 .bss           0x0000000010031e64        0x0 /Users/stevefar/nacl_sdk/pepper_45/toolchain/mac_x86_newlib/bin/../lib/gcc/x86_64-nacl/4.4.3/../../../../x86_64-nacl/lib/../lib64/libstdc++.a(tinfo.o)
 .bss           0x0000000010031e64        0x0 /Users/stevefar/nacl_sdk/pepper_45/toolchain/mac_x86_newlib/bin/../lib/gcc/x86_64-nacl/4.4.3/../../../../x86_64-nacl/lib/../lib64/libstdc++.a(functexcept.o)
 .bss           0x0000000010031e64        0x0 /Users/stevefar/nacl_sdk/pepper_45/toolchain/mac_x86_newlib/bin/../lib/gcc/x86_64-nacl/4.4.3/../../../../x86_64-nacl/lib/../lib64/libstdc++.a(ios_failure.o)
 .bss           0x0000000010031e64        0x0 /Users/stevefar/nacl_sdk/pepper_45/toolchain/mac_x86_newlib/bin/../lib/gcc/x86_64-nacl/4.4.3/../../../../x86_64-nacl/lib/../lib64/libstdc++.a(stdexcept.o)
 .bss           0x0000000010031e64        0x0 /Users/stevefar/nacl_sdk/pepper_45/toolchain/mac_x86_newlib/bin/../lib/gcc/x86_64-nacl/4.4.3/../../../../x86_64-nacl/lib/../lib64/libstdc++.a(system_error.o)
 .bss._ZN12_GLOBAL__N_1L25generic_category_instanceE
                0x0000000010031e64        0x4 /Users/stevefar/nacl_sdk/pepper_45/toolchain/mac_x86_newlib/bin/../lib/gcc/x86_64-nacl/4.4.3/../../../../x86_64-nacl/lib/../lib64/libstdc++.a(system_error.o)
 .bss._ZN12_GLOBAL__N_1L24system_category_instanceE
                0x0000000010031e68        0x4 /Users/stevefar/nacl_sdk/pepper_45/toolchain/mac_x86_newlib/bin/../lib/gcc/x86_64-nacl/4.4.3/../../../../x86_64-nacl/lib/../lib64/libstdc++.a(system_error.o)
 .bss           0x0000000010031e6c        0x0 /Users/stevefar/nacl_sdk/pepper_45/toolchain/mac_x86_newlib/bin/../lib/gcc/x86_64-nacl/4.4.3/../../../../x86_64-nacl/lib/../lib64/libstdc++.a(bad_cast.o)
 .bss           0x0000000010031e6c        0x0 /Users/stevefar/nacl_sdk/pepper_45/toolchain/mac_x86_newlib/bin/../lib/gcc/x86_64-nacl/4.4.3/../../../../x86_64-nacl/lib/../lib64/libstdc++.a(bad_typeid.o)
 .bss           0x0000000010031e6c        0x0 /Users/stevefar/nacl_sdk/pepper_45/toolchain/mac_x86_newlib/bin/../lib/gcc/x86_64-nacl/4.4.3/../../../../x86_64-nacl/lib/../lib64/libstdc++.a(eh_alloc.o)
 *fill*         0x0000000010031e6c        0x4 
 .bss._ZN12_GLOBAL__N_115emergency_mutexE
                0x0000000010031e70       0x14 /Users/stevefar/nacl_sdk/pepper_45/toolchain/mac_x86_newlib/bin/../lib/gcc/x86_64-nacl/4.4.3/../../../../x86_64-nacl/lib/../lib64/libstdc++.a(eh_alloc.o)
 *fill*         0x0000000010031e84       0x1c 
 .bss._ZL17dependents_buffer
                0x0000000010031ea0      0xa00 /Users/stevefar/nacl_sdk/pepper_45/toolchain/mac_x86_newlib/bin/../lib/gcc/x86_64-nacl/4.4.3/../../../../x86_64-nacl/lib/../lib64/libstdc++.a(eh_alloc.o)
 .bss._ZL15dependents_used
                0x00000000100328a0        0x4 /Users/stevefar/nacl_sdk/pepper_45/toolchain/mac_x86_newlib/bin/../lib/gcc/x86_64-nacl/4.4.3/../../../../x86_64-nacl/lib/../lib64/libstdc++.a(eh_alloc.o)
 *fill*         0x00000000100328a4       0x1c 
 .bss._ZL16emergency_buffer
                0x00000000100328c0     0x4000 /Users/stevefar/nacl_sdk/pepper_45/toolchain/mac_x86_newlib/bin/../lib/gcc/x86_64-nacl/4.4.3/../../../../x86_64-nacl/lib/../lib64/libstdc++.a(eh_alloc.o)
 .bss._ZL14emergency_used
                0x00000000100368c0        0x4 /Users/stevefar/nacl_sdk/pepper_45/toolchain/mac_x86_newlib/bin/../lib/gcc/x86_64-nacl/4.4.3/../../../../x86_64-nacl/lib/../lib64/libstdc++.a(eh_alloc.o)
 .bss           0x00000000100368c4        0x0 /Users/stevefar/nacl_sdk/pepper_45/toolchain/mac_x86_newlib/bin/../lib/gcc/x86_64-nacl/4.4.3/../../../../x86_64-nacl/lib/../lib64/libstdc++.a(eh_call.o)
 .bss           0x00000000100368c4        0x0 /Users/stevefar/nacl_sdk/pepper_45/toolchain/mac_x86_newlib/bin/../lib/gcc/x86_64-nacl/4.4.3/../../../../x86_64-nacl/lib/../lib64/libstdc++.a(eh_exception.o)
 .bss           0x00000000100368c4        0x0 /Users/stevefar/nacl_sdk/pepper_45/toolchain/mac_x86_newlib/bin/../lib/gcc/x86_64-nacl/4.4.3/../../../../x86_64-nacl/lib/../lib64/libstdc++.a(eh_term_handler.o)
 .bss           0x00000000100368c4        0x0 /Users/stevefar/nacl_sdk/pepper_45/toolchain/mac_x86_newlib/bin/../lib/gcc/x86_64-nacl/4.4.3/../../../../x86_64-nacl/lib/../lib64/libstdc++.a(new_handler.o)
 .bss.__new_handler
                0x00000000100368c4        0x4 /Users/stevefar/nacl_sdk/pepper_45/toolchain/mac_x86_newlib/bin/../lib/gcc/x86_64-nacl/4.4.3/../../../../x86_64-nacl/lib/../lib64/libstdc++.a(new_handler.o)
                0x00000000100368c4                __new_handler
 .bss           0x00000000100368c8        0x0 /Users/stevefar/nacl_sdk/pepper_45/toolchain/mac_x86_newlib/bin/../lib/gcc/x86_64-nacl/4.4.3/../../../../x86_64-nacl/lib/../lib64/libstdc++.a(vterminate.o)
 .bss._ZZN9__gnu_cxx27__verbose_terminate_handlerEvE11terminating
                0x00000000100368c8        0x1 /Users/stevefar/nacl_sdk/pepper_45/toolchain/mac_x86_newlib/bin/../lib/gcc/x86_64-nacl/4.4.3/../../../../x86_64-nacl/lib/../lib64/libstdc++.a(vterminate.o)
 *fill*         0x00000000100368c9        0x3 
 .bss           0x00000000100368cc        0x0 /Users/stevefar/nacl_sdk/pepper_45/toolchain/mac_x86_newlib/bin/../lib/gcc/x86_64-nacl/4.4.3/../../../../x86_64-nacl/lib/../lib64/libstdc++.a(cp-demangle.o)
 .bss           0x00000000100368cc        0x0 /Users/stevefar/nacl_sdk/pepper_45/toolchain/mac_x86_newlib/bin/../lib/gcc/x86_64-nacl/4.4.3/../../../../x86_64-nacl/lib/../lib64/libstdc++.a(eh_type.o)
 *fill*         0x00000000100368cc        0x4 
 .bss           0x00000000100368d0       0x12 /Users/stevefar/nacl_sdk/pepper_45/toolchain/mac_x86_newlib/bin/../lib/gcc/x86_64-nacl/4.4.3/libgcc.a(unwind-dw2.o)
 *fill*         0x00000000100368e2        0x2 
 .bss           0x00000000100368e4        0xc /Users/stevefar/nacl_sdk/pepper_45/toolchain/mac_x86_newlib/bin/../lib/gcc/x86_64-nacl/4.4.3/libgcc.a(unwind-dw2-fde-glibc.o)
 .bss           0x00000000100368f0        0x0 /Users/stevefar/nacl_sdk/pepper_45/toolchain/mac_x86_newlib/bin/../lib/gcc/x86_64-nacl/4.4.3/../../../../x86_64-nacl/lib/../lib64/libnacl.a(_exit_710c7d0d.o)
 .bss           0x00000000100368f0        0x0 /Users/stevefar/nacl_sdk/pepper_45/toolchain/mac_x86_newlib/bin/../lib/gcc/x86_64-nacl/4.4.3/../../../../x86_64-nacl/lib/../lib64/libnacl.a(abort_9f6b5845.o)
 .bss           0x00000000100368f0        0x4 /Users/stevefar/nacl_sdk/pepper_45/toolchain/mac_x86_newlib/bin/../lib/gcc/x86_64-nacl/4.4.3/../../../../x86_64-nacl/lib/../lib64/libnacl.a(environ_25cd24d8.o)
 *fill*         0x00000000100368f4        0xc 
 .bss           0x0000000010036900      0x21c /Users/stevefar/nacl_sdk/pepper_45/toolchain/mac_x86_newlib/bin/../lib/gcc/x86_64-nacl/4.4.3/../../../../x86_64-nacl/lib/../lib64/libnacl.a(malloc_222c4a1e.o)
 .bss           0x0000000010036b1c        0x0 /Users/stevefar/nacl_sdk/pepper_45/toolchain/mac_x86_newlib/bin/../lib/gcc/x86_64-nacl/4.4.3/../../../../x86_64-nacl/lib/../lib64/libnacl.a(nacl_irt_6de1d53f.o)
 .bss           0x0000000010036b1c        0x0 /Users/stevefar/nacl_sdk/pepper_45/toolchain/mac_x86_newlib/bin/../lib/gcc/x86_64-nacl/4.4.3/../../../../x86_64-nacl/lib/../lib64/libnacl.a(pthread_initialize_minimal_4b6e776b.o)
 .bss           0x0000000010036b1c        0x0 /Users/stevefar/nacl_sdk/pepper_45/toolchain/mac_x86_newlib/bin/../lib/gcc/x86_64-nacl/4.4.3/../../../../x86_64-nacl/lib/../lib64/libnacl.a(nacl_read_tp_5748ac47.o)
 .bss           0x0000000010036b1c        0x0 /Users/stevefar/nacl_sdk/pepper_45/toolchain/mac_x86_newlib/bin/../lib/gcc/x86_64-nacl/4.4.3/../../../../x86_64-nacl/lib/../lib64/libnacl.a(nacl_add_tp_7312c7c4.o)
 .bss           0x0000000010036b1c        0x0 /Users/stevefar/nacl_sdk/pepper_45/toolchain/mac_x86_newlib/bin/../lib/gcc/x86_64-nacl/4.4.3/../../../../x86_64-nacl/lib/../lib64/libnacl.a(mmap_767fb080.o)
 .bss           0x0000000010036b1c        0x0 /Users/stevefar/nacl_sdk/pepper_45/toolchain/mac_x86_newlib/bin/../lib/gcc/x86_64-nacl/4.4.3/../../../../x86_64-nacl/lib/../lib64/libnacl.a(sched_yield_56c375be.o)
 .bss           0x0000000010036b1c        0x0 /Users/stevefar/nacl_sdk/pepper_45/toolchain/mac_x86_newlib/bin/../lib/gcc/x86_64-nacl/4.4.3/../../../../x86_64-nacl/lib/../lib64/libnacl.a(start_fa9ef7de.o)
 .bss           0x0000000010036b1c        0x0 /Users/stevefar/nacl_sdk/pepper_45/toolchain/mac_x86_newlib/bin/../lib/gcc/x86_64-nacl/4.4.3/../../../../x86_64-nacl/lib/../lib64/libnacl.a(munmap_d4f09867.o)
 *fill*         0x0000000010036b1c        0x4 
 .bss           0x0000000010036b20       0x10 /Users/stevefar/nacl_sdk/pepper_45/toolchain/mac_x86_newlib/bin/../lib/gcc/x86_64-nacl/4.4.3/../../../../x86_64-nacl/lib/../lib64/libnacl.a(tls_bba1975b.o)
 .bss           0x0000000010036b30        0x0 /Users/stevefar/nacl_sdk/pepper_45/toolchain/mac_x86_newlib/bin/../lib/gcc/x86_64-nacl/4.4.3/../../../../x86_64-nacl/lib/../lib64/libnacl.a(write_fb49787f.o)
 .bss           0x0000000010036b30        0x0 /Users/stevefar/nacl_sdk/pepper_45/toolchain/mac_x86_newlib/bin/../lib/gcc/x86_64-nacl/4.4.3/../../../../x86_64-nacl/lib/../lib64/libnacl.a(nacl_tls_get_d2f842b5.o)
 .bss           0x0000000010036b30        0x0 /Users/stevefar/nacl_sdk/pepper_45/toolchain/mac_x86_newlib/bin/../lib/gcc/x86_64-nacl/4.4.3/../../../../x86_64-nacl/lib/../lib64/libnacl.a(nacl_irt_init_7b4f826e.o)
 .bss           0x0000000010036b30        0x0 /Users/stevefar/nacl_sdk/pepper_45/toolchain/mac_x86_newlib/bin/../lib/gcc/x86_64-nacl/4.4.3/../../../../x86_64-nacl/lib/../lib64/libnacl.a(sysconf_ad295ea2.o)
 .bss           0x0000000010036b30        0x0 /Users/stevefar/nacl_sdk/pepper_45/toolchain/mac_x86_newlib/bin/../lib/gcc/x86_64-nacl/4.4.3/../../../../x86_64-nacl/lib/../lib64/libnacl.a(nacl_tls_init_eb0cd232.o)
 .bss           0x0000000010036b30        0x0 /Users/stevefar/nacl_sdk/pepper_45/toolchain/mac_x86_newlib/bin/../lib/gcc/x86_64-nacl/4.4.3/../../../../x86_64-nacl/lib/../lib64/libcrt_common.a(lib_a-atexit.o)
 .bss           0x0000000010036b30        0x0 /Users/stevefar/nacl_sdk/pepper_45/toolchain/mac_x86_newlib/bin/../lib/gcc/x86_64-nacl/4.4.3/../../../../x86_64-nacl/lib/../lib64/libcrt_common.a(lib_a-cxa_atexit.o)
 .bss           0x0000000010036b30        0x0 /Users/stevefar/nacl_sdk/pepper_45/toolchain/mac_x86_newlib/bin/../lib/gcc/x86_64-nacl/4.4.3/../../../../x86_64-nacl/lib/../lib64/libcrt_common.a(lib_a-errno.o)
 .bss           0x0000000010036b30        0x0 /Users/stevefar/nacl_sdk/pepper_45/toolchain/mac_x86_newlib/bin/../lib/gcc/x86_64-nacl/4.4.3/../../../../x86_64-nacl/lib/../lib64/libcrt_common.a(lib_a-exit.o)
 .bss           0x0000000010036b30        0x0 /Users/stevefar/nacl_sdk/pepper_45/toolchain/mac_x86_newlib/bin/../lib/gcc/x86_64-nacl/4.4.3/../../../../x86_64-nacl/lib/../lib64/libcrt_common.a(lib_a-fini.o)
 .bss           0x0000000010036b30        0x0 /Users/stevefar/nacl_sdk/pepper_45/toolchain/mac_x86_newlib/bin/../lib/gcc/x86_64-nacl/4.4.3/../../../../x86_64-nacl/lib/../lib64/libcrt_common.a(lib_a-fprintf.o)
 .bss           0x0000000010036b30        0x0 /Users/stevefar/nacl_sdk/pepper_45/toolchain/mac_x86_newlib/bin/../lib/gcc/x86_64-nacl/4.4.3/../../../../x86_64-nacl/lib/../lib64/libcrt_common.a(lib_a-fputc.o)
 .bss           0x0000000010036b30        0x0 /Users/stevefar/nacl_sdk/pepper_45/toolchain/mac_x86_newlib/bin/../lib/gcc/x86_64-nacl/4.4.3/../../../../x86_64-nacl/lib/../lib64/libcrt_common.a(lib_a-fputs.o)
 .bss           0x0000000010036b30        0x0 /Users/stevefar/nacl_sdk/pepper_45/toolchain/mac_x86_newlib/bin/../lib/gcc/x86_64-nacl/4.4.3/../../../../x86_64-nacl/lib/../lib64/libcrt_common.a(lib_a-fvwrite.o)
 .bss           0x0000000010036b30        0x0 /Users/stevefar/nacl_sdk/pepper_45/toolchain/mac_x86_newlib/bin/../lib/gcc/x86_64-nacl/4.4.3/../../../../x86_64-nacl/lib/../lib64/libcrt_common.a(lib_a-fwrite.o)
 .bss           0x0000000010036b30        0x0 /Users/stevefar/nacl_sdk/pepper_45/toolchain/mac_x86_newlib/bin/../lib/gcc/x86_64-nacl/4.4.3/../../../../x86_64-nacl/lib/../lib64/libcrt_common.a(lib_a-getenv.o)
 .bss           0x0000000010036b30        0x0 /Users/stevefar/nacl_sdk/pepper_45/toolchain/mac_x86_newlib/bin/../lib/gcc/x86_64-nacl/4.4.3/../../../../x86_64-nacl/lib/../lib64/libcrt_common.a(lib_a-getenv_r.o)
 .bss           0x0000000010036b30        0x0 /Users/stevefar/nacl_sdk/pepper_45/toolchain/mac_x86_newlib/bin/../lib/gcc/x86_64-nacl/4.4.3/../../../../x86_64-nacl/lib/../lib64/libcrt_common.a(lib_a-impure.o)
 .bss           0x0000000010036b30        0x0 /Users/stevefar/nacl_sdk/pepper_45/toolchain/mac_x86_newlib/bin/../lib/gcc/x86_64-nacl/4.4.3/../../../../x86_64-nacl/lib/../lib64/libcrt_common.a(lib_a-init.o)
 .bss           0x0000000010036b30        0x0 /Users/stevefar/nacl_sdk/pepper_45/toolchain/mac_x86_newlib/bin/../lib/gcc/x86_64-nacl/4.4.3/../../../../x86_64-nacl/lib/../lib64/libcrt_common.a(lib_a-memchr.o)
 .bss           0x0000000010036b30        0x0 /Users/stevefar/nacl_sdk/pepper_45/toolchain/mac_x86_newlib/bin/../lib/gcc/x86_64-nacl/4.4.3/../../../../x86_64-nacl/lib/../lib64/libcrt_common.a(lib_a-memcpy.o)
 .bss           0x0000000010036b30        0x0 /Users/stevefar/nacl_sdk/pepper_45/toolchain/mac_x86_newlib/bin/../lib/gcc/x86_64-nacl/4.4.3/../../../../x86_64-nacl/lib/../lib64/libcrt_common.a(lib_a-memmove.o)
 .bss           0x0000000010036b30        0x0 /Users/stevefar/nacl_sdk/pepper_45/toolchain/mac_x86_newlib/bin/../lib/gcc/x86_64-nacl/4.4.3/../../../../x86_64-nacl/lib/../lib64/libcrt_common.a(lib_a-memset.o)
 .bss           0x0000000010036b30        0x0 /Users/stevefar/nacl_sdk/pepper_45/toolchain/mac_x86_newlib/bin/../lib/gcc/x86_64-nacl/4.4.3/../../../../x86_64-nacl/lib/../lib64/libcrt_common.a(lib_a-putc.o)
 .bss           0x0000000010036b30        0x0 /Users/stevefar/nacl_sdk/pepper_45/toolchain/mac_x86_newlib/bin/../lib/gcc/x86_64-nacl/4.4.3/../../../../x86_64-nacl/lib/../lib64/libcrt_common.a(lib_a-snprintf.o)
 .bss           0x0000000010036b30        0x0 /Users/stevefar/nacl_sdk/pepper_45/toolchain/mac_x86_newlib/bin/../lib/gcc/x86_64-nacl/4.4.3/../../../../x86_64-nacl/lib/../lib64/libcrt_common.a(lib_a-sprintf.o)
 .bss           0x0000000010036b30        0x0 /Users/stevefar/nacl_sdk/pepper_45/toolchain/mac_x86_newlib/bin/../lib/gcc/x86_64-nacl/4.4.3/../../../../x86_64-nacl/lib/../lib64/libcrt_common.a(lib_a-strcpy.o)
 .bss           0x0000000010036b30        0x0 /Users/stevefar/nacl_sdk/pepper_45/toolchain/mac_x86_newlib/bin/../lib/gcc/x86_64-nacl/4.4.3/../../../../x86_64-nacl/lib/../lib64/libcrt_common.a(lib_a-strerror.o)
 .bss           0x0000000010036b30        0x0 /Users/stevefar/nacl_sdk/pepper_45/toolchain/mac_x86_newlib/bin/../lib/gcc/x86_64-nacl/4.4.3/../../../../x86_64-nacl/lib/../lib64/libcrt_common.a(lib_a-strlen.o)
 .bss           0x0000000010036b30        0x0 /Users/stevefar/nacl_sdk/pepper_45/toolchain/mac_x86_newlib/bin/../lib/gcc/x86_64-nacl/4.4.3/../../../../x86_64-nacl/lib/../lib64/libcrt_common.a(lib_a-strncmp.o)
 .bss           0x0000000010036b30        0x0 /Users/stevefar/nacl_sdk/pepper_45/toolchain/mac_x86_newlib/bin/../lib/gcc/x86_64-nacl/4.4.3/../../../../x86_64-nacl/lib/../lib64/libcrt_common.a(lib_a-svfprintf.o)
 .bss           0x0000000010036b30        0x0 /Users/stevefar/nacl_sdk/pepper_45/toolchain/mac_x86_newlib/bin/../lib/gcc/x86_64-nacl/4.4.3/../../../../x86_64-nacl/lib/../lib64/libcrt_common.a(lib_a-u_strerr.o)
 .bss           0x0000000010036b30        0x0 /Users/stevefar/nacl_sdk/pepper_45/toolchain/mac_x86_newlib/bin/../lib/gcc/x86_64-nacl/4.4.3/../../../../x86_64-nacl/lib/../lib64/libcrt_common.a(lib_a-vfprintf.o)
 .bss           0x0000000010036b30        0x0 /Users/stevefar/nacl_sdk/pepper_45/toolchain/mac_x86_newlib/bin/../lib/gcc/x86_64-nacl/4.4.3/../../../../x86_64-nacl/lib/../lib64/libcrt_common.a(lib_a-wbuf.o)
 .bss           0x0000000010036b30        0x0 /Users/stevefar/nacl_sdk/pepper_45/toolchain/mac_x86_newlib/bin/../lib/gcc/x86_64-nacl/4.4.3/../../../../x86_64-nacl/lib/../lib64/libcrt_common.a(lib_a-wcrtomb.o)
 .bss           0x0000000010036b30        0x0 /Users/stevefar/nacl_sdk/pepper_45/toolchain/mac_x86_newlib/bin/../lib/gcc/x86_64-nacl/4.4.3/../../../../x86_64-nacl/lib/../lib64/libcrt_common.a(lib_a-wcsrtombs.o)
 .bss           0x0000000010036b30        0x0 /Users/stevefar/nacl_sdk/pepper_45/toolchain/mac_x86_newlib/bin/../lib/gcc/x86_64-nacl/4.4.3/../../../../x86_64-nacl/lib/../lib64/libcrt_common.a(lib_a-wctomb_r.o)
 .bss           0x0000000010036b30        0x0 /Users/stevefar/nacl_sdk/pepper_45/toolchain/mac_x86_newlib/bin/../lib/gcc/x86_64-nacl/4.4.3/../../../../x86_64-nacl/lib/../lib64/libcrt_common.a(lib_a-wsetup.o)
 .bss           0x0000000010036b30        0x0 /Users/stevefar/nacl_sdk/pepper_45/toolchain/mac_x86_newlib/bin/../lib/gcc/x86_64-nacl/4.4.3/../../../../x86_64-nacl/lib/../lib64/libcrt_common.a(lib_a-__atexit.o)
 .bss           0x0000000010036b30        0x0 /Users/stevefar/nacl_sdk/pepper_45/toolchain/mac_x86_newlib/bin/../lib/gcc/x86_64-nacl/4.4.3/../../../../x86_64-nacl/lib/../lib64/libcrt_common.a(lib_a-__call_atexit.o)
 .bss           0x0000000010036b30        0x0 /Users/stevefar/nacl_sdk/pepper_45/toolchain/mac_x86_newlib/bin/../lib/gcc/x86_64-nacl/4.4.3/../../../../x86_64-nacl/lib/../lib64/libcrt_common.a(lib_a-dtoa.o)
 .bss           0x0000000010036b30        0x0 /Users/stevefar/nacl_sdk/pepper_45/toolchain/mac_x86_newlib/bin/../lib/gcc/x86_64-nacl/4.4.3/../../../../x86_64-nacl/lib/../lib64/libcrt_common.a(lib_a-envlock.o)
 .bss           0x0000000010036b30        0x0 /Users/stevefar/nacl_sdk/pepper_45/toolchain/mac_x86_newlib/bin/../lib/gcc/x86_64-nacl/4.4.3/../../../../x86_64-nacl/lib/../lib64/libcrt_common.a(lib_a-fflush.o)
 .bss           0x0000000010036b30        0x0 /Users/stevefar/nacl_sdk/pepper_45/toolchain/mac_x86_newlib/bin/../lib/gcc/x86_64-nacl/4.4.3/../../../../x86_64-nacl/lib/../lib64/libcrt_common.a(lib_a-findfp.o)
 .bss           0x0000000010036b30        0x0 /Users/stevefar/nacl_sdk/pepper_45/toolchain/mac_x86_newlib/bin/../lib/gcc/x86_64-nacl/4.4.3/../../../../x86_64-nacl/lib/../lib64/libcrt_common.a(lib_a-fwalk.o)
 *fill*         0x0000000010036b30       0x10 
 .bss           0x0000000010036b40      0x2c7 /Users/stevefar/nacl_sdk/pepper_45/toolchain/mac_x86_newlib/bin/../lib/gcc/x86_64-nacl/4.4.3/../../../../x86_64-nacl/lib/../lib64/libcrt_common.a(lib_a-locale.o)
                0x0000000010036b40                __nlocale_changed
                0x0000000010036b44                __mlocale_changed
                0x0000000010036b48                _PathLocale
 *fill*         0x0000000010036e07        0x1 
 .bss           0x0000000010036e08        0x0 /Users/stevefar/nacl_sdk/pepper_45/toolchain/mac_x86_newlib/bin/../lib/gcc/x86_64-nacl/4.4.3/../../../../x86_64-nacl/lib/../lib64/libcrt_common.a(lib_a-makebuf.o)
 .bss           0x0000000010036e08        0x0 /Users/stevefar/nacl_sdk/pepper_45/toolchain/mac_x86_newlib/bin/../lib/gcc/x86_64-nacl/4.4.3/../../../../x86_64-nacl/lib/../lib64/libcrt_common.a(lib_a-mbtowc_r.o)
 .bss           0x0000000010036e08        0x0 /Users/stevefar/nacl_sdk/pepper_45/toolchain/mac_x86_newlib/bin/../lib/gcc/x86_64-nacl/4.4.3/../../../../x86_64-nacl/lib/../lib64/libcrt_common.a(lib_a-mprec.o)
 .bss           0x0000000010036e08        0x0 /Users/stevefar/nacl_sdk/pepper_45/toolchain/mac_x86_newlib/bin/../lib/gcc/x86_64-nacl/4.4.3/../../../../x86_64-nacl/lib/../lib64/libcrt_common.a(lib_a-s_fpclassify.o)
 .bss           0x0000000010036e08        0x0 /Users/stevefar/nacl_sdk/pepper_45/toolchain/mac_x86_newlib/bin/../lib/gcc/x86_64-nacl/4.4.3/../../../../x86_64-nacl/lib/../lib64/libcrt_common.a(lib_a-s_frexp.o)
 .bss           0x0000000010036e08        0x0 /Users/stevefar/nacl_sdk/pepper_45/toolchain/mac_x86_newlib/bin/../lib/gcc/x86_64-nacl/4.4.3/../../../../x86_64-nacl/lib/../lib64/libcrt_common.a(lib_a-stdio.o)
 .bss           0x0000000010036e08        0x0 /Users/stevefar/nacl_sdk/pepper_45/toolchain/mac_x86_newlib/bin/../lib/gcc/x86_64-nacl/4.4.3/../../../../x86_64-nacl/lib/../lib64/libcrt_common.a(lib_a-strcasecmp.o)
 .bss           0x0000000010036e08        0x0 /Users/stevefar/nacl_sdk/pepper_45/toolchain/mac_x86_newlib/bin/../lib/gcc/x86_64-nacl/4.4.3/../../../../x86_64-nacl/lib/../lib64/libcrt_common.a(lib_a-strcat.o)
 .bss           0x0000000010036e08        0x0 /Users/stevefar/nacl_sdk/pepper_45/toolchain/mac_x86_newlib/bin/../lib/gcc/x86_64-nacl/4.4.3/../../../../x86_64-nacl/lib/../lib64/libcrt_common.a(lib_a-strchr.o)
 .bss           0x0000000010036e08        0x0 /Users/stevefar/nacl_sdk/pepper_45/toolchain/mac_x86_newlib/bin/../lib/gcc/x86_64-nacl/4.4.3/../../../../x86_64-nacl/lib/../lib64/libcrt_common.a(lib_a-strcmp.o)
 .bss           0x0000000010036e08        0x0 /Users/stevefar/nacl_sdk/pepper_45/toolchain/mac_x86_newlib/bin/../lib/gcc/x86_64-nacl/4.4.3/../../../../x86_64-nacl/lib/../lib64/libcrt_common.a(lib_a-strlcpy.o)
 .bss           0x0000000010036e08        0x0 /Users/stevefar/nacl_sdk/pepper_45/toolchain/mac_x86_newlib/bin/../lib/gcc/x86_64-nacl/4.4.3/../../../../x86_64-nacl/lib/../lib64/libcrt_common.a(lib_a-strncasecmp.o)
 .bss           0x0000000010036e08        0x0 /Users/stevefar/nacl_sdk/pepper_45/toolchain/mac_x86_newlib/bin/../lib/gcc/x86_64-nacl/4.4.3/../../../../x86_64-nacl/lib/../lib64/libcrt_common.a(lib_a-strncpy.o)
 .bss           0x0000000010036e08        0x0 /Users/stevefar/nacl_sdk/pepper_45/toolchain/mac_x86_newlib/bin/../lib/gcc/x86_64-nacl/4.4.3/../../../../x86_64-nacl/lib/../lib64/libcrt_common.a(lib_a-strtol.o)
 .bss           0x0000000010036e08        0x0 /Users/stevefar/nacl_sdk/pepper_45/toolchain/mac_x86_newlib/bin/../lib/gcc/x86_64-nacl/4.4.3/../../../../x86_64-nacl/lib/../lib64/libcrt_common.a(lib_a-svfiprintf.o)
 .bss           0x0000000010036e08        0x0 /Users/stevefar/nacl_sdk/pepper_45/toolchain/mac_x86_newlib/bin/../lib/gcc/x86_64-nacl/4.4.3/../../../../x86_64-nacl/lib/../lib64/libcrt_common.a(lib_a-vfiprintf.o)
 .bss           0x0000000010036e08        0x0 /Users/stevefar/nacl_sdk/pepper_45/toolchain/mac_x86_newlib/bin/../lib/gcc/x86_64-nacl/4.4.3/../../../../x86_64-nacl/lib/../lib64/libcrt_common.a(lib_a-wcsnrtombs.o)
 .bss           0x0000000010036e08        0x0 /Users/stevefar/nacl_sdk/pepper_45/toolchain/mac_x86_newlib/bin/../lib/gcc/x86_64-nacl/4.4.3/../../../../x86_64-nacl/lib/../lib64/libcrt_common.a(lib_a-ctype_.o)
 .bss           0x0000000010036e08        0x0 /Users/stevefar/nacl_sdk/pepper_45/toolchain/mac_x86_newlib/bin/../lib/gcc/x86_64-nacl/4.4.3/../../../../x86_64-nacl/lib/../lib64/libcrt_common.a(lib_a-fclose.o)
 .bss           0x0000000010036e08        0x0 /Users/stevefar/nacl_sdk/pepper_45/toolchain/mac_x86_newlib/bin/../lib/gcc/x86_64-nacl/4.4.3/../../../../x86_64-nacl/lib/../lib64/libcrt_common.a(lib_a-fputwc.o)
 .bss           0x0000000010036e08        0x0 /Users/stevefar/nacl_sdk/pepper_45/toolchain/mac_x86_newlib/bin/../lib/gcc/x86_64-nacl/4.4.3/../../../../x86_64-nacl/lib/../lib64/libnacl.a(close_e9b92fbd.o)
 .bss           0x0000000010036e08        0x0 /Users/stevefar/nacl_sdk/pepper_45/toolchain/mac_x86_newlib/bin/../lib/gcc/x86_64-nacl/4.4.3/../../../../x86_64-nacl/lib/../lib64/libnacl.a(isatty_02f56e94.o)
 .bss           0x0000000010036e08        0x0 /Users/stevefar/nacl_sdk/pepper_45/toolchain/mac_x86_newlib/bin/../lib/gcc/x86_64-nacl/4.4.3/../../../../x86_64-nacl/lib/../lib64/libnacl.a(nacl_irt_fdio_b571b5e7.o)
 .bss           0x0000000010036e08        0x0 /Users/stevefar/nacl_sdk/pepper_45/toolchain/mac_x86_newlib/bin/../lib/gcc/x86_64-nacl/4.4.3/../../../../x86_64-nacl/lib/../lib64/libnacl.a(fstat_0540ff63.o)
 .bss           0x0000000010036e08        0x0 /Users/stevefar/nacl_sdk/pepper_45/toolchain/mac_x86_newlib/bin/../lib/gcc/x86_64-nacl/4.4.3/../../../../x86_64-nacl/lib/../lib64/libnacl.a(lseek_64d2d05c.o)
 .bss           0x0000000010036e08        0x0 /Users/stevefar/nacl_sdk/pepper_45/toolchain/mac_x86_newlib/bin/../lib/gcc/x86_64-nacl/4.4.3/../../../../x86_64-nacl/lib/../lib64/libnacl.a(read_df872e10.o)
 .bss           0x0000000010036e08        0x0 /Users/stevefar/nacl_sdk/pepper_45/toolchain/mac_x86_newlib/bin/../lib/gcc/x86_64-nacl/4.4.3/crtend.o
 .bss           0x0000000010036e08        0x0 /Users/stevefar/nacl_sdk/pepper_45/toolchain/mac_x86_newlib/bin/../lib/gcc/x86_64-nacl/4.4.3/../../../../x86_64-nacl/lib/../lib64/crtn.o
 *(COMMON)
 *fill*         0x0000000010036e08        0x8 
 COMMON         0x0000000010036e10       0x4c /Users/stevefar/nacl_sdk/pepper_45/toolchain/mac_x86_newlib/bin/../lib/gcc/x86_64-nacl/4.4.3/../../../../x86_64-nacl/lib/../lib64/libpthread.a(nc_thread_7e478b15.o)
                0x0000000010036e10                __nc_thread_initialized
                0x0000000010036e20                __nc_thread_management_lock
                0x0000000010036e34                __nc_memory_block_counter
                0x0000000010036e3c                __nc_initial_thread_id
                0x0000000010036e40                __nc_thread_memory_blocks
                0x0000000010036e50                __libnacl_irt_thread
 COMMON         0x0000000010036e5c        0x8 /Users/stevefar/nacl_sdk/pepper_45/toolchain/mac_x86_newlib/bin/../lib/gcc/x86_64-nacl/4.4.3/../../../../x86_64-nacl/lib/../lib64/libpthread.a(nc_init_irt_d3daafc0.o)
                0x0000000010036e5c                __libnacl_irt_futex
 *fill*         0x0000000010036e64       0x1c 
 COMMON         0x0000000010036e80       0xe4 /Users/stevefar/nacl_sdk/pepper_45/toolchain/mac_x86_newlib/bin/../lib/gcc/x86_64-nacl/4.4.3/../../../../x86_64-nacl/lib/../lib64/libnacl.a(nacl_irt_6de1d53f.o)
                0x0000000010036e80                __nacl_irt_query
                0x0000000010036ea0                __libnacl_irt_dev_filename
                0x0000000010036ee0                __libnacl_irt_clock
                0x0000000010036ee8                __libnacl_irt_memory
                0x0000000010036f00                __libnacl_irt_dev_fdio
                0x0000000010036f40                __libnacl_irt_basic
                0x0000000010036f58                __libnacl_irt_tls
                0x0000000010036f60                __libnacl_irt_dev_getpid
 COMMON         0x0000000010036f64        0x4 /Users/stevefar/nacl_sdk/pepper_45/toolchain/mac_x86_newlib/bin/../lib/gcc/x86_64-nacl/4.4.3/../../../../x86_64-nacl/lib/../lib64/libnacl.a(start_fa9ef7de.o)
                0x0000000010036f64                __nacl_initial_thread_stack_end
                0x0000000010036f68                . = ALIGN ((. != 0x0)?0x8:0x1)

.lbss
 *(.dynlbss)
 *(.lbss .lbss.* .gnu.linkonce.lb.*)
 *(LARGE_COMMON)
                0x0000000010036f68                . = ALIGN (0x8)
                0x0000000010036f68                . = SEGMENT_START ("ldata-segment", .)

.lrodata
 *(.lrodata .lrodata.* .gnu.linkonce.lr.*)

.ldata          0x0000000010056f68        0x0
 *(.ldata .ldata.* .gnu.linkonce.l.*)
                0x0000000010056f68                . = ALIGN ((. != 0x0)?0x8:0x1)
                0x0000000010056f68                . = ALIGN (0x8)
                0x0000000010056f68                _end = .
                0x0000000010056f68                PROVIDE (end, .)
                0x0000000010056f68                . = DATA_SEGMENT_END (.)

.stab
 *(.stab)

.stabstr
 *(.stabstr)

.stab.excl
 *(.stab.excl)

.stab.exclstr
 *(.stab.exclstr)

.stab.index
 *(.stab.index)

.stab.indexstr
 *(.stab.indexstr)

.comment        0x0000000000000000       0x88
 *(.comment)
 .comment       0x0000000000000000       0x88 /Users/stevefar/nacl_sdk/pepper_45/toolchain/mac_x86_newlib/bin/../lib/gcc/x86_64-nacl/4.4.3/crtbegin.o
                                         0x89 (size before relaxing)
 .comment       0x0000000000000000       0x89 newlib/Release/multi_platform_x86_64.o
 .comment       0x0000000000000000       0x89 /Users/stevefar/nacl_sdk/pepper_45/lib/newlib_x86_64/Release/libppapi_cpp.a(instance_x86_64.o)
 .comment       0x0000000000000000       0x89 /Users/stevefar/nacl_sdk/pepper_45/lib/newlib_x86_64/Release/libppapi_cpp.a(module_x86_64.o)
 .comment       0x0000000000000000       0x89 /Users/stevefar/nacl_sdk/pepper_45/lib/newlib_x86_64/Release/libppapi_cpp.a(ppp_entrypoints_x86_64.o)
 .comment       0x0000000000000000       0x89 /Users/stevefar/nacl_sdk/pepper_45/lib/newlib_x86_64/Release/libppapi_cpp.a(resource_x86_64.o)
 .comment       0x0000000000000000       0x89 /Users/stevefar/nacl_sdk/pepper_45/lib/newlib_x86_64/Release/libppapi_cpp.a(url_loader_x86_64.o)
 .comment       0x0000000000000000       0x89 /Users/stevefar/nacl_sdk/pepper_45/lib/newlib_x86_64/Release/libppapi_cpp.a(url_response_info_x86_64.o)
 .comment       0x0000000000000000       0x89 /Users/stevefar/nacl_sdk/pepper_45/lib/newlib_x86_64/Release/libppapi_cpp.a(var_x86_64.o)
 .comment       0x0000000000000000       0x89 /Users/stevefar/nacl_sdk/pepper_45/lib/newlib_x86_64/Release/libppapi_cpp.a(view_x86_64.o)
 .comment       0x0000000000000000       0x89 /Users/stevefar/nacl_sdk/pepper_45/lib/newlib_x86_64/Release/libppapi_cpp.a(core_x86_64.o)
 .comment       0x0000000000000000       0x89 /Users/stevefar/nacl_sdk/pepper_45/lib/newlib_x86_64/Release/libppapi_cpp.a(file_ref_x86_64.o)
 .comment       0x0000000000000000       0x89 /Users/stevefar/nacl_sdk/pepper_45/lib/newlib_x86_64/Release/libppapi_cpp.a(input_event_x86_64.o)
 .comment       0x0000000000000000       0x89 /Users/stevefar/nacl_sdk/pepper_45/toolchain/mac_x86_newlib/bin/../lib/gcc/x86_64-nacl/4.4.3/../../../../x86_64-nacl/lib/../lib64/libppapi_stub.a(plugin_main_irt_21ce9d26.o)
 .comment       0x0000000000000000       0x89 /Users/stevefar/nacl_sdk/pepper_45/toolchain/mac_x86_newlib/bin/../lib/gcc/x86_64-nacl/4.4.3/../../../../x86_64-nacl/lib/../lib64/libppapi_stub.a(ppapi_plugin_main_399d0cf7.o)
 .comment       0x0000000000000000       0x89 /Users/stevefar/nacl_sdk/pepper_45/toolchain/mac_x86_newlib/bin/../lib/gcc/x86_64-nacl/4.4.3/../../../../x86_64-nacl/lib/../lib64/libppapi_stub.a(ppapi_plugin_start_8da67623.o)
 .comment       0x0000000000000000       0x89 /Users/stevefar/nacl_sdk/pepper_45/toolchain/mac_x86_newlib/bin/../lib/gcc/x86_64-nacl/4.4.3/../../../../x86_64-nacl/lib/../lib64/libppapi_stub.a(thread_creator_ccf263e1.o)
 .comment       0x0000000000000000       0x89 /Users/stevefar/nacl_sdk/pepper_45/toolchain/mac_x86_newlib/bin/../lib/gcc/x86_64-nacl/4.4.3/../../../../x86_64-nacl/lib/../lib64/libpthread.a(nc_thread_7e478b15.o)
 .comment       0x0000000000000000       0x89 /Users/stevefar/nacl_sdk/pepper_45/toolchain/mac_x86_newlib/bin/../lib/gcc/x86_64-nacl/4.4.3/../../../../x86_64-nacl/lib/../lib64/libpthread.a(nc_condvar_305aa45a.o)
 .comment       0x0000000000000000       0x89 /Users/stevefar/nacl_sdk/pepper_45/toolchain/mac_x86_newlib/bin/../lib/gcc/x86_64-nacl/4.4.3/../../../../x86_64-nacl/lib/../lib64/libpthread.a(dynamic_annotations_33ba59cc.o)
 .comment       0x0000000000000000       0x89 /Users/stevefar/nacl_sdk/pepper_45/toolchain/mac_x86_newlib/bin/../lib/gcc/x86_64-nacl/4.4.3/../../../../x86_64-nacl/lib/../lib64/libpthread.a(nc_mutex_86341ae1.o)
 .comment       0x0000000000000000       0x89 /Users/stevefar/nacl_sdk/pepper_45/toolchain/mac_x86_newlib/bin/../lib/gcc/x86_64-nacl/4.4.3/../../../../x86_64-nacl/lib/../lib64/libpthread.a(nc_init_irt_d3daafc0.o)
 .comment       0x0000000000000000       0x89 /Users/stevefar/nacl_sdk/pepper_45/toolchain/mac_x86_newlib/bin/../lib/gcc/x86_64-nacl/4.4.3/../../../../x86_64-nacl/lib/../lib64/libstdc++.a(tree.o)
 .comment       0x0000000000000000       0x89 /Users/stevefar/nacl_sdk/pepper_45/toolchain/mac_x86_newlib/bin/../lib/gcc/x86_64-nacl/4.4.3/../../../../x86_64-nacl/lib/../lib64/libstdc++.a(string-inst.o)
 .comment       0x0000000000000000       0x89 /Users/stevefar/nacl_sdk/pepper_45/toolchain/mac_x86_newlib/bin/../lib/gcc/x86_64-nacl/4.4.3/../../../../x86_64-nacl/lib/../lib64/libstdc++.a(class_type_info.o)
 .comment       0x0000000000000000       0x89 /Users/stevefar/nacl_sdk/pepper_45/toolchain/mac_x86_newlib/bin/../lib/gcc/x86_64-nacl/4.4.3/../../../../x86_64-nacl/lib/../lib64/libstdc++.a(del_op.o)
 .comment       0x0000000000000000       0x89 /Users/stevefar/nacl_sdk/pepper_45/toolchain/mac_x86_newlib/bin/../lib/gcc/x86_64-nacl/4.4.3/../../../../x86_64-nacl/lib/../lib64/libstdc++.a(eh_catch.o)
 .comment       0x0000000000000000       0x89 /Users/stevefar/nacl_sdk/pepper_45/toolchain/mac_x86_newlib/bin/../lib/gcc/x86_64-nacl/4.4.3/../../../../x86_64-nacl/lib/../lib64/libstdc++.a(eh_globals.o)
 .comment       0x0000000000000000       0x89 /Users/stevefar/nacl_sdk/pepper_45/toolchain/mac_x86_newlib/bin/../lib/gcc/x86_64-nacl/4.4.3/../../../../x86_64-nacl/lib/../lib64/libstdc++.a(eh_personality.o)
 .comment       0x0000000000000000       0x89 /Users/stevefar/nacl_sdk/pepper_45/toolchain/mac_x86_newlib/bin/../lib/gcc/x86_64-nacl/4.4.3/../../../../x86_64-nacl/lib/../lib64/libstdc++.a(eh_terminate.o)
 .comment       0x0000000000000000       0x89 /Users/stevefar/nacl_sdk/pepper_45/toolchain/mac_x86_newlib/bin/../lib/gcc/x86_64-nacl/4.4.3/../../../../x86_64-nacl/lib/../lib64/libstdc++.a(eh_throw.o)
 .comment       0x0000000000000000       0x89 /Users/stevefar/nacl_sdk/pepper_45/toolchain/mac_x86_newlib/bin/../lib/gcc/x86_64-nacl/4.4.3/../../../../x86_64-nacl/lib/../lib64/libstdc++.a(eh_unex_handler.o)
 .comment       0x0000000000000000       0x89 /Users/stevefar/nacl_sdk/pepper_45/toolchain/mac_x86_newlib/bin/../lib/gcc/x86_64-nacl/4.4.3/../../../../x86_64-nacl/lib/../lib64/libstdc++.a(guard.o)
 .comment       0x0000000000000000       0x89 /Users/stevefar/nacl_sdk/pepper_45/toolchain/mac_x86_newlib/bin/../lib/gcc/x86_64-nacl/4.4.3/../../../../x86_64-nacl/lib/../lib64/libstdc++.a(new_op.o)
 .comment       0x0000000000000000       0x89 /Users/stevefar/nacl_sdk/pepper_45/toolchain/mac_x86_newlib/bin/../lib/gcc/x86_64-nacl/4.4.3/../../../../x86_64-nacl/lib/../lib64/libstdc++.a(pure.o)
 .comment       0x0000000000000000       0x89 /Users/stevefar/nacl_sdk/pepper_45/toolchain/mac_x86_newlib/bin/../lib/gcc/x86_64-nacl/4.4.3/../../../../x86_64-nacl/lib/../lib64/libstdc++.a(si_class_type_info.o)
 .comment       0x0000000000000000       0x89 /Users/stevefar/nacl_sdk/pepper_45/toolchain/mac_x86_newlib/bin/../lib/gcc/x86_64-nacl/4.4.3/../../../../x86_64-nacl/lib/../lib64/libstdc++.a(tinfo.o)
 .comment       0x0000000000000000       0x89 /Users/stevefar/nacl_sdk/pepper_45/toolchain/mac_x86_newlib/bin/../lib/gcc/x86_64-nacl/4.4.3/../../../../x86_64-nacl/lib/../lib64/libstdc++.a(functexcept.o)
 .comment       0x0000000000000000       0x89 /Users/stevefar/nacl_sdk/pepper_45/toolchain/mac_x86_newlib/bin/../lib/gcc/x86_64-nacl/4.4.3/../../../../x86_64-nacl/lib/../lib64/libstdc++.a(ios_failure.o)
 .comment       0x0000000000000000       0x89 /Users/stevefar/nacl_sdk/pepper_45/toolchain/mac_x86_newlib/bin/../lib/gcc/x86_64-nacl/4.4.3/../../../../x86_64-nacl/lib/../lib64/libstdc++.a(stdexcept.o)
 .comment       0x0000000000000000       0x89 /Users/stevefar/nacl_sdk/pepper_45/toolchain/mac_x86_newlib/bin/../lib/gcc/x86_64-nacl/4.4.3/../../../../x86_64-nacl/lib/../lib64/libstdc++.a(system_error.o)
 .comment       0x0000000000000000       0x89 /Users/stevefar/nacl_sdk/pepper_45/toolchain/mac_x86_newlib/bin/../lib/gcc/x86_64-nacl/4.4.3/../../../../x86_64-nacl/lib/../lib64/libstdc++.a(bad_cast.o)
 .comment       0x0000000000000000       0x89 /Users/stevefar/nacl_sdk/pepper_45/toolchain/mac_x86_newlib/bin/../lib/gcc/x86_64-nacl/4.4.3/../../../../x86_64-nacl/lib/../lib64/libstdc++.a(bad_typeid.o)
 .comment       0x0000000000000000       0x89 /Users/stevefar/nacl_sdk/pepper_45/toolchain/mac_x86_newlib/bin/../lib/gcc/x86_64-nacl/4.4.3/../../../../x86_64-nacl/lib/../lib64/libstdc++.a(eh_alloc.o)
 .comment       0x0000000000000000       0x89 /Users/stevefar/nacl_sdk/pepper_45/toolchain/mac_x86_newlib/bin/../lib/gcc/x86_64-nacl/4.4.3/../../../../x86_64-nacl/lib/../lib64/libstdc++.a(eh_call.o)
 .comment       0x0000000000000000       0x89 /Users/stevefar/nacl_sdk/pepper_45/toolchain/mac_x86_newlib/bin/../lib/gcc/x86_64-nacl/4.4.3/../../../../x86_64-nacl/lib/../lib64/libstdc++.a(eh_exception.o)
 .comment       0x0000000000000000       0x89 /Users/stevefar/nacl_sdk/pepper_45/toolchain/mac_x86_newlib/bin/../lib/gcc/x86_64-nacl/4.4.3/../../../../x86_64-nacl/lib/../lib64/libstdc++.a(eh_term_handler.o)
 .comment       0x0000000000000000       0x89 /Users/stevefar/nacl_sdk/pepper_45/toolchain/mac_x86_newlib/bin/../lib/gcc/x86_64-nacl/4.4.3/../../../../x86_64-nacl/lib/../lib64/libstdc++.a(new_handler.o)
 .comment       0x0000000000000000       0x89 /Users/stevefar/nacl_sdk/pepper_45/toolchain/mac_x86_newlib/bin/../lib/gcc/x86_64-nacl/4.4.3/../../../../x86_64-nacl/lib/../lib64/libstdc++.a(vterminate.o)
 .comment       0x0000000000000000       0x89 /Users/stevefar/nacl_sdk/pepper_45/toolchain/mac_x86_newlib/bin/../lib/gcc/x86_64-nacl/4.4.3/../../../../x86_64-nacl/lib/../lib64/libstdc++.a(cp-demangle.o)
 .comment       0x0000000000000000       0x89 /Users/stevefar/nacl_sdk/pepper_45/toolchain/mac_x86_newlib/bin/../lib/gcc/x86_64-nacl/4.4.3/../../../../x86_64-nacl/lib/../lib64/libstdc++.a(eh_type.o)
 .comment       0x0000000000000000       0x89 /Users/stevefar/nacl_sdk/pepper_45/toolchain/mac_x86_newlib/bin/../lib/gcc/x86_64-nacl/4.4.3/libgcc.a(unwind-dw2.o)
 .comment       0x0000000000000000       0x89 /Users/stevefar/nacl_sdk/pepper_45/toolchain/mac_x86_newlib/bin/../lib/gcc/x86_64-nacl/4.4.3/libgcc.a(unwind-dw2-fde-glibc.o)
 .comment       0x0000000000000000       0x89 /Users/stevefar/nacl_sdk/pepper_45/toolchain/mac_x86_newlib/bin/../lib/gcc/x86_64-nacl/4.4.3/../../../../x86_64-nacl/lib/../lib64/libnacl.a(_exit_710c7d0d.o)
 .comment       0x0000000000000000       0x89 /Users/stevefar/nacl_sdk/pepper_45/toolchain/mac_x86_newlib/bin/../lib/gcc/x86_64-nacl/4.4.3/../../../../x86_64-nacl/lib/../lib64/libnacl.a(abort_9f6b5845.o)
 .comment       0x0000000000000000       0x89 /Users/stevefar/nacl_sdk/pepper_45/toolchain/mac_x86_newlib/bin/../lib/gcc/x86_64-nacl/4.4.3/../../../../x86_64-nacl/lib/../lib64/libnacl.a(environ_25cd24d8.o)
 .comment       0x0000000000000000       0x89 /Users/stevefar/nacl_sdk/pepper_45/toolchain/mac_x86_newlib/bin/../lib/gcc/x86_64-nacl/4.4.3/../../../../x86_64-nacl/lib/../lib64/libnacl.a(malloc_222c4a1e.o)
 .comment       0x0000000000000000       0x89 /Users/stevefar/nacl_sdk/pepper_45/toolchain/mac_x86_newlib/bin/../lib/gcc/x86_64-nacl/4.4.3/../../../../x86_64-nacl/lib/../lib64/libnacl.a(nacl_irt_6de1d53f.o)
 .comment       0x0000000000000000       0x89 /Users/stevefar/nacl_sdk/pepper_45/toolchain/mac_x86_newlib/bin/../lib/gcc/x86_64-nacl/4.4.3/../../../../x86_64-nacl/lib/../lib64/libnacl.a(pthread_initialize_minimal_4b6e776b.o)
 .comment       0x0000000000000000       0x89 /Users/stevefar/nacl_sdk/pepper_45/toolchain/mac_x86_newlib/bin/../lib/gcc/x86_64-nacl/4.4.3/../../../../x86_64-nacl/lib/../lib64/libnacl.a(nacl_read_tp_5748ac47.o)
 .comment       0x0000000000000000       0x89 /Users/stevefar/nacl_sdk/pepper_45/toolchain/mac_x86_newlib/bin/../lib/gcc/x86_64-nacl/4.4.3/../../../../x86_64-nacl/lib/../lib64/libnacl.a(nacl_add_tp_7312c7c4.o)
 .comment       0x0000000000000000       0x89 /Users/stevefar/nacl_sdk/pepper_45/toolchain/mac_x86_newlib/bin/../lib/gcc/x86_64-nacl/4.4.3/../../../../x86_64-nacl/lib/../lib64/libnacl.a(mmap_767fb080.o)
 .comment       0x0000000000000000       0x89 /Users/stevefar/nacl_sdk/pepper_45/toolchain/mac_x86_newlib/bin/../lib/gcc/x86_64-nacl/4.4.3/../../../../x86_64-nacl/lib/../lib64/libnacl.a(sched_yield_56c375be.o)
 .comment       0x0000000000000000       0x89 /Users/stevefar/nacl_sdk/pepper_45/toolchain/mac_x86_newlib/bin/../lib/gcc/x86_64-nacl/4.4.3/../../../../x86_64-nacl/lib/../lib64/libnacl.a(start_fa9ef7de.o)
 .comment       0x0000000000000000       0x89 /Users/stevefar/nacl_sdk/pepper_45/toolchain/mac_x86_newlib/bin/../lib/gcc/x86_64-nacl/4.4.3/../../../../x86_64-nacl/lib/../lib64/libnacl.a(munmap_d4f09867.o)
 .comment       0x0000000000000000       0x89 /Users/stevefar/nacl_sdk/pepper_45/toolchain/mac_x86_newlib/bin/../lib/gcc/x86_64-nacl/4.4.3/../../../../x86_64-nacl/lib/../lib64/libnacl.a(tls_bba1975b.o)
 .comment       0x0000000000000000       0x89 /Users/stevefar/nacl_sdk/pepper_45/toolchain/mac_x86_newlib/bin/../lib/gcc/x86_64-nacl/4.4.3/../../../../x86_64-nacl/lib/../lib64/libnacl.a(write_fb49787f.o)
 .comment       0x0000000000000000       0x89 /Users/stevefar/nacl_sdk/pepper_45/toolchain/mac_x86_newlib/bin/../lib/gcc/x86_64-nacl/4.4.3/../../../../x86_64-nacl/lib/../lib64/libnacl.a(nacl_tls_get_d2f842b5.o)
 .comment       0x0000000000000000       0x89 /Users/stevefar/nacl_sdk/pepper_45/toolchain/mac_x86_newlib/bin/../lib/gcc/x86_64-nacl/4.4.3/../../../../x86_64-nacl/lib/../lib64/libnacl.a(nacl_irt_init_7b4f826e.o)
 .comment       0x0000000000000000       0x89 /Users/stevefar/nacl_sdk/pepper_45/toolchain/mac_x86_newlib/bin/../lib/gcc/x86_64-nacl/4.4.3/../../../../x86_64-nacl/lib/../lib64/libnacl.a(sysconf_ad295ea2.o)
 .comment       0x0000000000000000       0x89 /Users/stevefar/nacl_sdk/pepper_45/toolchain/mac_x86_newlib/bin/../lib/gcc/x86_64-nacl/4.4.3/../../../../x86_64-nacl/lib/../lib64/libnacl.a(nacl_tls_init_eb0cd232.o)
 .comment       0x0000000000000000       0x89 /Users/stevefar/nacl_sdk/pepper_45/toolchain/mac_x86_newlib/bin/../lib/gcc/x86_64-nacl/4.4.3/../../../../x86_64-nacl/lib/../lib64/libcrt_common.a(lib_a-atexit.o)
 .comment       0x0000000000000000       0x89 /Users/stevefar/nacl_sdk/pepper_45/toolchain/mac_x86_newlib/bin/../lib/gcc/x86_64-nacl/4.4.3/../../../../x86_64-nacl/lib/../lib64/libcrt_common.a(lib_a-cxa_atexit.o)
 .comment       0x0000000000000000       0x89 /Users/stevefar/nacl_sdk/pepper_45/toolchain/mac_x86_newlib/bin/../lib/gcc/x86_64-nacl/4.4.3/../../../../x86_64-nacl/lib/../lib64/libcrt_common.a(lib_a-errno.o)
 .comment       0x0000000000000000       0x89 /Users/stevefar/nacl_sdk/pepper_45/toolchain/mac_x86_newlib/bin/../lib/gcc/x86_64-nacl/4.4.3/../../../../x86_64-nacl/lib/../lib64/libcrt_common.a(lib_a-exit.o)
 .comment       0x0000000000000000       0x89 /Users/stevefar/nacl_sdk/pepper_45/toolchain/mac_x86_newlib/bin/../lib/gcc/x86_64-nacl/4.4.3/../../../../x86_64-nacl/lib/../lib64/libcrt_common.a(lib_a-fini.o)
 .comment       0x0000000000000000       0x89 /Users/stevefar/nacl_sdk/pepper_45/toolchain/mac_x86_newlib/bin/../lib/gcc/x86_64-nacl/4.4.3/../../../../x86_64-nacl/lib/../lib64/libcrt_common.a(lib_a-fprintf.o)
 .comment       0x0000000000000000       0x89 /Users/stevefar/nacl_sdk/pepper_45/toolchain/mac_x86_newlib/bin/../lib/gcc/x86_64-nacl/4.4.3/../../../../x86_64-nacl/lib/../lib64/libcrt_common.a(lib_a-fputc.o)
 .comment       0x0000000000000000       0x89 /Users/stevefar/nacl_sdk/pepper_45/toolchain/mac_x86_newlib/bin/../lib/gcc/x86_64-nacl/4.4.3/../../../../x86_64-nacl/lib/../lib64/libcrt_common.a(lib_a-fputs.o)
 .comment       0x0000000000000000       0x89 /Users/stevefar/nacl_sdk/pepper_45/toolchain/mac_x86_newlib/bin/../lib/gcc/x86_64-nacl/4.4.3/../../../../x86_64-nacl/lib/../lib64/libcrt_common.a(lib_a-fvwrite.o)
 .comment       0x0000000000000000       0x89 /Users/stevefar/nacl_sdk/pepper_45/toolchain/mac_x86_newlib/bin/../lib/gcc/x86_64-nacl/4.4.3/../../../../x86_64-nacl/lib/../lib64/libcrt_common.a(lib_a-fwrite.o)
 .comment       0x0000000000000000       0x89 /Users/stevefar/nacl_sdk/pepper_45/toolchain/mac_x86_newlib/bin/../lib/gcc/x86_64-nacl/4.4.3/../../../../x86_64-nacl/lib/../lib64/libcrt_common.a(lib_a-getenv.o)
 .comment       0x0000000000000000       0x89 /Users/stevefar/nacl_sdk/pepper_45/toolchain/mac_x86_newlib/bin/../lib/gcc/x86_64-nacl/4.4.3/../../../../x86_64-nacl/lib/../lib64/libcrt_common.a(lib_a-getenv_r.o)
 .comment       0x0000000000000000       0x89 /Users/stevefar/nacl_sdk/pepper_45/toolchain/mac_x86_newlib/bin/../lib/gcc/x86_64-nacl/4.4.3/../../../../x86_64-nacl/lib/../lib64/libcrt_common.a(lib_a-impure.o)
 .comment       0x0000000000000000       0x89 /Users/stevefar/nacl_sdk/pepper_45/toolchain/mac_x86_newlib/bin/../lib/gcc/x86_64-nacl/4.4.3/../../../../x86_64-nacl/lib/../lib64/libcrt_common.a(lib_a-init.o)
 .comment       0x0000000000000000       0x89 /Users/stevefar/nacl_sdk/pepper_45/toolchain/mac_x86_newlib/bin/../lib/gcc/x86_64-nacl/4.4.3/../../../../x86_64-nacl/lib/../lib64/libcrt_common.a(lib_a-memchr.o)
 .comment       0x0000000000000000       0x89 /Users/stevefar/nacl_sdk/pepper_45/toolchain/mac_x86_newlib/bin/../lib/gcc/x86_64-nacl/4.4.3/../../../../x86_64-nacl/lib/../lib64/libcrt_common.a(lib_a-memmove.o)
 .comment       0x0000000000000000       0x89 /Users/stevefar/nacl_sdk/pepper_45/toolchain/mac_x86_newlib/bin/../lib/gcc/x86_64-nacl/4.4.3/../../../../x86_64-nacl/lib/../lib64/libcrt_common.a(lib_a-putc.o)
 .comment       0x0000000000000000       0x89 /Users/stevefar/nacl_sdk/pepper_45/toolchain/mac_x86_newlib/bin/../lib/gcc/x86_64-nacl/4.4.3/../../../../x86_64-nacl/lib/../lib64/libcrt_common.a(lib_a-snprintf.o)
 .comment       0x0000000000000000       0x89 /Users/stevefar/nacl_sdk/pepper_45/toolchain/mac_x86_newlib/bin/../lib/gcc/x86_64-nacl/4.4.3/../../../../x86_64-nacl/lib/../lib64/libcrt_common.a(lib_a-sprintf.o)
 .comment       0x0000000000000000       0x89 /Users/stevefar/nacl_sdk/pepper_45/toolchain/mac_x86_newlib/bin/../lib/gcc/x86_64-nacl/4.4.3/../../../../x86_64-nacl/lib/../lib64/libcrt_common.a(lib_a-strcpy.o)
 .comment       0x0000000000000000       0x89 /Users/stevefar/nacl_sdk/pepper_45/toolchain/mac_x86_newlib/bin/../lib/gcc/x86_64-nacl/4.4.3/../../../../x86_64-nacl/lib/../lib64/libcrt_common.a(lib_a-strerror.o)
 .comment       0x0000000000000000       0x89 /Users/stevefar/nacl_sdk/pepper_45/toolchain/mac_x86_newlib/bin/../lib/gcc/x86_64-nacl/4.4.3/../../../../x86_64-nacl/lib/../lib64/libcrt_common.a(lib_a-strlen.o)
 .comment       0x0000000000000000       0x89 /Users/stevefar/nacl_sdk/pepper_45/toolchain/mac_x86_newlib/bin/../lib/gcc/x86_64-nacl/4.4.3/../../../../x86_64-nacl/lib/../lib64/libcrt_common.a(lib_a-strncmp.o)
 .comment       0x0000000000000000       0x89 /Users/stevefar/nacl_sdk/pepper_45/toolchain/mac_x86_newlib/bin/../lib/gcc/x86_64-nacl/4.4.3/../../../../x86_64-nacl/lib/../lib64/libcrt_common.a(lib_a-svfprintf.o)
 .comment       0x0000000000000000       0x89 /Users/stevefar/nacl_sdk/pepper_45/toolchain/mac_x86_newlib/bin/../lib/gcc/x86_64-nacl/4.4.3/../../../../x86_64-nacl/lib/../lib64/libcrt_common.a(lib_a-u_strerr.o)
 .comment       0x0000000000000000       0x89 /Users/stevefar/nacl_sdk/pepper_45/toolchain/mac_x86_newlib/bin/../lib/gcc/x86_64-nacl/4.4.3/../../../../x86_64-nacl/lib/../lib64/libcrt_common.a(lib_a-vfprintf.o)
 .comment       0x0000000000000000       0x89 /Users/stevefar/nacl_sdk/pepper_45/toolchain/mac_x86_newlib/bin/../lib/gcc/x86_64-nacl/4.4.3/../../../../x86_64-nacl/lib/../lib64/libcrt_common.a(lib_a-wbuf.o)
 .comment       0x0000000000000000       0x89 /Users/stevefar/nacl_sdk/pepper_45/toolchain/mac_x86_newlib/bin/../lib/gcc/x86_64-nacl/4.4.3/../../../../x86_64-nacl/lib/../lib64/libcrt_common.a(lib_a-wcrtomb.o)
 .comment       0x0000000000000000       0x89 /Users/stevefar/nacl_sdk/pepper_45/toolchain/mac_x86_newlib/bin/../lib/gcc/x86_64-nacl/4.4.3/../../../../x86_64-nacl/lib/../lib64/libcrt_common.a(lib_a-wcsrtombs.o)
 .comment       0x0000000000000000       0x89 /Users/stevefar/nacl_sdk/pepper_45/toolchain/mac_x86_newlib/bin/../lib/gcc/x86_64-nacl/4.4.3/../../../../x86_64-nacl/lib/../lib64/libcrt_common.a(lib_a-wctomb_r.o)
 .comment       0x0000000000000000       0x89 /Users/stevefar/nacl_sdk/pepper_45/toolchain/mac_x86_newlib/bin/../lib/gcc/x86_64-nacl/4.4.3/../../../../x86_64-nacl/lib/../lib64/libcrt_common.a(lib_a-wsetup.o)
 .comment       0x0000000000000000       0x89 /Users/stevefar/nacl_sdk/pepper_45/toolchain/mac_x86_newlib/bin/../lib/gcc/x86_64-nacl/4.4.3/../../../../x86_64-nacl/lib/../lib64/libcrt_common.a(lib_a-__atexit.o)
 .comment       0x0000000000000000       0x89 /Users/stevefar/nacl_sdk/pepper_45/toolchain/mac_x86_newlib/bin/../lib/gcc/x86_64-nacl/4.4.3/../../../../x86_64-nacl/lib/../lib64/libcrt_common.a(lib_a-__call_atexit.o)
 .comment       0x0000000000000000       0x89 /Users/stevefar/nacl_sdk/pepper_45/toolchain/mac_x86_newlib/bin/../lib/gcc/x86_64-nacl/4.4.3/../../../../x86_64-nacl/lib/../lib64/libcrt_common.a(lib_a-dtoa.o)
 .comment       0x0000000000000000       0x89 /Users/stevefar/nacl_sdk/pepper_45/toolchain/mac_x86_newlib/bin/../lib/gcc/x86_64-nacl/4.4.3/../../../../x86_64-nacl/lib/../lib64/libcrt_common.a(lib_a-envlock.o)
 .comment       0x0000000000000000       0x89 /Users/stevefar/nacl_sdk/pepper_45/toolchain/mac_x86_newlib/bin/../lib/gcc/x86_64-nacl/4.4.3/../../../../x86_64-nacl/lib/../lib64/libcrt_common.a(lib_a-fflush.o)
 .comment       0x0000000000000000       0x89 /Users/stevefar/nacl_sdk/pepper_45/toolchain/mac_x86_newlib/bin/../lib/gcc/x86_64-nacl/4.4.3/../../../../x86_64-nacl/lib/../lib64/libcrt_common.a(lib_a-findfp.o)
 .comment       0x0000000000000000       0x89 /Users/stevefar/nacl_sdk/pepper_45/toolchain/mac_x86_newlib/bin/../lib/gcc/x86_64-nacl/4.4.3/../../../../x86_64-nacl/lib/../lib64/libcrt_common.a(lib_a-fwalk.o)
 .comment       0x0000000000000000       0x89 /Users/stevefar/nacl_sdk/pepper_45/toolchain/mac_x86_newlib/bin/../lib/gcc/x86_64-nacl/4.4.3/../../../../x86_64-nacl/lib/../lib64/libcrt_common.a(lib_a-locale.o)
 .comment       0x0000000000000000       0x89 /Users/stevefar/nacl_sdk/pepper_45/toolchain/mac_x86_newlib/bin/../lib/gcc/x86_64-nacl/4.4.3/../../../../x86_64-nacl/lib/../lib64/libcrt_common.a(lib_a-makebuf.o)
 .comment       0x0000000000000000       0x89 /Users/stevefar/nacl_sdk/pepper_45/toolchain/mac_x86_newlib/bin/../lib/gcc/x86_64-nacl/4.4.3/../../../../x86_64-nacl/lib/../lib64/libcrt_common.a(lib_a-mbtowc_r.o)
 .comment       0x0000000000000000       0x89 /Users/stevefar/nacl_sdk/pepper_45/toolchain/mac_x86_newlib/bin/../lib/gcc/x86_64-nacl/4.4.3/../../../../x86_64-nacl/lib/../lib64/libcrt_common.a(lib_a-mprec.o)
 .comment       0x0000000000000000       0x89 /Users/stevefar/nacl_sdk/pepper_45/toolchain/mac_x86_newlib/bin/../lib/gcc/x86_64-nacl/4.4.3/../../../../x86_64-nacl/lib/../lib64/libcrt_common.a(lib_a-s_fpclassify.o)
 .comment       0x0000000000000000       0x89 /Users/stevefar/nacl_sdk/pepper_45/toolchain/mac_x86_newlib/bin/../lib/gcc/x86_64-nacl/4.4.3/../../../../x86_64-nacl/lib/../lib64/libcrt_common.a(lib_a-s_frexp.o)
 .comment       0x0000000000000000       0x89 /Users/stevefar/nacl_sdk/pepper_45/toolchain/mac_x86_newlib/bin/../lib/gcc/x86_64-nacl/4.4.3/../../../../x86_64-nacl/lib/../lib64/libcrt_common.a(lib_a-stdio.o)
 .comment       0x0000000000000000       0x89 /Users/stevefar/nacl_sdk/pepper_45/toolchain/mac_x86_newlib/bin/../lib/gcc/x86_64-nacl/4.4.3/../../../../x86_64-nacl/lib/../lib64/libcrt_common.a(lib_a-strcasecmp.o)
 .comment       0x0000000000000000       0x89 /Users/stevefar/nacl_sdk/pepper_45/toolchain/mac_x86_newlib/bin/../lib/gcc/x86_64-nacl/4.4.3/../../../../x86_64-nacl/lib/../lib64/libcrt_common.a(lib_a-strcat.o)
 .comment       0x0000000000000000       0x89 /Users/stevefar/nacl_sdk/pepper_45/toolchain/mac_x86_newlib/bin/../lib/gcc/x86_64-nacl/4.4.3/../../../../x86_64-nacl/lib/../lib64/libcrt_common.a(lib_a-strchr.o)
 .comment       0x0000000000000000       0x89 /Users/stevefar/nacl_sdk/pepper_45/toolchain/mac_x86_newlib/bin/../lib/gcc/x86_64-nacl/4.4.3/../../../../x86_64-nacl/lib/../lib64/libcrt_common.a(lib_a-strcmp.o)
 .comment       0x0000000000000000       0x89 /Users/stevefar/nacl_sdk/pepper_45/toolchain/mac_x86_newlib/bin/../lib/gcc/x86_64-nacl/4.4.3/../../../../x86_64-nacl/lib/../lib64/libcrt_common.a(lib_a-strlcpy.o)
 .comment       0x0000000000000000       0x89 /Users/stevefar/nacl_sdk/pepper_45/toolchain/mac_x86_newlib/bin/../lib/gcc/x86_64-nacl/4.4.3/../../../../x86_64-nacl/lib/../lib64/libcrt_common.a(lib_a-strncasecmp.o)
 .comment       0x0000000000000000       0x89 /Users/stevefar/nacl_sdk/pepper_45/toolchain/mac_x86_newlib/bin/../lib/gcc/x86_64-nacl/4.4.3/../../../../x86_64-nacl/lib/../lib64/libcrt_common.a(lib_a-strncpy.o)
 .comment       0x0000000000000000       0x89 /Users/stevefar/nacl_sdk/pepper_45/toolchain/mac_x86_newlib/bin/../lib/gcc/x86_64-nacl/4.4.3/../../../../x86_64-nacl/lib/../lib64/libcrt_common.a(lib_a-strtol.o)
 .comment       0x0000000000000000       0x89 /Users/stevefar/nacl_sdk/pepper_45/toolchain/mac_x86_newlib/bin/../lib/gcc/x86_64-nacl/4.4.3/../../../../x86_64-nacl/lib/../lib64/libcrt_common.a(lib_a-svfiprintf.o)
 .comment       0x0000000000000000       0x89 /Users/stevefar/nacl_sdk/pepper_45/toolchain/mac_x86_newlib/bin/../lib/gcc/x86_64-nacl/4.4.3/../../../../x86_64-nacl/lib/../lib64/libcrt_common.a(lib_a-vfiprintf.o)
 .comment       0x0000000000000000       0x89 /Users/stevefar/nacl_sdk/pepper_45/toolchain/mac_x86_newlib/bin/../lib/gcc/x86_64-nacl/4.4.3/../../../../x86_64-nacl/lib/../lib64/libcrt_common.a(lib_a-wcsnrtombs.o)
 .comment       0x0000000000000000       0x89 /Users/stevefar/nacl_sdk/pepper_45/toolchain/mac_x86_newlib/bin/../lib/gcc/x86_64-nacl/4.4.3/../../../../x86_64-nacl/lib/../lib64/libcrt_common.a(lib_a-ctype_.o)
 .comment       0x0000000000000000       0x89 /Users/stevefar/nacl_sdk/pepper_45/toolchain/mac_x86_newlib/bin/../lib/gcc/x86_64-nacl/4.4.3/../../../../x86_64-nacl/lib/../lib64/libcrt_common.a(lib_a-fclose.o)
 .comment       0x0000000000000000       0x89 /Users/stevefar/nacl_sdk/pepper_45/toolchain/mac_x86_newlib/bin/../lib/gcc/x86_64-nacl/4.4.3/../../../../x86_64-nacl/lib/../lib64/libcrt_common.a(lib_a-fputwc.o)
 .comment       0x0000000000000000       0x89 /Users/stevefar/nacl_sdk/pepper_45/toolchain/mac_x86_newlib/bin/../lib/gcc/x86_64-nacl/4.4.3/../../../../x86_64-nacl/lib/../lib64/libnacl.a(close_e9b92fbd.o)
 .comment       0x0000000000000000       0x89 /Users/stevefar/nacl_sdk/pepper_45/toolchain/mac_x86_newlib/bin/../lib/gcc/x86_64-nacl/4.4.3/../../../../x86_64-nacl/lib/../lib64/libnacl.a(isatty_02f56e94.o)
 .comment       0x0000000000000000       0x89 /Users/stevefar/nacl_sdk/pepper_45/toolchain/mac_x86_newlib/bin/../lib/gcc/x86_64-nacl/4.4.3/../../../../x86_64-nacl/lib/../lib64/libnacl.a(nacl_irt_fdio_b571b5e7.o)
 .comment       0x0000000000000000       0x89 /Users/stevefar/nacl_sdk/pepper_45/toolchain/mac_x86_newlib/bin/../lib/gcc/x86_64-nacl/4.4.3/../../../../x86_64-nacl/lib/../lib64/libnacl.a(fstat_0540ff63.o)
 .comment       0x0000000000000000       0x89 /Users/stevefar/nacl_sdk/pepper_45/toolchain/mac_x86_newlib/bin/../lib/gcc/x86_64-nacl/4.4.3/../../../../x86_64-nacl/lib/../lib64/libnacl.a(lseek_64d2d05c.o)
 .comment       0x0000000000000000       0x89 /Users/stevefar/nacl_sdk/pepper_45/toolchain/mac_x86_newlib/bin/../lib/gcc/x86_64-nacl/4.4.3/../../../../x86_64-nacl/lib/../lib64/libnacl.a(read_df872e10.o)
 .comment       0x0000000000000000       0x89 /Users/stevefar/nacl_sdk/pepper_45/toolchain/mac_x86_newlib/bin/../lib/gcc/x86_64-nacl/4.4.3/crtend.o

.debug
 *(.debug)

.line
 *(.line)

.debug_srcinfo
 *(.debug_srcinfo)

.debug_sfnames
 *(.debug_sfnames)

.debug_aranges  0x0000000000000000     0x2700
 *(.debug_aranges)
 .debug_aranges
                0x0000000000000000       0x90 newlib/Release/multi_platform_x86_64.o
 .debug_aranges
                0x0000000000000090       0x70 /Users/stevefar/nacl_sdk/pepper_45/lib/newlib_x86_64/Release/libppapi_cpp.a(instance_x86_64.o)
 .debug_aranges
                0x0000000000000100       0xf0 /Users/stevefar/nacl_sdk/pepper_45/lib/newlib_x86_64/Release/libppapi_cpp.a(module_x86_64.o)
 .debug_aranges
                0x00000000000001f0       0x30 /Users/stevefar/nacl_sdk/pepper_45/lib/newlib_x86_64/Release/libppapi_cpp.a(ppp_entrypoints_x86_64.o)
 .debug_aranges
                0x0000000000000220       0x30 /Users/stevefar/nacl_sdk/pepper_45/lib/newlib_x86_64/Release/libppapi_cpp.a(resource_x86_64.o)
 .debug_aranges
                0x0000000000000250       0x70 /Users/stevefar/nacl_sdk/pepper_45/lib/newlib_x86_64/Release/libppapi_cpp.a(url_loader_x86_64.o)
 .debug_aranges
                0x00000000000002c0       0x70 /Users/stevefar/nacl_sdk/pepper_45/lib/newlib_x86_64/Release/libppapi_cpp.a(url_response_info_x86_64.o)
 .debug_aranges
                0x0000000000000330       0x30 /Users/stevefar/nacl_sdk/pepper_45/lib/newlib_x86_64/Release/libppapi_cpp.a(var_x86_64.o)
 .debug_aranges
                0x0000000000000360       0x50 /Users/stevefar/nacl_sdk/pepper_45/lib/newlib_x86_64/Release/libppapi_cpp.a(view_x86_64.o)
 .debug_aranges
                0x00000000000003b0       0x30 /Users/stevefar/nacl_sdk/pepper_45/lib/newlib_x86_64/Release/libppapi_cpp.a(core_x86_64.o)
 .debug_aranges
                0x00000000000003e0       0x60 /Users/stevefar/nacl_sdk/pepper_45/lib/newlib_x86_64/Release/libppapi_cpp.a(file_ref_x86_64.o)
 .debug_aranges
                0x0000000000000440       0xd0 /Users/stevefar/nacl_sdk/pepper_45/lib/newlib_x86_64/Release/libppapi_cpp.a(input_event_x86_64.o)
 .debug_aranges
                0x0000000000000510       0x30 /Users/stevefar/nacl_sdk/pepper_45/toolchain/mac_x86_newlib/bin/../lib/gcc/x86_64-nacl/4.4.3/../../../../x86_64-nacl/lib/../lib64/libppapi_stub.a(plugin_main_irt_21ce9d26.o)
 .debug_aranges
                0x0000000000000540       0x30 /Users/stevefar/nacl_sdk/pepper_45/toolchain/mac_x86_newlib/bin/../lib/gcc/x86_64-nacl/4.4.3/../../../../x86_64-nacl/lib/../lib64/libppapi_stub.a(ppapi_plugin_main_399d0cf7.o)
 .debug_aranges
                0x0000000000000570       0x30 /Users/stevefar/nacl_sdk/pepper_45/toolchain/mac_x86_newlib/bin/../lib/gcc/x86_64-nacl/4.4.3/../../../../x86_64-nacl/lib/../lib64/libppapi_stub.a(ppapi_plugin_start_8da67623.o)
 .debug_aranges
                0x00000000000005a0       0x30 /Users/stevefar/nacl_sdk/pepper_45/toolchain/mac_x86_newlib/bin/../lib/gcc/x86_64-nacl/4.4.3/../../../../x86_64-nacl/lib/../lib64/libppapi_stub.a(thread_creator_ccf263e1.o)
 .debug_aranges
                0x00000000000005d0       0x30 /Users/stevefar/nacl_sdk/pepper_45/toolchain/mac_x86_newlib/bin/../lib/gcc/x86_64-nacl/4.4.3/../../../../x86_64-nacl/lib/../lib64/libpthread.a(nc_thread_7e478b15.o)
 .debug_aranges
                0x0000000000000600       0x30 /Users/stevefar/nacl_sdk/pepper_45/toolchain/mac_x86_newlib/bin/../lib/gcc/x86_64-nacl/4.4.3/../../../../x86_64-nacl/lib/../lib64/libpthread.a(nc_condvar_305aa45a.o)
 .debug_aranges
                0x0000000000000630       0x30 /Users/stevefar/nacl_sdk/pepper_45/toolchain/mac_x86_newlib/bin/../lib/gcc/x86_64-nacl/4.4.3/../../../../x86_64-nacl/lib/../lib64/libpthread.a(dynamic_annotations_33ba59cc.o)
 .debug_aranges
                0x0000000000000660       0x30 /Users/stevefar/nacl_sdk/pepper_45/toolchain/mac_x86_newlib/bin/../lib/gcc/x86_64-nacl/4.4.3/../../../../x86_64-nacl/lib/../lib64/libpthread.a(nc_mutex_86341ae1.o)
 .debug_aranges
                0x0000000000000690       0x30 /Users/stevefar/nacl_sdk/pepper_45/toolchain/mac_x86_newlib/bin/../lib/gcc/x86_64-nacl/4.4.3/../../../../x86_64-nacl/lib/../lib64/libpthread.a(nc_init_irt_d3daafc0.o)
 .debug_aranges
                0x00000000000006c0       0xb0 /Users/stevefar/nacl_sdk/pepper_45/toolchain/mac_x86_newlib/bin/../lib/gcc/x86_64-nacl/4.4.3/../../../../x86_64-nacl/lib/../lib64/libstdc++.a(tree.o)
 .debug_aranges
                0x0000000000000770      0xb20 /Users/stevefar/nacl_sdk/pepper_45/toolchain/mac_x86_newlib/bin/../lib/gcc/x86_64-nacl/4.4.3/../../../../x86_64-nacl/lib/../lib64/libstdc++.a(string-inst.o)
 .debug_aranges
                0x0000000000001290       0xa0 /Users/stevefar/nacl_sdk/pepper_45/toolchain/mac_x86_newlib/bin/../lib/gcc/x86_64-nacl/4.4.3/../../../../x86_64-nacl/lib/../lib64/libstdc++.a(class_type_info.o)
 .debug_aranges
                0x0000000000001330       0x30 /Users/stevefar/nacl_sdk/pepper_45/toolchain/mac_x86_newlib/bin/../lib/gcc/x86_64-nacl/4.4.3/../../../../x86_64-nacl/lib/../lib64/libstdc++.a(del_op.o)
 .debug_aranges
                0x0000000000001360       0x60 /Users/stevefar/nacl_sdk/pepper_45/toolchain/mac_x86_newlib/bin/../lib/gcc/x86_64-nacl/4.4.3/../../../../x86_64-nacl/lib/../lib64/libstdc++.a(eh_catch.o)
 .debug_aranges
                0x00000000000013c0       0x70 /Users/stevefar/nacl_sdk/pepper_45/toolchain/mac_x86_newlib/bin/../lib/gcc/x86_64-nacl/4.4.3/../../../../x86_64-nacl/lib/../lib64/libstdc++.a(eh_globals.o)
 .debug_aranges
                0x0000000000001430       0xa0 /Users/stevefar/nacl_sdk/pepper_45/toolchain/mac_x86_newlib/bin/../lib/gcc/x86_64-nacl/4.4.3/../../../../x86_64-nacl/lib/../lib64/libstdc++.a(eh_personality.o)
 .debug_aranges
                0x00000000000014d0       0x80 /Users/stevefar/nacl_sdk/pepper_45/toolchain/mac_x86_newlib/bin/../lib/gcc/x86_64-nacl/4.4.3/../../../../x86_64-nacl/lib/../lib64/libstdc++.a(eh_terminate.o)
 .debug_aranges
                0x0000000000001550       0x50 /Users/stevefar/nacl_sdk/pepper_45/toolchain/mac_x86_newlib/bin/../lib/gcc/x86_64-nacl/4.4.3/../../../../x86_64-nacl/lib/../lib64/libstdc++.a(eh_throw.o)
 .debug_aranges
                0x00000000000015a0      0x100 /Users/stevefar/nacl_sdk/pepper_45/toolchain/mac_x86_newlib/bin/../lib/gcc/x86_64-nacl/4.4.3/../../../../x86_64-nacl/lib/../lib64/libstdc++.a(guard.o)
 .debug_aranges
                0x00000000000016a0       0x30 /Users/stevefar/nacl_sdk/pepper_45/toolchain/mac_x86_newlib/bin/../lib/gcc/x86_64-nacl/4.4.3/../../../../x86_64-nacl/lib/../lib64/libstdc++.a(new_op.o)
 .debug_aranges
                0x00000000000016d0       0x30 /Users/stevefar/nacl_sdk/pepper_45/toolchain/mac_x86_newlib/bin/../lib/gcc/x86_64-nacl/4.4.3/../../../../x86_64-nacl/lib/../lib64/libstdc++.a(pure.o)
 .debug_aranges
                0x0000000000001700       0x80 /Users/stevefar/nacl_sdk/pepper_45/toolchain/mac_x86_newlib/bin/../lib/gcc/x86_64-nacl/4.4.3/../../../../x86_64-nacl/lib/../lib64/libstdc++.a(si_class_type_info.o)
 .debug_aranges
                0x0000000000001780       0x90 /Users/stevefar/nacl_sdk/pepper_45/toolchain/mac_x86_newlib/bin/../lib/gcc/x86_64-nacl/4.4.3/../../../../x86_64-nacl/lib/../lib64/libstdc++.a(tinfo.o)
 .debug_aranges
                0x0000000000001810      0x1f0 /Users/stevefar/nacl_sdk/pepper_45/toolchain/mac_x86_newlib/bin/../lib/gcc/x86_64-nacl/4.4.3/../../../../x86_64-nacl/lib/../lib64/libstdc++.a(functexcept.o)
 .debug_aranges
                0x0000000000001a00       0x80 /Users/stevefar/nacl_sdk/pepper_45/toolchain/mac_x86_newlib/bin/../lib/gcc/x86_64-nacl/4.4.3/../../../../x86_64-nacl/lib/../lib64/libstdc++.a(ios_failure.o)
 .debug_aranges
                0x0000000000001a80      0x2a0 /Users/stevefar/nacl_sdk/pepper_45/toolchain/mac_x86_newlib/bin/../lib/gcc/x86_64-nacl/4.4.3/../../../../x86_64-nacl/lib/../lib64/libstdc++.a(stdexcept.o)
 .debug_aranges
                0x0000000000001d20      0x160 /Users/stevefar/nacl_sdk/pepper_45/toolchain/mac_x86_newlib/bin/../lib/gcc/x86_64-nacl/4.4.3/../../../../x86_64-nacl/lib/../lib64/libstdc++.a(system_error.o)
 .debug_aranges
                0x0000000000001e80       0x60 /Users/stevefar/nacl_sdk/pepper_45/toolchain/mac_x86_newlib/bin/../lib/gcc/x86_64-nacl/4.4.3/../../../../x86_64-nacl/lib/../lib64/libstdc++.a(bad_cast.o)
 .debug_aranges
                0x0000000000001ee0       0x60 /Users/stevefar/nacl_sdk/pepper_45/toolchain/mac_x86_newlib/bin/../lib/gcc/x86_64-nacl/4.4.3/../../../../x86_64-nacl/lib/../lib64/libstdc++.a(bad_typeid.o)
 .debug_aranges
                0x0000000000001f40       0xe0 /Users/stevefar/nacl_sdk/pepper_45/toolchain/mac_x86_newlib/bin/../lib/gcc/x86_64-nacl/4.4.3/../../../../x86_64-nacl/lib/../lib64/libstdc++.a(eh_alloc.o)
 .debug_aranges
                0x0000000000002020       0x30 /Users/stevefar/nacl_sdk/pepper_45/toolchain/mac_x86_newlib/bin/../lib/gcc/x86_64-nacl/4.4.3/../../../../x86_64-nacl/lib/../lib64/libstdc++.a(eh_call.o)
 .debug_aranges
                0x0000000000002050      0x100 /Users/stevefar/nacl_sdk/pepper_45/toolchain/mac_x86_newlib/bin/../lib/gcc/x86_64-nacl/4.4.3/../../../../x86_64-nacl/lib/../lib64/libstdc++.a(eh_exception.o)
 .debug_aranges
                0x0000000000002150       0x70 /Users/stevefar/nacl_sdk/pepper_45/toolchain/mac_x86_newlib/bin/../lib/gcc/x86_64-nacl/4.4.3/../../../../x86_64-nacl/lib/../lib64/libstdc++.a(new_handler.o)
 .debug_aranges
                0x00000000000021c0       0x30 /Users/stevefar/nacl_sdk/pepper_45/toolchain/mac_x86_newlib/bin/../lib/gcc/x86_64-nacl/4.4.3/../../../../x86_64-nacl/lib/../lib64/libstdc++.a(vterminate.o)
 .debug_aranges
                0x00000000000021f0       0x30 /Users/stevefar/nacl_sdk/pepper_45/toolchain/mac_x86_newlib/bin/../lib/gcc/x86_64-nacl/4.4.3/../../../../x86_64-nacl/lib/../lib64/libstdc++.a(cp-demangle.o)
 .debug_aranges
                0x0000000000002220       0x30 /Users/stevefar/nacl_sdk/pepper_45/toolchain/mac_x86_newlib/bin/../lib/gcc/x86_64-nacl/4.4.3/../../../../x86_64-nacl/lib/../lib64/libstdc++.a(eh_type.o)
 .debug_aranges
                0x0000000000002250       0x30 /Users/stevefar/nacl_sdk/pepper_45/toolchain/mac_x86_newlib/bin/../lib/gcc/x86_64-nacl/4.4.3/libgcc.a(unwind-dw2.o)
 .debug_aranges
                0x0000000000002280       0x30 /Users/stevefar/nacl_sdk/pepper_45/toolchain/mac_x86_newlib/bin/../lib/gcc/x86_64-nacl/4.4.3/libgcc.a(unwind-dw2-fde-glibc.o)
 .debug_aranges
                0x00000000000022b0       0x30 /Users/stevefar/nacl_sdk/pepper_45/toolchain/mac_x86_newlib/bin/../lib/gcc/x86_64-nacl/4.4.3/../../../../x86_64-nacl/lib/../lib64/libnacl.a(_exit_710c7d0d.o)
 .debug_aranges
                0x00000000000022e0       0x30 /Users/stevefar/nacl_sdk/pepper_45/toolchain/mac_x86_newlib/bin/../lib/gcc/x86_64-nacl/4.4.3/../../../../x86_64-nacl/lib/../lib64/libnacl.a(abort_9f6b5845.o)
 .debug_aranges
                0x0000000000002310       0x30 /Users/stevefar/nacl_sdk/pepper_45/toolchain/mac_x86_newlib/bin/../lib/gcc/x86_64-nacl/4.4.3/../../../../x86_64-nacl/lib/../lib64/libnacl.a(malloc_222c4a1e.o)
 .debug_aranges
                0x0000000000002340       0x30 /Users/stevefar/nacl_sdk/pepper_45/toolchain/mac_x86_newlib/bin/../lib/gcc/x86_64-nacl/4.4.3/../../../../x86_64-nacl/lib/../lib64/libnacl.a(nacl_irt_6de1d53f.o)
 .debug_aranges
                0x0000000000002370       0x30 /Users/stevefar/nacl_sdk/pepper_45/toolchain/mac_x86_newlib/bin/../lib/gcc/x86_64-nacl/4.4.3/../../../../x86_64-nacl/lib/../lib64/libnacl.a(pthread_initialize_minimal_4b6e776b.o)
 .debug_aranges
                0x00000000000023a0       0x30 /Users/stevefar/nacl_sdk/pepper_45/toolchain/mac_x86_newlib/bin/../lib/gcc/x86_64-nacl/4.4.3/../../../../x86_64-nacl/lib/../lib64/libnacl.a(nacl_read_tp_5748ac47.o)
 .debug_aranges
                0x00000000000023d0       0x30 /Users/stevefar/nacl_sdk/pepper_45/toolchain/mac_x86_newlib/bin/../lib/gcc/x86_64-nacl/4.4.3/../../../../x86_64-nacl/lib/../lib64/libnacl.a(nacl_add_tp_7312c7c4.o)
 .debug_aranges
                0x0000000000002400       0x30 /Users/stevefar/nacl_sdk/pepper_45/toolchain/mac_x86_newlib/bin/../lib/gcc/x86_64-nacl/4.4.3/../../../../x86_64-nacl/lib/../lib64/libnacl.a(mmap_767fb080.o)
 .debug_aranges
                0x0000000000002430       0x30 /Users/stevefar/nacl_sdk/pepper_45/toolchain/mac_x86_newlib/bin/../lib/gcc/x86_64-nacl/4.4.3/../../../../x86_64-nacl/lib/../lib64/libnacl.a(sched_yield_56c375be.o)
 .debug_aranges
                0x0000000000002460       0x30 /Users/stevefar/nacl_sdk/pepper_45/toolchain/mac_x86_newlib/bin/../lib/gcc/x86_64-nacl/4.4.3/../../../../x86_64-nacl/lib/../lib64/libnacl.a(start_fa9ef7de.o)
 .debug_aranges
                0x0000000000002490       0x30 /Users/stevefar/nacl_sdk/pepper_45/toolchain/mac_x86_newlib/bin/../lib/gcc/x86_64-nacl/4.4.3/../../../../x86_64-nacl/lib/../lib64/libnacl.a(munmap_d4f09867.o)
 .debug_aranges
                0x00000000000024c0       0x30 /Users/stevefar/nacl_sdk/pepper_45/toolchain/mac_x86_newlib/bin/../lib/gcc/x86_64-nacl/4.4.3/../../../../x86_64-nacl/lib/../lib64/libnacl.a(tls_bba1975b.o)
 .debug_aranges
                0x00000000000024f0       0x30 /Users/stevefar/nacl_sdk/pepper_45/toolchain/mac_x86_newlib/bin/../lib/gcc/x86_64-nacl/4.4.3/../../../../x86_64-nacl/lib/../lib64/libnacl.a(write_fb49787f.o)
 .debug_aranges
                0x0000000000002520       0x30 /Users/stevefar/nacl_sdk/pepper_45/toolchain/mac_x86_newlib/bin/../lib/gcc/x86_64-nacl/4.4.3/../../../../x86_64-nacl/lib/../lib64/libnacl.a(nacl_tls_get_d2f842b5.o)
 .debug_aranges
                0x0000000000002550       0x30 /Users/stevefar/nacl_sdk/pepper_45/toolchain/mac_x86_newlib/bin/../lib/gcc/x86_64-nacl/4.4.3/../../../../x86_64-nacl/lib/../lib64/libnacl.a(nacl_irt_init_7b4f826e.o)
 .debug_aranges
                0x0000000000002580       0x30 /Users/stevefar/nacl_sdk/pepper_45/toolchain/mac_x86_newlib/bin/../lib/gcc/x86_64-nacl/4.4.3/../../../../x86_64-nacl/lib/../lib64/libnacl.a(sysconf_ad295ea2.o)
 .debug_aranges
                0x00000000000025b0       0x30 /Users/stevefar/nacl_sdk/pepper_45/toolchain/mac_x86_newlib/bin/../lib/gcc/x86_64-nacl/4.4.3/../../../../x86_64-nacl/lib/../lib64/libnacl.a(nacl_tls_init_eb0cd232.o)
 .debug_aranges
                0x00000000000025e0       0x30 /Users/stevefar/nacl_sdk/pepper_45/toolchain/mac_x86_newlib/bin/../lib/gcc/x86_64-nacl/4.4.3/../../../../x86_64-nacl/lib/../lib64/libnacl.a(close_e9b92fbd.o)
 .debug_aranges
                0x0000000000002610       0x30 /Users/stevefar/nacl_sdk/pepper_45/toolchain/mac_x86_newlib/bin/../lib/gcc/x86_64-nacl/4.4.3/../../../../x86_64-nacl/lib/../lib64/libnacl.a(isatty_02f56e94.o)
 .debug_aranges
                0x0000000000002640       0x30 /Users/stevefar/nacl_sdk/pepper_45/toolchain/mac_x86_newlib/bin/../lib/gcc/x86_64-nacl/4.4.3/../../../../x86_64-nacl/lib/../lib64/libnacl.a(nacl_irt_fdio_b571b5e7.o)
 .debug_aranges
                0x0000000000002670       0x30 /Users/stevefar/nacl_sdk/pepper_45/toolchain/mac_x86_newlib/bin/../lib/gcc/x86_64-nacl/4.4.3/../../../../x86_64-nacl/lib/../lib64/libnacl.a(fstat_0540ff63.o)
 .debug_aranges
                0x00000000000026a0       0x30 /Users/stevefar/nacl_sdk/pepper_45/toolchain/mac_x86_newlib/bin/../lib/gcc/x86_64-nacl/4.4.3/../../../../x86_64-nacl/lib/../lib64/libnacl.a(lseek_64d2d05c.o)
 .debug_aranges
                0x00000000000026d0       0x30 /Users/stevefar/nacl_sdk/pepper_45/toolchain/mac_x86_newlib/bin/../lib/gcc/x86_64-nacl/4.4.3/../../../../x86_64-nacl/lib/../lib64/libnacl.a(read_df872e10.o)

.debug_pubnames
                0x0000000000000000     0xa5af
 *(.debug_pubnames)
 .debug_pubnames
                0x0000000000000000       0xad newlib/Release/multi_platform_x86_64.o
 .debug_pubnames
                0x00000000000000ad      0xbd2 /Users/stevefar/nacl_sdk/pepper_45/lib/newlib_x86_64/Release/libppapi_cpp.a(instance_x86_64.o)
 .debug_pubnames
                0x0000000000000c7f      0xdf5 /Users/stevefar/nacl_sdk/pepper_45/lib/newlib_x86_64/Release/libppapi_cpp.a(module_x86_64.o)
 .debug_pubnames
                0x0000000000001a74       0x8d /Users/stevefar/nacl_sdk/pepper_45/lib/newlib_x86_64/Release/libppapi_cpp.a(ppp_entrypoints_x86_64.o)
 .debug_pubnames
                0x0000000000001b01      0x1b4 /Users/stevefar/nacl_sdk/pepper_45/lib/newlib_x86_64/Release/libppapi_cpp.a(resource_x86_64.o)
 .debug_pubnames
                0x0000000000001cb5      0x25f /Users/stevefar/nacl_sdk/pepper_45/lib/newlib_x86_64/Release/libppapi_cpp.a(url_loader_x86_64.o)
 .debug_pubnames
                0x0000000000001f14      0x18d /Users/stevefar/nacl_sdk/pepper_45/lib/newlib_x86_64/Release/libppapi_cpp.a(url_response_info_x86_64.o)
 .debug_pubnames
                0x00000000000020a1      0x24f /Users/stevefar/nacl_sdk/pepper_45/lib/newlib_x86_64/Release/libppapi_cpp.a(var_x86_64.o)
 .debug_pubnames
                0x00000000000022f0      0x15a /Users/stevefar/nacl_sdk/pepper_45/lib/newlib_x86_64/Release/libppapi_cpp.a(view_x86_64.o)
 .debug_pubnames
                0x000000000000244a       0x4c /Users/stevefar/nacl_sdk/pepper_45/lib/newlib_x86_64/Release/libppapi_cpp.a(core_x86_64.o)
 .debug_pubnames
                0x0000000000002496      0x246 /Users/stevefar/nacl_sdk/pepper_45/lib/newlib_x86_64/Release/libppapi_cpp.a(file_ref_x86_64.o)
 .debug_pubnames
                0x00000000000026dc      0xafd /Users/stevefar/nacl_sdk/pepper_45/lib/newlib_x86_64/Release/libppapi_cpp.a(input_event_x86_64.o)
 .debug_pubnames
                0x00000000000031d9       0x1b /Users/stevefar/nacl_sdk/pepper_45/toolchain/mac_x86_newlib/bin/../lib/gcc/x86_64-nacl/4.4.3/../../../../x86_64-nacl/lib/../lib64/libppapi_stub.a(plugin_main_irt_21ce9d26.o)
 .debug_pubnames
                0x00000000000031f4       0x26 /Users/stevefar/nacl_sdk/pepper_45/toolchain/mac_x86_newlib/bin/../lib/gcc/x86_64-nacl/4.4.3/../../../../x86_64-nacl/lib/../lib64/libppapi_stub.a(ppapi_plugin_main_399d0cf7.o)
 .debug_pubnames
                0x000000000000321a       0x27 /Users/stevefar/nacl_sdk/pepper_45/toolchain/mac_x86_newlib/bin/../lib/gcc/x86_64-nacl/4.4.3/../../../../x86_64-nacl/lib/../lib64/libppapi_stub.a(ppapi_plugin_start_8da67623.o)
 .debug_pubnames
                0x0000000000003241       0x35 /Users/stevefar/nacl_sdk/pepper_45/toolchain/mac_x86_newlib/bin/../lib/gcc/x86_64-nacl/4.4.3/../../../../x86_64-nacl/lib/../lib64/libppapi_stub.a(thread_creator_ccf263e1.o)
 .debug_pubnames
                0x0000000000003276      0x499 /Users/stevefar/nacl_sdk/pepper_45/toolchain/mac_x86_newlib/bin/../lib/gcc/x86_64-nacl/4.4.3/../../../../x86_64-nacl/lib/../lib64/libpthread.a(nc_thread_7e478b15.o)
 .debug_pubnames
                0x000000000000370f      0x15c /Users/stevefar/nacl_sdk/pepper_45/toolchain/mac_x86_newlib/bin/../lib/gcc/x86_64-nacl/4.4.3/../../../../x86_64-nacl/lib/../lib64/libpthread.a(nc_condvar_305aa45a.o)
 .debug_pubnames
                0x000000000000386b      0x4a6 /Users/stevefar/nacl_sdk/pepper_45/toolchain/mac_x86_newlib/bin/../lib/gcc/x86_64-nacl/4.4.3/../../../../x86_64-nacl/lib/../lib64/libpthread.a(dynamic_annotations_33ba59cc.o)
 .debug_pubnames
                0x0000000000003d11      0x171 /Users/stevefar/nacl_sdk/pepper_45/toolchain/mac_x86_newlib/bin/../lib/gcc/x86_64-nacl/4.4.3/../../../../x86_64-nacl/lib/../lib64/libpthread.a(nc_mutex_86341ae1.o)
 .debug_pubnames
                0x0000000000003e82       0x49 /Users/stevefar/nacl_sdk/pepper_45/toolchain/mac_x86_newlib/bin/../lib/gcc/x86_64-nacl/4.4.3/../../../../x86_64-nacl/lib/../lib64/libpthread.a(nc_init_irt_d3daafc0.o)
 .debug_pubnames
                0x0000000000003ecb      0x12a /Users/stevefar/nacl_sdk/pepper_45/toolchain/mac_x86_newlib/bin/../lib/gcc/x86_64-nacl/4.4.3/../../../../x86_64-nacl/lib/../lib64/libstdc++.a(tree.o)
 .debug_pubnames
                0x0000000000003ff5     0x3ea9 /Users/stevefar/nacl_sdk/pepper_45/toolchain/mac_x86_newlib/bin/../lib/gcc/x86_64-nacl/4.4.3/../../../../x86_64-nacl/lib/../lib64/libstdc++.a(string-inst.o)
 .debug_pubnames
                0x0000000000007e9e      0x1a8 /Users/stevefar/nacl_sdk/pepper_45/toolchain/mac_x86_newlib/bin/../lib/gcc/x86_64-nacl/4.4.3/../../../../x86_64-nacl/lib/../lib64/libstdc++.a(class_type_info.o)
 .debug_pubnames
                0x0000000000008046       0x26 /Users/stevefar/nacl_sdk/pepper_45/toolchain/mac_x86_newlib/bin/../lib/gcc/x86_64-nacl/4.4.3/../../../../x86_64-nacl/lib/../lib64/libstdc++.a(del_op.o)
 .debug_pubnames
                0x000000000000806c       0x98 /Users/stevefar/nacl_sdk/pepper_45/toolchain/mac_x86_newlib/bin/../lib/gcc/x86_64-nacl/4.4.3/../../../../x86_64-nacl/lib/../lib64/libstdc++.a(eh_catch.o)
 .debug_pubnames
                0x0000000000008104       0x85 /Users/stevefar/nacl_sdk/pepper_45/toolchain/mac_x86_newlib/bin/../lib/gcc/x86_64-nacl/4.4.3/../../../../x86_64-nacl/lib/../lib64/libstdc++.a(eh_globals.o)
 .debug_pubnames
                0x0000000000008189       0x5d /Users/stevefar/nacl_sdk/pepper_45/toolchain/mac_x86_newlib/bin/../lib/gcc/x86_64-nacl/4.4.3/../../../../x86_64-nacl/lib/../lib64/libstdc++.a(eh_personality.o)
 .debug_pubnames
                0x00000000000081e6       0xa1 /Users/stevefar/nacl_sdk/pepper_45/toolchain/mac_x86_newlib/bin/../lib/gcc/x86_64-nacl/4.4.3/../../../../x86_64-nacl/lib/../lib64/libstdc++.a(eh_terminate.o)
 .debug_pubnames
                0x0000000000008287       0x4c /Users/stevefar/nacl_sdk/pepper_45/toolchain/mac_x86_newlib/bin/../lib/gcc/x86_64-nacl/4.4.3/../../../../x86_64-nacl/lib/../lib64/libstdc++.a(eh_throw.o)
 .debug_pubnames
                0x00000000000082d3       0x37 /Users/stevefar/nacl_sdk/pepper_45/toolchain/mac_x86_newlib/bin/../lib/gcc/x86_64-nacl/4.4.3/../../../../x86_64-nacl/lib/../lib64/libstdc++.a(eh_unex_handler.o)
 .debug_pubnames
                0x000000000000830a      0x29f /Users/stevefar/nacl_sdk/pepper_45/toolchain/mac_x86_newlib/bin/../lib/gcc/x86_64-nacl/4.4.3/../../../../x86_64-nacl/lib/../lib64/libstdc++.a(guard.o)
 .debug_pubnames
                0x00000000000085a9       0x23 /Users/stevefar/nacl_sdk/pepper_45/toolchain/mac_x86_newlib/bin/../lib/gcc/x86_64-nacl/4.4.3/../../../../x86_64-nacl/lib/../lib64/libstdc++.a(new_op.o)
 .debug_pubnames
                0x00000000000085cc       0x35 /Users/stevefar/nacl_sdk/pepper_45/toolchain/mac_x86_newlib/bin/../lib/gcc/x86_64-nacl/4.4.3/../../../../x86_64-nacl/lib/../lib64/libstdc++.a(pure.o)
 .debug_pubnames
                0x0000000000008601      0x166 /Users/stevefar/nacl_sdk/pepper_45/toolchain/mac_x86_newlib/bin/../lib/gcc/x86_64-nacl/4.4.3/../../../../x86_64-nacl/lib/../lib64/libstdc++.a(si_class_type_info.o)
 .debug_pubnames
                0x0000000000008767       0xf5 /Users/stevefar/nacl_sdk/pepper_45/toolchain/mac_x86_newlib/bin/../lib/gcc/x86_64-nacl/4.4.3/../../../../x86_64-nacl/lib/../lib64/libstdc++.a(tinfo.o)
 .debug_pubnames
                0x000000000000885c      0x3f9 /Users/stevefar/nacl_sdk/pepper_45/toolchain/mac_x86_newlib/bin/../lib/gcc/x86_64-nacl/4.4.3/../../../../x86_64-nacl/lib/../lib64/libstdc++.a(functexcept.o)
 .debug_pubnames
                0x0000000000008c55       0xea /Users/stevefar/nacl_sdk/pepper_45/toolchain/mac_x86_newlib/bin/../lib/gcc/x86_64-nacl/4.4.3/../../../../x86_64-nacl/lib/../lib64/libstdc++.a(ios_failure.o)
 .debug_pubnames
                0x0000000000008d3f      0x5f6 /Users/stevefar/nacl_sdk/pepper_45/toolchain/mac_x86_newlib/bin/../lib/gcc/x86_64-nacl/4.4.3/../../../../x86_64-nacl/lib/../lib64/libstdc++.a(stdexcept.o)
 .debug_pubnames
                0x0000000000009335      0x1ac /Users/stevefar/nacl_sdk/pepper_45/toolchain/mac_x86_newlib/bin/../lib/gcc/x86_64-nacl/4.4.3/../../../../x86_64-nacl/lib/../lib64/libstdc++.a(system_error.o)
 .debug_pubnames
                0x00000000000094e1       0x81 /Users/stevefar/nacl_sdk/pepper_45/toolchain/mac_x86_newlib/bin/../lib/gcc/x86_64-nacl/4.4.3/../../../../x86_64-nacl/lib/../lib64/libstdc++.a(bad_cast.o)
 .debug_pubnames
                0x0000000000009562       0x8f /Users/stevefar/nacl_sdk/pepper_45/toolchain/mac_x86_newlib/bin/../lib/gcc/x86_64-nacl/4.4.3/../../../../x86_64-nacl/lib/../lib64/libstdc++.a(bad_typeid.o)
 .debug_pubnames
                0x00000000000095f1      0x261 /Users/stevefar/nacl_sdk/pepper_45/toolchain/mac_x86_newlib/bin/../lib/gcc/x86_64-nacl/4.4.3/../../../../x86_64-nacl/lib/../lib64/libstdc++.a(eh_alloc.o)
 .debug_pubnames
                0x0000000000009852       0x2b /Users/stevefar/nacl_sdk/pepper_45/toolchain/mac_x86_newlib/bin/../lib/gcc/x86_64-nacl/4.4.3/../../../../x86_64-nacl/lib/../lib64/libstdc++.a(eh_call.o)
 .debug_pubnames
                0x000000000000987d      0x25e /Users/stevefar/nacl_sdk/pepper_45/toolchain/mac_x86_newlib/bin/../lib/gcc/x86_64-nacl/4.4.3/../../../../x86_64-nacl/lib/../lib64/libstdc++.a(eh_exception.o)
 .debug_pubnames
                0x0000000000009adb       0x36 /Users/stevefar/nacl_sdk/pepper_45/toolchain/mac_x86_newlib/bin/../lib/gcc/x86_64-nacl/4.4.3/../../../../x86_64-nacl/lib/../lib64/libstdc++.a(eh_term_handler.o)
 .debug_pubnames
                0x0000000000009b11       0xc4 /Users/stevefar/nacl_sdk/pepper_45/toolchain/mac_x86_newlib/bin/../lib/gcc/x86_64-nacl/4.4.3/../../../../x86_64-nacl/lib/../lib64/libstdc++.a(new_handler.o)
 .debug_pubnames
                0x0000000000009bd5       0x3d /Users/stevefar/nacl_sdk/pepper_45/toolchain/mac_x86_newlib/bin/../lib/gcc/x86_64-nacl/4.4.3/../../../../x86_64-nacl/lib/../lib64/libstdc++.a(vterminate.o)
 .debug_pubnames
                0x0000000000009c12       0x47 /Users/stevefar/nacl_sdk/pepper_45/toolchain/mac_x86_newlib/bin/../lib/gcc/x86_64-nacl/4.4.3/../../../../x86_64-nacl/lib/../lib64/libstdc++.a(cp-demangle.o)
 .debug_pubnames
                0x0000000000009c59       0x3f /Users/stevefar/nacl_sdk/pepper_45/toolchain/mac_x86_newlib/bin/../lib/gcc/x86_64-nacl/4.4.3/../../../../x86_64-nacl/lib/../lib64/libstdc++.a(eh_type.o)
 .debug_pubnames
                0x0000000000009c98      0x1c7 /Users/stevefar/nacl_sdk/pepper_45/toolchain/mac_x86_newlib/bin/../lib/gcc/x86_64-nacl/4.4.3/libgcc.a(unwind-dw2.o)
 .debug_pubnames
                0x0000000000009e5f      0x12c /Users/stevefar/nacl_sdk/pepper_45/toolchain/mac_x86_newlib/bin/../lib/gcc/x86_64-nacl/4.4.3/libgcc.a(unwind-dw2-fde-glibc.o)
 .debug_pubnames
                0x0000000000009f8b       0x1c /Users/stevefar/nacl_sdk/pepper_45/toolchain/mac_x86_newlib/bin/../lib/gcc/x86_64-nacl/4.4.3/../../../../x86_64-nacl/lib/../lib64/libnacl.a(_exit_710c7d0d.o)
 .debug_pubnames
                0x0000000000009fa7       0x1c /Users/stevefar/nacl_sdk/pepper_45/toolchain/mac_x86_newlib/bin/../lib/gcc/x86_64-nacl/4.4.3/../../../../x86_64-nacl/lib/../lib64/libnacl.a(abort_9f6b5845.o)
 .debug_pubnames
                0x0000000000009fc3       0x1e /Users/stevefar/nacl_sdk/pepper_45/toolchain/mac_x86_newlib/bin/../lib/gcc/x86_64-nacl/4.4.3/../../../../x86_64-nacl/lib/../lib64/libnacl.a(environ_25cd24d8.o)
 .debug_pubnames
                0x0000000000009fe1      0x1b7 /Users/stevefar/nacl_sdk/pepper_45/toolchain/mac_x86_newlib/bin/../lib/gcc/x86_64-nacl/4.4.3/../../../../x86_64-nacl/lib/../lib64/libnacl.a(malloc_222c4a1e.o)
 .debug_pubnames
                0x000000000000a198      0x148 /Users/stevefar/nacl_sdk/pepper_45/toolchain/mac_x86_newlib/bin/../lib/gcc/x86_64-nacl/4.4.3/../../../../x86_64-nacl/lib/../lib64/libnacl.a(nacl_irt_6de1d53f.o)
 .debug_pubnames
                0x000000000000a2e0       0x33 /Users/stevefar/nacl_sdk/pepper_45/toolchain/mac_x86_newlib/bin/../lib/gcc/x86_64-nacl/4.4.3/../../../../x86_64-nacl/lib/../lib64/libnacl.a(pthread_initialize_minimal_4b6e776b.o)
 .debug_pubnames
                0x000000000000a313       0x25 /Users/stevefar/nacl_sdk/pepper_45/toolchain/mac_x86_newlib/bin/../lib/gcc/x86_64-nacl/4.4.3/../../../../x86_64-nacl/lib/../lib64/libnacl.a(nacl_read_tp_5748ac47.o)
 .debug_pubnames
                0x000000000000a338       0x24 /Users/stevefar/nacl_sdk/pepper_45/toolchain/mac_x86_newlib/bin/../lib/gcc/x86_64-nacl/4.4.3/../../../../x86_64-nacl/lib/../lib64/libnacl.a(nacl_add_tp_7312c7c4.o)
 .debug_pubnames
                0x000000000000a35c       0x1b /Users/stevefar/nacl_sdk/pepper_45/toolchain/mac_x86_newlib/bin/../lib/gcc/x86_64-nacl/4.4.3/../../../../x86_64-nacl/lib/../lib64/libnacl.a(mmap_767fb080.o)
 .debug_pubnames
                0x000000000000a377       0x22 /Users/stevefar/nacl_sdk/pepper_45/toolchain/mac_x86_newlib/bin/../lib/gcc/x86_64-nacl/4.4.3/../../../../x86_64-nacl/lib/../lib64/libnacl.a(sched_yield_56c375be.o)
 .debug_pubnames
                0x000000000000a399       0x41 /Users/stevefar/nacl_sdk/pepper_45/toolchain/mac_x86_newlib/bin/../lib/gcc/x86_64-nacl/4.4.3/../../../../x86_64-nacl/lib/../lib64/libnacl.a(start_fa9ef7de.o)
 .debug_pubnames
                0x000000000000a3da       0x1d /Users/stevefar/nacl_sdk/pepper_45/toolchain/mac_x86_newlib/bin/../lib/gcc/x86_64-nacl/4.4.3/../../../../x86_64-nacl/lib/../lib64/libnacl.a(munmap_d4f09867.o)
 .debug_pubnames
                0x000000000000a3f7       0x50 /Users/stevefar/nacl_sdk/pepper_45/toolchain/mac_x86_newlib/bin/../lib/gcc/x86_64-nacl/4.4.3/../../../../x86_64-nacl/lib/../lib64/libnacl.a(tls_bba1975b.o)
 .debug_pubnames
                0x000000000000a447       0x1c /Users/stevefar/nacl_sdk/pepper_45/toolchain/mac_x86_newlib/bin/../lib/gcc/x86_64-nacl/4.4.3/../../../../x86_64-nacl/lib/../lib64/libnacl.a(write_fb49787f.o)
 .debug_pubnames
                0x000000000000a463       0x23 /Users/stevefar/nacl_sdk/pepper_45/toolchain/mac_x86_newlib/bin/../lib/gcc/x86_64-nacl/4.4.3/../../../../x86_64-nacl/lib/../lib64/libnacl.a(nacl_tls_get_d2f842b5.o)
 .debug_pubnames
                0x000000000000a486       0x29 /Users/stevefar/nacl_sdk/pepper_45/toolchain/mac_x86_newlib/bin/../lib/gcc/x86_64-nacl/4.4.3/../../../../x86_64-nacl/lib/../lib64/libnacl.a(nacl_irt_init_7b4f826e.o)
 .debug_pubnames
                0x000000000000a4af       0x1e /Users/stevefar/nacl_sdk/pepper_45/toolchain/mac_x86_newlib/bin/../lib/gcc/x86_64-nacl/4.4.3/../../../../x86_64-nacl/lib/../lib64/libnacl.a(sysconf_ad295ea2.o)
 .debug_pubnames
                0x000000000000a4cd       0x24 /Users/stevefar/nacl_sdk/pepper_45/toolchain/mac_x86_newlib/bin/../lib/gcc/x86_64-nacl/4.4.3/../../../../x86_64-nacl/lib/../lib64/libnacl.a(nacl_tls_init_eb0cd232.o)
 .debug_pubnames
                0x000000000000a4f1       0x1c /Users/stevefar/nacl_sdk/pepper_45/toolchain/mac_x86_newlib/bin/../lib/gcc/x86_64-nacl/4.4.3/../../../../x86_64-nacl/lib/../lib64/libnacl.a(close_e9b92fbd.o)
 .debug_pubnames
                0x000000000000a50d       0x1d /Users/stevefar/nacl_sdk/pepper_45/toolchain/mac_x86_newlib/bin/../lib/gcc/x86_64-nacl/4.4.3/../../../../x86_64-nacl/lib/../lib64/libnacl.a(isatty_02f56e94.o)
 .debug_pubnames
                0x000000000000a52a       0x32 /Users/stevefar/nacl_sdk/pepper_45/toolchain/mac_x86_newlib/bin/../lib/gcc/x86_64-nacl/4.4.3/../../../../x86_64-nacl/lib/../lib64/libnacl.a(nacl_irt_fdio_b571b5e7.o)
 .debug_pubnames
                0x000000000000a55c       0x1c /Users/stevefar/nacl_sdk/pepper_45/toolchain/mac_x86_newlib/bin/../lib/gcc/x86_64-nacl/4.4.3/../../../../x86_64-nacl/lib/../lib64/libnacl.a(fstat_0540ff63.o)
 .debug_pubnames
                0x000000000000a578       0x1c /Users/stevefar/nacl_sdk/pepper_45/toolchain/mac_x86_newlib/bin/../lib/gcc/x86_64-nacl/4.4.3/../../../../x86_64-nacl/lib/../lib64/libnacl.a(lseek_64d2d05c.o)
 .debug_pubnames
                0x000000000000a594       0x1b /Users/stevefar/nacl_sdk/pepper_45/toolchain/mac_x86_newlib/bin/../lib/gcc/x86_64-nacl/4.4.3/../../../../x86_64-nacl/lib/../lib64/libnacl.a(read_df872e10.o)

.debug_info     0x0000000000000000    0x76f0e
 *(.debug_info .gnu.linkonce.wi.*)
 .debug_info    0x0000000000000000     0x19bb newlib/Release/multi_platform_x86_64.o
 .debug_info    0x00000000000019bb     0x9ca3 /Users/stevefar/nacl_sdk/pepper_45/lib/newlib_x86_64/Release/libppapi_cpp.a(instance_x86_64.o)
 .debug_info    0x000000000000b65e     0xbe36 /Users/stevefar/nacl_sdk/pepper_45/lib/newlib_x86_64/Release/libppapi_cpp.a(module_x86_64.o)
 .debug_info    0x0000000000017494     0x1875 /Users/stevefar/nacl_sdk/pepper_45/lib/newlib_x86_64/Release/libppapi_cpp.a(ppp_entrypoints_x86_64.o)
 .debug_info    0x0000000000018d09     0x23bd /Users/stevefar/nacl_sdk/pepper_45/lib/newlib_x86_64/Release/libppapi_cpp.a(resource_x86_64.o)
 .debug_info    0x000000000001b0c6     0x3269 /Users/stevefar/nacl_sdk/pepper_45/lib/newlib_x86_64/Release/libppapi_cpp.a(url_loader_x86_64.o)
 .debug_info    0x000000000001e32f     0x2091 /Users/stevefar/nacl_sdk/pepper_45/lib/newlib_x86_64/Release/libppapi_cpp.a(url_response_info_x86_64.o)
 .debug_info    0x00000000000203c0     0x540b /Users/stevefar/nacl_sdk/pepper_45/lib/newlib_x86_64/Release/libppapi_cpp.a(var_x86_64.o)
 .debug_info    0x00000000000257cb     0x336e /Users/stevefar/nacl_sdk/pepper_45/lib/newlib_x86_64/Release/libppapi_cpp.a(view_x86_64.o)
 .debug_info    0x0000000000028b39     0x1ab5 /Users/stevefar/nacl_sdk/pepper_45/lib/newlib_x86_64/Release/libppapi_cpp.a(core_x86_64.o)
 .debug_info    0x000000000002a5ee     0x49c1 /Users/stevefar/nacl_sdk/pepper_45/lib/newlib_x86_64/Release/libppapi_cpp.a(file_ref_x86_64.o)
 .debug_info    0x000000000002efaf     0x6ec8 /Users/stevefar/nacl_sdk/pepper_45/lib/newlib_x86_64/Release/libppapi_cpp.a(input_event_x86_64.o)
 .debug_info    0x0000000000035e77       0x9e /Users/stevefar/nacl_sdk/pepper_45/toolchain/mac_x86_newlib/bin/../lib/gcc/x86_64-nacl/4.4.3/../../../../x86_64-nacl/lib/../lib64/libppapi_stub.a(plugin_main_irt_21ce9d26.o)
 .debug_info    0x0000000000035f15      0x163 /Users/stevefar/nacl_sdk/pepper_45/toolchain/mac_x86_newlib/bin/../lib/gcc/x86_64-nacl/4.4.3/../../../../x86_64-nacl/lib/../lib64/libppapi_stub.a(ppapi_plugin_main_399d0cf7.o)
 .debug_info    0x0000000000036078      0x423 /Users/stevefar/nacl_sdk/pepper_45/toolchain/mac_x86_newlib/bin/../lib/gcc/x86_64-nacl/4.4.3/../../../../x86_64-nacl/lib/../lib64/libppapi_stub.a(ppapi_plugin_start_8da67623.o)
 .debug_info    0x000000000003649b      0x308 /Users/stevefar/nacl_sdk/pepper_45/toolchain/mac_x86_newlib/bin/../lib/gcc/x86_64-nacl/4.4.3/../../../../x86_64-nacl/lib/../lib64/libppapi_stub.a(thread_creator_ccf263e1.o)
 .debug_info    0x00000000000367a3     0x162b /Users/stevefar/nacl_sdk/pepper_45/toolchain/mac_x86_newlib/bin/../lib/gcc/x86_64-nacl/4.4.3/../../../../x86_64-nacl/lib/../lib64/libpthread.a(nc_thread_7e478b15.o)
 .debug_info    0x0000000000037dce      0x78e /Users/stevefar/nacl_sdk/pepper_45/toolchain/mac_x86_newlib/bin/../lib/gcc/x86_64-nacl/4.4.3/../../../../x86_64-nacl/lib/../lib64/libpthread.a(nc_condvar_305aa45a.o)
 .debug_info    0x000000000003855c      0xbd1 /Users/stevefar/nacl_sdk/pepper_45/toolchain/mac_x86_newlib/bin/../lib/gcc/x86_64-nacl/4.4.3/../../../../x86_64-nacl/lib/../lib64/libpthread.a(dynamic_annotations_33ba59cc.o)
 .debug_info    0x000000000003912d      0x8f5 /Users/stevefar/nacl_sdk/pepper_45/toolchain/mac_x86_newlib/bin/../lib/gcc/x86_64-nacl/4.4.3/../../../../x86_64-nacl/lib/../lib64/libpthread.a(nc_mutex_86341ae1.o)
 .debug_info    0x0000000000039a22      0x248 /Users/stevefar/nacl_sdk/pepper_45/toolchain/mac_x86_newlib/bin/../lib/gcc/x86_64-nacl/4.4.3/../../../../x86_64-nacl/lib/../lib64/libpthread.a(nc_init_irt_d3daafc0.o)
 .debug_info    0x0000000000039c6a      0xa0a /Users/stevefar/nacl_sdk/pepper_45/toolchain/mac_x86_newlib/bin/../lib/gcc/x86_64-nacl/4.4.3/../../../../x86_64-nacl/lib/../lib64/libstdc++.a(tree.o)
 .debug_info    0x000000000003a674     0xdd45 /Users/stevefar/nacl_sdk/pepper_45/toolchain/mac_x86_newlib/bin/../lib/gcc/x86_64-nacl/4.4.3/../../../../x86_64-nacl/lib/../lib64/libstdc++.a(string-inst.o)
 .debug_info    0x00000000000483b9      0x803 /Users/stevefar/nacl_sdk/pepper_45/toolchain/mac_x86_newlib/bin/../lib/gcc/x86_64-nacl/4.4.3/../../../../x86_64-nacl/lib/../lib64/libstdc++.a(class_type_info.o)
 .debug_info    0x0000000000048bbc      0x45b /Users/stevefar/nacl_sdk/pepper_45/toolchain/mac_x86_newlib/bin/../lib/gcc/x86_64-nacl/4.4.3/../../../../x86_64-nacl/lib/../lib64/libstdc++.a(del_op.o)
 .debug_info    0x0000000000049017      0x902 /Users/stevefar/nacl_sdk/pepper_45/toolchain/mac_x86_newlib/bin/../lib/gcc/x86_64-nacl/4.4.3/../../../../x86_64-nacl/lib/../lib64/libstdc++.a(eh_catch.o)
 .debug_info    0x0000000000049919      0xa5b /Users/stevefar/nacl_sdk/pepper_45/toolchain/mac_x86_newlib/bin/../lib/gcc/x86_64-nacl/4.4.3/../../../../x86_64-nacl/lib/../lib64/libstdc++.a(eh_globals.o)
 .debug_info    0x000000000004a374     0x180e /Users/stevefar/nacl_sdk/pepper_45/toolchain/mac_x86_newlib/bin/../lib/gcc/x86_64-nacl/4.4.3/../../../../x86_64-nacl/lib/../lib64/libstdc++.a(eh_personality.o)
 .debug_info    0x000000000004bb82      0x68d /Users/stevefar/nacl_sdk/pepper_45/toolchain/mac_x86_newlib/bin/../lib/gcc/x86_64-nacl/4.4.3/../../../../x86_64-nacl/lib/../lib64/libstdc++.a(eh_terminate.o)
 .debug_info    0x000000000004c20f      0x556 /Users/stevefar/nacl_sdk/pepper_45/toolchain/mac_x86_newlib/bin/../lib/gcc/x86_64-nacl/4.4.3/../../../../x86_64-nacl/lib/../lib64/libstdc++.a(eh_throw.o)
 .debug_info    0x000000000004c765      0x111 /Users/stevefar/nacl_sdk/pepper_45/toolchain/mac_x86_newlib/bin/../lib/gcc/x86_64-nacl/4.4.3/../../../../x86_64-nacl/lib/../lib64/libstdc++.a(eh_unex_handler.o)
 .debug_info    0x000000000004c876     0x1016 /Users/stevefar/nacl_sdk/pepper_45/toolchain/mac_x86_newlib/bin/../lib/gcc/x86_64-nacl/4.4.3/../../../../x86_64-nacl/lib/../lib64/libstdc++.a(guard.o)
 .debug_info    0x000000000004d88c      0x540 /Users/stevefar/nacl_sdk/pepper_45/toolchain/mac_x86_newlib/bin/../lib/gcc/x86_64-nacl/4.4.3/../../../../x86_64-nacl/lib/../lib64/libstdc++.a(new_op.o)
 .debug_info    0x000000000004ddcc      0x137 /Users/stevefar/nacl_sdk/pepper_45/toolchain/mac_x86_newlib/bin/../lib/gcc/x86_64-nacl/4.4.3/../../../../x86_64-nacl/lib/../lib64/libstdc++.a(pure.o)
 .debug_info    0x000000000004df03      0x6b6 /Users/stevefar/nacl_sdk/pepper_45/toolchain/mac_x86_newlib/bin/../lib/gcc/x86_64-nacl/4.4.3/../../../../x86_64-nacl/lib/../lib64/libstdc++.a(si_class_type_info.o)
 .debug_info    0x000000000004e5b9      0x49d /Users/stevefar/nacl_sdk/pepper_45/toolchain/mac_x86_newlib/bin/../lib/gcc/x86_64-nacl/4.4.3/../../../../x86_64-nacl/lib/../lib64/libstdc++.a(tinfo.o)
 .debug_info    0x000000000004ea56     0x5e7f /Users/stevefar/nacl_sdk/pepper_45/toolchain/mac_x86_newlib/bin/../lib/gcc/x86_64-nacl/4.4.3/../../../../x86_64-nacl/lib/../lib64/libstdc++.a(functexcept.o)
 .debug_info    0x00000000000548d5     0x425a /Users/stevefar/nacl_sdk/pepper_45/toolchain/mac_x86_newlib/bin/../lib/gcc/x86_64-nacl/4.4.3/../../../../x86_64-nacl/lib/../lib64/libstdc++.a(ios_failure.o)
 .debug_info    0x0000000000058b2f     0x436b /Users/stevefar/nacl_sdk/pepper_45/toolchain/mac_x86_newlib/bin/../lib/gcc/x86_64-nacl/4.4.3/../../../../x86_64-nacl/lib/../lib64/libstdc++.a(stdexcept.o)
 .debug_info    0x000000000005ce9a     0x4271 /Users/stevefar/nacl_sdk/pepper_45/toolchain/mac_x86_newlib/bin/../lib/gcc/x86_64-nacl/4.4.3/../../../../x86_64-nacl/lib/../lib64/libstdc++.a(system_error.o)
 .debug_info    0x000000000006110b      0x1a7 /Users/stevefar/nacl_sdk/pepper_45/toolchain/mac_x86_newlib/bin/../lib/gcc/x86_64-nacl/4.4.3/../../../../x86_64-nacl/lib/../lib64/libstdc++.a(bad_cast.o)
 .debug_info    0x00000000000612b2      0x1a7 /Users/stevefar/nacl_sdk/pepper_45/toolchain/mac_x86_newlib/bin/../lib/gcc/x86_64-nacl/4.4.3/../../../../x86_64-nacl/lib/../lib64/libstdc++.a(bad_typeid.o)
 .debug_info    0x0000000000061459     0x1691 /Users/stevefar/nacl_sdk/pepper_45/toolchain/mac_x86_newlib/bin/../lib/gcc/x86_64-nacl/4.4.3/../../../../x86_64-nacl/lib/../lib64/libstdc++.a(eh_alloc.o)
 .debug_info    0x0000000000062aea      0x702 /Users/stevefar/nacl_sdk/pepper_45/toolchain/mac_x86_newlib/bin/../lib/gcc/x86_64-nacl/4.4.3/../../../../x86_64-nacl/lib/../lib64/libstdc++.a(eh_call.o)
 .debug_info    0x00000000000631ec      0x5a4 /Users/stevefar/nacl_sdk/pepper_45/toolchain/mac_x86_newlib/bin/../lib/gcc/x86_64-nacl/4.4.3/../../../../x86_64-nacl/lib/../lib64/libstdc++.a(eh_exception.o)
 .debug_info    0x0000000000063790      0x111 /Users/stevefar/nacl_sdk/pepper_45/toolchain/mac_x86_newlib/bin/../lib/gcc/x86_64-nacl/4.4.3/../../../../x86_64-nacl/lib/../lib64/libstdc++.a(eh_term_handler.o)
 .debug_info    0x00000000000638a1      0x290 /Users/stevefar/nacl_sdk/pepper_45/toolchain/mac_x86_newlib/bin/../lib/gcc/x86_64-nacl/4.4.3/../../../../x86_64-nacl/lib/../lib64/libstdc++.a(new_handler.o)
 .debug_info    0x0000000000063b31     0x1264 /Users/stevefar/nacl_sdk/pepper_45/toolchain/mac_x86_newlib/bin/../lib/gcc/x86_64-nacl/4.4.3/../../../../x86_64-nacl/lib/../lib64/libstdc++.a(vterminate.o)
 .debug_info    0x0000000000064d95     0x3a52 /Users/stevefar/nacl_sdk/pepper_45/toolchain/mac_x86_newlib/bin/../lib/gcc/x86_64-nacl/4.4.3/../../../../x86_64-nacl/lib/../lib64/libstdc++.a(cp-demangle.o)
 .debug_info    0x00000000000687e7      0x4b7 /Users/stevefar/nacl_sdk/pepper_45/toolchain/mac_x86_newlib/bin/../lib/gcc/x86_64-nacl/4.4.3/../../../../x86_64-nacl/lib/../lib64/libstdc++.a(eh_type.o)
 .debug_info    0x0000000000068c9e     0x39bd /Users/stevefar/nacl_sdk/pepper_45/toolchain/mac_x86_newlib/bin/../lib/gcc/x86_64-nacl/4.4.3/libgcc.a(unwind-dw2.o)
 .debug_info    0x000000000006c65b     0x1dec /Users/stevefar/nacl_sdk/pepper_45/toolchain/mac_x86_newlib/bin/../lib/gcc/x86_64-nacl/4.4.3/libgcc.a(unwind-dw2-fde-glibc.o)
 .debug_info    0x000000000006e447      0x24d /Users/stevefar/nacl_sdk/pepper_45/toolchain/mac_x86_newlib/bin/../lib/gcc/x86_64-nacl/4.4.3/../../../../x86_64-nacl/lib/../lib64/libnacl.a(_exit_710c7d0d.o)
 .debug_info    0x000000000006e694       0xca /Users/stevefar/nacl_sdk/pepper_45/toolchain/mac_x86_newlib/bin/../lib/gcc/x86_64-nacl/4.4.3/../../../../x86_64-nacl/lib/../lib64/libnacl.a(abort_9f6b5845.o)
 .debug_info    0x000000000006e75e       0x7f /Users/stevefar/nacl_sdk/pepper_45/toolchain/mac_x86_newlib/bin/../lib/gcc/x86_64-nacl/4.4.3/../../../../x86_64-nacl/lib/../lib64/libnacl.a(environ_25cd24d8.o)
 .debug_info    0x000000000006e7dd     0x43ea /Users/stevefar/nacl_sdk/pepper_45/toolchain/mac_x86_newlib/bin/../lib/gcc/x86_64-nacl/4.4.3/../../../../x86_64-nacl/lib/../lib64/libnacl.a(malloc_222c4a1e.o)
 .debug_info    0x0000000000072bc7      0xd97 /Users/stevefar/nacl_sdk/pepper_45/toolchain/mac_x86_newlib/bin/../lib/gcc/x86_64-nacl/4.4.3/../../../../x86_64-nacl/lib/../lib64/libnacl.a(nacl_irt_6de1d53f.o)
 .debug_info    0x000000000007395e       0xe4 /Users/stevefar/nacl_sdk/pepper_45/toolchain/mac_x86_newlib/bin/../lib/gcc/x86_64-nacl/4.4.3/../../../../x86_64-nacl/lib/../lib64/libnacl.a(pthread_initialize_minimal_4b6e776b.o)
 .debug_info    0x0000000000073a42       0xa0 /Users/stevefar/nacl_sdk/pepper_45/toolchain/mac_x86_newlib/bin/../lib/gcc/x86_64-nacl/4.4.3/../../../../x86_64-nacl/lib/../lib64/libnacl.a(nacl_read_tp_5748ac47.o)
 .debug_info    0x0000000000073ae2       0xbc /Users/stevefar/nacl_sdk/pepper_45/toolchain/mac_x86_newlib/bin/../lib/gcc/x86_64-nacl/4.4.3/../../../../x86_64-nacl/lib/../lib64/libnacl.a(nacl_add_tp_7312c7c4.o)
 .debug_info    0x0000000000073b9e      0x205 /Users/stevefar/nacl_sdk/pepper_45/toolchain/mac_x86_newlib/bin/../lib/gcc/x86_64-nacl/4.4.3/../../../../x86_64-nacl/lib/../lib64/libnacl.a(mmap_767fb080.o)
 .debug_info    0x0000000000073da3      0x251 /Users/stevefar/nacl_sdk/pepper_45/toolchain/mac_x86_newlib/bin/../lib/gcc/x86_64-nacl/4.4.3/../../../../x86_64-nacl/lib/../lib64/libnacl.a(sched_yield_56c375be.o)
 .debug_info    0x0000000000073ff4      0x365 /Users/stevefar/nacl_sdk/pepper_45/toolchain/mac_x86_newlib/bin/../lib/gcc/x86_64-nacl/4.4.3/../../../../x86_64-nacl/lib/../lib64/libnacl.a(start_fa9ef7de.o)
 .debug_info    0x0000000000074359      0x1b3 /Users/stevefar/nacl_sdk/pepper_45/toolchain/mac_x86_newlib/bin/../lib/gcc/x86_64-nacl/4.4.3/../../../../x86_64-nacl/lib/../lib64/libnacl.a(munmap_d4f09867.o)
 .debug_info    0x000000000007450c      0x873 /Users/stevefar/nacl_sdk/pepper_45/toolchain/mac_x86_newlib/bin/../lib/gcc/x86_64-nacl/4.4.3/../../../../x86_64-nacl/lib/../lib64/libnacl.a(tls_bba1975b.o)
 .debug_info    0x0000000000074d7f      0x2d3 /Users/stevefar/nacl_sdk/pepper_45/toolchain/mac_x86_newlib/bin/../lib/gcc/x86_64-nacl/4.4.3/../../../../x86_64-nacl/lib/../lib64/libnacl.a(write_fb49787f.o)
 .debug_info    0x0000000000075052       0xfb /Users/stevefar/nacl_sdk/pepper_45/toolchain/mac_x86_newlib/bin/../lib/gcc/x86_64-nacl/4.4.3/../../../../x86_64-nacl/lib/../lib64/libnacl.a(nacl_tls_get_d2f842b5.o)
 .debug_info    0x000000000007514d      0x6d7 /Users/stevefar/nacl_sdk/pepper_45/toolchain/mac_x86_newlib/bin/../lib/gcc/x86_64-nacl/4.4.3/../../../../x86_64-nacl/lib/../lib64/libnacl.a(nacl_irt_init_7b4f826e.o)
 .debug_info    0x0000000000075824      0x26f /Users/stevefar/nacl_sdk/pepper_45/toolchain/mac_x86_newlib/bin/../lib/gcc/x86_64-nacl/4.4.3/../../../../x86_64-nacl/lib/../lib64/libnacl.a(sysconf_ad295ea2.o)
 .debug_info    0x0000000000075a93      0x10f /Users/stevefar/nacl_sdk/pepper_45/toolchain/mac_x86_newlib/bin/../lib/gcc/x86_64-nacl/4.4.3/../../../../x86_64-nacl/lib/../lib64/libnacl.a(nacl_tls_init_eb0cd232.o)
 .debug_info    0x0000000000075ba2      0x2a6 /Users/stevefar/nacl_sdk/pepper_45/toolchain/mac_x86_newlib/bin/../lib/gcc/x86_64-nacl/4.4.3/../../../../x86_64-nacl/lib/../lib64/libnacl.a(close_e9b92fbd.o)
 .debug_info    0x0000000000075e48      0x349 /Users/stevefar/nacl_sdk/pepper_45/toolchain/mac_x86_newlib/bin/../lib/gcc/x86_64-nacl/4.4.3/../../../../x86_64-nacl/lib/../lib64/libnacl.a(isatty_02f56e94.o)
 .debug_info    0x0000000000076191      0x314 /Users/stevefar/nacl_sdk/pepper_45/toolchain/mac_x86_newlib/bin/../lib/gcc/x86_64-nacl/4.4.3/../../../../x86_64-nacl/lib/../lib64/libnacl.a(nacl_irt_fdio_b571b5e7.o)
 .debug_info    0x00000000000764a5      0x4ad /Users/stevefar/nacl_sdk/pepper_45/toolchain/mac_x86_newlib/bin/../lib/gcc/x86_64-nacl/4.4.3/../../../../x86_64-nacl/lib/../lib64/libnacl.a(fstat_0540ff63.o)
 .debug_info    0x0000000000076952      0x2e9 /Users/stevefar/nacl_sdk/pepper_45/toolchain/mac_x86_newlib/bin/../lib/gcc/x86_64-nacl/4.4.3/../../../../x86_64-nacl/lib/../lib64/libnacl.a(lseek_64d2d05c.o)
 .debug_info    0x0000000000076c3b      0x2d3 /Users/stevefar/nacl_sdk/pepper_45/toolchain/mac_x86_newlib/bin/../lib/gcc/x86_64-nacl/4.4.3/../../../../x86_64-nacl/lib/../lib64/libnacl.a(read_df872e10.o)

.debug_abbrev   0x0000000000000000     0xcaf8
 *(.debug_abbrev)
 .debug_abbrev  0x0000000000000000      0x354 newlib/Release/multi_platform_x86_64.o
 .debug_abbrev  0x0000000000000354      0x846 /Users/stevefar/nacl_sdk/pepper_45/lib/newlib_x86_64/Release/libppapi_cpp.a(instance_x86_64.o)
 .debug_abbrev  0x0000000000000b9a      0x867 /Users/stevefar/nacl_sdk/pepper_45/lib/newlib_x86_64/Release/libppapi_cpp.a(module_x86_64.o)
 .debug_abbrev  0x0000000000001401      0x2e8 /Users/stevefar/nacl_sdk/pepper_45/lib/newlib_x86_64/Release/libppapi_cpp.a(ppp_entrypoints_x86_64.o)
 .debug_abbrev  0x00000000000016e9      0x462 /Users/stevefar/nacl_sdk/pepper_45/lib/newlib_x86_64/Release/libppapi_cpp.a(resource_x86_64.o)
 .debug_abbrev  0x0000000000001b4b      0x4d1 /Users/stevefar/nacl_sdk/pepper_45/lib/newlib_x86_64/Release/libppapi_cpp.a(url_loader_x86_64.o)
 .debug_abbrev  0x000000000000201c      0x3f7 /Users/stevefar/nacl_sdk/pepper_45/lib/newlib_x86_64/Release/libppapi_cpp.a(url_response_info_x86_64.o)
 .debug_abbrev  0x0000000000002413      0x732 /Users/stevefar/nacl_sdk/pepper_45/lib/newlib_x86_64/Release/libppapi_cpp.a(var_x86_64.o)
 .debug_abbrev  0x0000000000002b45      0x493 /Users/stevefar/nacl_sdk/pepper_45/lib/newlib_x86_64/Release/libppapi_cpp.a(view_x86_64.o)
 .debug_abbrev  0x0000000000002fd8      0x372 /Users/stevefar/nacl_sdk/pepper_45/lib/newlib_x86_64/Release/libppapi_cpp.a(core_x86_64.o)
 .debug_abbrev  0x000000000000334a      0x63e /Users/stevefar/nacl_sdk/pepper_45/lib/newlib_x86_64/Release/libppapi_cpp.a(file_ref_x86_64.o)
 .debug_abbrev  0x0000000000003988      0x70f /Users/stevefar/nacl_sdk/pepper_45/lib/newlib_x86_64/Release/libppapi_cpp.a(input_event_x86_64.o)
 .debug_abbrev  0x0000000000004097       0x4a /Users/stevefar/nacl_sdk/pepper_45/toolchain/mac_x86_newlib/bin/../lib/gcc/x86_64-nacl/4.4.3/../../../../x86_64-nacl/lib/../lib64/libppapi_stub.a(plugin_main_irt_21ce9d26.o)
 .debug_abbrev  0x00000000000040e1       0xbb /Users/stevefar/nacl_sdk/pepper_45/toolchain/mac_x86_newlib/bin/../lib/gcc/x86_64-nacl/4.4.3/../../../../x86_64-nacl/lib/../lib64/libppapi_stub.a(ppapi_plugin_main_399d0cf7.o)
 .debug_abbrev  0x000000000000419c      0x19e /Users/stevefar/nacl_sdk/pepper_45/toolchain/mac_x86_newlib/bin/../lib/gcc/x86_64-nacl/4.4.3/../../../../x86_64-nacl/lib/../lib64/libppapi_stub.a(ppapi_plugin_start_8da67623.o)
 .debug_abbrev  0x000000000000433a      0x109 /Users/stevefar/nacl_sdk/pepper_45/toolchain/mac_x86_newlib/bin/../lib/gcc/x86_64-nacl/4.4.3/../../../../x86_64-nacl/lib/../lib64/libppapi_stub.a(thread_creator_ccf263e1.o)
 .debug_abbrev  0x0000000000004443      0x448 /Users/stevefar/nacl_sdk/pepper_45/toolchain/mac_x86_newlib/bin/../lib/gcc/x86_64-nacl/4.4.3/../../../../x86_64-nacl/lib/../lib64/libpthread.a(nc_thread_7e478b15.o)
 .debug_abbrev  0x000000000000488b      0x19c /Users/stevefar/nacl_sdk/pepper_45/toolchain/mac_x86_newlib/bin/../lib/gcc/x86_64-nacl/4.4.3/../../../../x86_64-nacl/lib/../lib64/libpthread.a(nc_condvar_305aa45a.o)
 .debug_abbrev  0x0000000000004a27       0xfc /Users/stevefar/nacl_sdk/pepper_45/toolchain/mac_x86_newlib/bin/../lib/gcc/x86_64-nacl/4.4.3/../../../../x86_64-nacl/lib/../lib64/libpthread.a(dynamic_annotations_33ba59cc.o)
 .debug_abbrev  0x0000000000004b23      0x213 /Users/stevefar/nacl_sdk/pepper_45/toolchain/mac_x86_newlib/bin/../lib/gcc/x86_64-nacl/4.4.3/../../../../x86_64-nacl/lib/../lib64/libpthread.a(nc_mutex_86341ae1.o)
 .debug_abbrev  0x0000000000004d36       0xed /Users/stevefar/nacl_sdk/pepper_45/toolchain/mac_x86_newlib/bin/../lib/gcc/x86_64-nacl/4.4.3/../../../../x86_64-nacl/lib/../lib64/libpthread.a(nc_init_irt_d3daafc0.o)
 .debug_abbrev  0x0000000000004e23      0x312 /Users/stevefar/nacl_sdk/pepper_45/toolchain/mac_x86_newlib/bin/../lib/gcc/x86_64-nacl/4.4.3/../../../../x86_64-nacl/lib/../lib64/libstdc++.a(tree.o)
 .debug_abbrev  0x0000000000005135      0x7b1 /Users/stevefar/nacl_sdk/pepper_45/toolchain/mac_x86_newlib/bin/../lib/gcc/x86_64-nacl/4.4.3/../../../../x86_64-nacl/lib/../lib64/libstdc++.a(string-inst.o)
 .debug_abbrev  0x00000000000058e6      0x383 /Users/stevefar/nacl_sdk/pepper_45/toolchain/mac_x86_newlib/bin/../lib/gcc/x86_64-nacl/4.4.3/../../../../x86_64-nacl/lib/../lib64/libstdc++.a(class_type_info.o)
 .debug_abbrev  0x0000000000005c69      0x125 /Users/stevefar/nacl_sdk/pepper_45/toolchain/mac_x86_newlib/bin/../lib/gcc/x86_64-nacl/4.4.3/../../../../x86_64-nacl/lib/../lib64/libstdc++.a(del_op.o)
 .debug_abbrev  0x0000000000005d8e      0x284 /Users/stevefar/nacl_sdk/pepper_45/toolchain/mac_x86_newlib/bin/../lib/gcc/x86_64-nacl/4.4.3/../../../../x86_64-nacl/lib/../lib64/libstdc++.a(eh_catch.o)
 .debug_abbrev  0x0000000000006012      0x2fa /Users/stevefar/nacl_sdk/pepper_45/toolchain/mac_x86_newlib/bin/../lib/gcc/x86_64-nacl/4.4.3/../../../../x86_64-nacl/lib/../lib64/libstdc++.a(eh_globals.o)
 .debug_abbrev  0x000000000000630c      0x491 /Users/stevefar/nacl_sdk/pepper_45/toolchain/mac_x86_newlib/bin/../lib/gcc/x86_64-nacl/4.4.3/../../../../x86_64-nacl/lib/../lib64/libstdc++.a(eh_personality.o)
 .debug_abbrev  0x000000000000679d      0x1e3 /Users/stevefar/nacl_sdk/pepper_45/toolchain/mac_x86_newlib/bin/../lib/gcc/x86_64-nacl/4.4.3/../../../../x86_64-nacl/lib/../lib64/libstdc++.a(eh_terminate.o)
 .debug_abbrev  0x0000000000006980      0x239 /Users/stevefar/nacl_sdk/pepper_45/toolchain/mac_x86_newlib/bin/../lib/gcc/x86_64-nacl/4.4.3/../../../../x86_64-nacl/lib/../lib64/libstdc++.a(eh_throw.o)
 .debug_abbrev  0x0000000000006bb9       0xb1 /Users/stevefar/nacl_sdk/pepper_45/toolchain/mac_x86_newlib/bin/../lib/gcc/x86_64-nacl/4.4.3/../../../../x86_64-nacl/lib/../lib64/libstdc++.a(eh_unex_handler.o)
 .debug_abbrev  0x0000000000006c6a      0x4dc /Users/stevefar/nacl_sdk/pepper_45/toolchain/mac_x86_newlib/bin/../lib/gcc/x86_64-nacl/4.4.3/../../../../x86_64-nacl/lib/../lib64/libstdc++.a(guard.o)
 .debug_abbrev  0x0000000000007146      0x1b7 /Users/stevefar/nacl_sdk/pepper_45/toolchain/mac_x86_newlib/bin/../lib/gcc/x86_64-nacl/4.4.3/../../../../x86_64-nacl/lib/../lib64/libstdc++.a(new_op.o)
 .debug_abbrev  0x00000000000072fd       0xb1 /Users/stevefar/nacl_sdk/pepper_45/toolchain/mac_x86_newlib/bin/../lib/gcc/x86_64-nacl/4.4.3/../../../../x86_64-nacl/lib/../lib64/libstdc++.a(pure.o)
 .debug_abbrev  0x00000000000073ae      0x313 /Users/stevefar/nacl_sdk/pepper_45/toolchain/mac_x86_newlib/bin/../lib/gcc/x86_64-nacl/4.4.3/../../../../x86_64-nacl/lib/../lib64/libstdc++.a(si_class_type_info.o)
 .debug_abbrev  0x00000000000076c1      0x239 /Users/stevefar/nacl_sdk/pepper_45/toolchain/mac_x86_newlib/bin/../lib/gcc/x86_64-nacl/4.4.3/../../../../x86_64-nacl/lib/../lib64/libstdc++.a(tinfo.o)
 .debug_abbrev  0x00000000000078fa      0x730 /Users/stevefar/nacl_sdk/pepper_45/toolchain/mac_x86_newlib/bin/../lib/gcc/x86_64-nacl/4.4.3/../../../../x86_64-nacl/lib/../lib64/libstdc++.a(functexcept.o)
 .debug_abbrev  0x000000000000802a      0x685 /Users/stevefar/nacl_sdk/pepper_45/toolchain/mac_x86_newlib/bin/../lib/gcc/x86_64-nacl/4.4.3/../../../../x86_64-nacl/lib/../lib64/libstdc++.a(ios_failure.o)
 .debug_abbrev  0x00000000000086af      0x572 /Users/stevefar/nacl_sdk/pepper_45/toolchain/mac_x86_newlib/bin/../lib/gcc/x86_64-nacl/4.4.3/../../../../x86_64-nacl/lib/../lib64/libstdc++.a(stdexcept.o)
 .debug_abbrev  0x0000000000008c21      0x6d0 /Users/stevefar/nacl_sdk/pepper_45/toolchain/mac_x86_newlib/bin/../lib/gcc/x86_64-nacl/4.4.3/../../../../x86_64-nacl/lib/../lib64/libstdc++.a(system_error.o)
 .debug_abbrev  0x00000000000092f1      0x10e /Users/stevefar/nacl_sdk/pepper_45/toolchain/mac_x86_newlib/bin/../lib/gcc/x86_64-nacl/4.4.3/../../../../x86_64-nacl/lib/../lib64/libstdc++.a(bad_cast.o)
 .debug_abbrev  0x00000000000093ff      0x10e /Users/stevefar/nacl_sdk/pepper_45/toolchain/mac_x86_newlib/bin/../lib/gcc/x86_64-nacl/4.4.3/../../../../x86_64-nacl/lib/../lib64/libstdc++.a(bad_typeid.o)
 .debug_abbrev  0x000000000000950d      0x49c /Users/stevefar/nacl_sdk/pepper_45/toolchain/mac_x86_newlib/bin/../lib/gcc/x86_64-nacl/4.4.3/../../../../x86_64-nacl/lib/../lib64/libstdc++.a(eh_alloc.o)
 .debug_abbrev  0x00000000000099a9      0x1f3 /Users/stevefar/nacl_sdk/pepper_45/toolchain/mac_x86_newlib/bin/../lib/gcc/x86_64-nacl/4.4.3/../../../../x86_64-nacl/lib/../lib64/libstdc++.a(eh_call.o)
 .debug_abbrev  0x0000000000009b9c      0x1e8 /Users/stevefar/nacl_sdk/pepper_45/toolchain/mac_x86_newlib/bin/../lib/gcc/x86_64-nacl/4.4.3/../../../../x86_64-nacl/lib/../lib64/libstdc++.a(eh_exception.o)
 .debug_abbrev  0x0000000000009d84       0xb1 /Users/stevefar/nacl_sdk/pepper_45/toolchain/mac_x86_newlib/bin/../lib/gcc/x86_64-nacl/4.4.3/../../../../x86_64-nacl/lib/../lib64/libstdc++.a(eh_term_handler.o)
 .debug_abbrev  0x0000000000009e35      0x1c0 /Users/stevefar/nacl_sdk/pepper_45/toolchain/mac_x86_newlib/bin/../lib/gcc/x86_64-nacl/4.4.3/../../../../x86_64-nacl/lib/../lib64/libstdc++.a(new_handler.o)
 .debug_abbrev  0x0000000000009ff5      0x2b7 /Users/stevefar/nacl_sdk/pepper_45/toolchain/mac_x86_newlib/bin/../lib/gcc/x86_64-nacl/4.4.3/../../../../x86_64-nacl/lib/../lib64/libstdc++.a(vterminate.o)
 .debug_abbrev  0x000000000000a2ac      0x31b /Users/stevefar/nacl_sdk/pepper_45/toolchain/mac_x86_newlib/bin/../lib/gcc/x86_64-nacl/4.4.3/../../../../x86_64-nacl/lib/../lib64/libstdc++.a(cp-demangle.o)
 .debug_abbrev  0x000000000000a5c7      0x1b8 /Users/stevefar/nacl_sdk/pepper_45/toolchain/mac_x86_newlib/bin/../lib/gcc/x86_64-nacl/4.4.3/../../../../x86_64-nacl/lib/../lib64/libstdc++.a(eh_type.o)
 .debug_abbrev  0x000000000000a77f      0x578 /Users/stevefar/nacl_sdk/pepper_45/toolchain/mac_x86_newlib/bin/../lib/gcc/x86_64-nacl/4.4.3/libgcc.a(unwind-dw2.o)
 .debug_abbrev  0x000000000000acf7      0x49c /Users/stevefar/nacl_sdk/pepper_45/toolchain/mac_x86_newlib/bin/../lib/gcc/x86_64-nacl/4.4.3/libgcc.a(unwind-dw2-fde-glibc.o)
 .debug_abbrev  0x000000000000b193       0xcb /Users/stevefar/nacl_sdk/pepper_45/toolchain/mac_x86_newlib/bin/../lib/gcc/x86_64-nacl/4.4.3/../../../../x86_64-nacl/lib/../lib64/libnacl.a(_exit_710c7d0d.o)
 .debug_abbrev  0x000000000000b25e       0x72 /Users/stevefar/nacl_sdk/pepper_45/toolchain/mac_x86_newlib/bin/../lib/gcc/x86_64-nacl/4.4.3/../../../../x86_64-nacl/lib/../lib64/libnacl.a(abort_9f6b5845.o)
 .debug_abbrev  0x000000000000b2d0       0x63 /Users/stevefar/nacl_sdk/pepper_45/toolchain/mac_x86_newlib/bin/../lib/gcc/x86_64-nacl/4.4.3/../../../../x86_64-nacl/lib/../lib64/libnacl.a(environ_25cd24d8.o)
 .debug_abbrev  0x000000000000b333      0x3f9 /Users/stevefar/nacl_sdk/pepper_45/toolchain/mac_x86_newlib/bin/../lib/gcc/x86_64-nacl/4.4.3/../../../../x86_64-nacl/lib/../lib64/libnacl.a(malloc_222c4a1e.o)
 .debug_abbrev  0x000000000000b72c      0x215 /Users/stevefar/nacl_sdk/pepper_45/toolchain/mac_x86_newlib/bin/../lib/gcc/x86_64-nacl/4.4.3/../../../../x86_64-nacl/lib/../lib64/libnacl.a(nacl_irt_6de1d53f.o)
 .debug_abbrev  0x000000000000b941       0x89 /Users/stevefar/nacl_sdk/pepper_45/toolchain/mac_x86_newlib/bin/../lib/gcc/x86_64-nacl/4.4.3/../../../../x86_64-nacl/lib/../lib64/libnacl.a(pthread_initialize_minimal_4b6e776b.o)
 .debug_abbrev  0x000000000000b9ca       0x51 /Users/stevefar/nacl_sdk/pepper_45/toolchain/mac_x86_newlib/bin/../lib/gcc/x86_64-nacl/4.4.3/../../../../x86_64-nacl/lib/../lib64/libnacl.a(nacl_read_tp_5748ac47.o)
 .debug_abbrev  0x000000000000ba1b       0x6d /Users/stevefar/nacl_sdk/pepper_45/toolchain/mac_x86_newlib/bin/../lib/gcc/x86_64-nacl/4.4.3/../../../../x86_64-nacl/lib/../lib64/libnacl.a(nacl_add_tp_7312c7c4.o)
 .debug_abbrev  0x000000000000ba88       0xc8 /Users/stevefar/nacl_sdk/pepper_45/toolchain/mac_x86_newlib/bin/../lib/gcc/x86_64-nacl/4.4.3/../../../../x86_64-nacl/lib/../lib64/libnacl.a(mmap_767fb080.o)
 .debug_abbrev  0x000000000000bb50       0xcd /Users/stevefar/nacl_sdk/pepper_45/toolchain/mac_x86_newlib/bin/../lib/gcc/x86_64-nacl/4.4.3/../../../../x86_64-nacl/lib/../lib64/libnacl.a(sched_yield_56c375be.o)
 .debug_abbrev  0x000000000000bc1d      0x197 /Users/stevefar/nacl_sdk/pepper_45/toolchain/mac_x86_newlib/bin/../lib/gcc/x86_64-nacl/4.4.3/../../../../x86_64-nacl/lib/../lib64/libnacl.a(start_fa9ef7de.o)
 .debug_abbrev  0x000000000000bdb4       0xc8 /Users/stevefar/nacl_sdk/pepper_45/toolchain/mac_x86_newlib/bin/../lib/gcc/x86_64-nacl/4.4.3/../../../../x86_64-nacl/lib/../lib64/libnacl.a(munmap_d4f09867.o)
 .debug_abbrev  0x000000000000be7c      0x22f /Users/stevefar/nacl_sdk/pepper_45/toolchain/mac_x86_newlib/bin/../lib/gcc/x86_64-nacl/4.4.3/../../../../x86_64-nacl/lib/../lib64/libnacl.a(tls_bba1975b.o)
 .debug_abbrev  0x000000000000c0ab       0xf4 /Users/stevefar/nacl_sdk/pepper_45/toolchain/mac_x86_newlib/bin/../lib/gcc/x86_64-nacl/4.4.3/../../../../x86_64-nacl/lib/../lib64/libnacl.a(write_fb49787f.o)
 .debug_abbrev  0x000000000000c19f       0xa4 /Users/stevefar/nacl_sdk/pepper_45/toolchain/mac_x86_newlib/bin/../lib/gcc/x86_64-nacl/4.4.3/../../../../x86_64-nacl/lib/../lib64/libnacl.a(nacl_tls_get_d2f842b5.o)
 .debug_abbrev  0x000000000000c243      0x1d9 /Users/stevefar/nacl_sdk/pepper_45/toolchain/mac_x86_newlib/bin/../lib/gcc/x86_64-nacl/4.4.3/../../../../x86_64-nacl/lib/../lib64/libnacl.a(nacl_irt_init_7b4f826e.o)
 .debug_abbrev  0x000000000000c41c       0xdc /Users/stevefar/nacl_sdk/pepper_45/toolchain/mac_x86_newlib/bin/../lib/gcc/x86_64-nacl/4.4.3/../../../../x86_64-nacl/lib/../lib64/libnacl.a(sysconf_ad295ea2.o)
 .debug_abbrev  0x000000000000c4f8       0xb5 /Users/stevefar/nacl_sdk/pepper_45/toolchain/mac_x86_newlib/bin/../lib/gcc/x86_64-nacl/4.4.3/../../../../x86_64-nacl/lib/../lib64/libnacl.a(nacl_tls_init_eb0cd232.o)
 .debug_abbrev  0x000000000000c5ad       0xe5 /Users/stevefar/nacl_sdk/pepper_45/toolchain/mac_x86_newlib/bin/../lib/gcc/x86_64-nacl/4.4.3/../../../../x86_64-nacl/lib/../lib64/libnacl.a(close_e9b92fbd.o)
 .debug_abbrev  0x000000000000c692       0xe5 /Users/stevefar/nacl_sdk/pepper_45/toolchain/mac_x86_newlib/bin/../lib/gcc/x86_64-nacl/4.4.3/../../../../x86_64-nacl/lib/../lib64/libnacl.a(isatty_02f56e94.o)
 .debug_abbrev  0x000000000000c777       0xc3 /Users/stevefar/nacl_sdk/pepper_45/toolchain/mac_x86_newlib/bin/../lib/gcc/x86_64-nacl/4.4.3/../../../../x86_64-nacl/lib/../lib64/libnacl.a(nacl_irt_fdio_b571b5e7.o)
 .debug_abbrev  0x000000000000c83a       0xe5 /Users/stevefar/nacl_sdk/pepper_45/toolchain/mac_x86_newlib/bin/../lib/gcc/x86_64-nacl/4.4.3/../../../../x86_64-nacl/lib/../lib64/libnacl.a(fstat_0540ff63.o)
 .debug_abbrev  0x000000000000c91f       0xe5 /Users/stevefar/nacl_sdk/pepper_45/toolchain/mac_x86_newlib/bin/../lib/gcc/x86_64-nacl/4.4.3/../../../../x86_64-nacl/lib/../lib64/libnacl.a(lseek_64d2d05c.o)
 .debug_abbrev  0x000000000000ca04       0xf4 /Users/stevefar/nacl_sdk/pepper_45/toolchain/mac_x86_newlib/bin/../lib/gcc/x86_64-nacl/4.4.3/../../../../x86_64-nacl/lib/../lib64/libnacl.a(read_df872e10.o)

.debug_line     0x0000000000000000    0x1c853
 *(.debug_line .debug_line.* .debug_line_end)
 .debug_line    0x0000000000000000      0x694 newlib/Release/multi_platform_x86_64.o
 .debug_line    0x0000000000000694     0x13c9 /Users/stevefar/nacl_sdk/pepper_45/lib/newlib_x86_64/Release/libppapi_cpp.a(instance_x86_64.o)
 .debug_line    0x0000000000001a5d     0x130e /Users/stevefar/nacl_sdk/pepper_45/lib/newlib_x86_64/Release/libppapi_cpp.a(module_x86_64.o)
 .debug_line    0x0000000000002d6b      0x732 /Users/stevefar/nacl_sdk/pepper_45/lib/newlib_x86_64/Release/libppapi_cpp.a(ppp_entrypoints_x86_64.o)
 .debug_line    0x000000000000349d      0x8e1 /Users/stevefar/nacl_sdk/pepper_45/lib/newlib_x86_64/Release/libppapi_cpp.a(resource_x86_64.o)
 .debug_line    0x0000000000003d7e      0xc07 /Users/stevefar/nacl_sdk/pepper_45/lib/newlib_x86_64/Release/libppapi_cpp.a(url_loader_x86_64.o)
 .debug_line    0x0000000000004985      0x899 /Users/stevefar/nacl_sdk/pepper_45/lib/newlib_x86_64/Release/libppapi_cpp.a(url_response_info_x86_64.o)
 .debug_line    0x000000000000521e      0xdcf /Users/stevefar/nacl_sdk/pepper_45/lib/newlib_x86_64/Release/libppapi_cpp.a(var_x86_64.o)
 .debug_line    0x0000000000005fed      0xb67 /Users/stevefar/nacl_sdk/pepper_45/lib/newlib_x86_64/Release/libppapi_cpp.a(view_x86_64.o)
 .debug_line    0x0000000000006b54      0x758 /Users/stevefar/nacl_sdk/pepper_45/lib/newlib_x86_64/Release/libppapi_cpp.a(core_x86_64.o)
 .debug_line    0x00000000000072ac      0xec1 /Users/stevefar/nacl_sdk/pepper_45/lib/newlib_x86_64/Release/libppapi_cpp.a(file_ref_x86_64.o)
 .debug_line    0x000000000000816d     0x195d /Users/stevefar/nacl_sdk/pepper_45/lib/newlib_x86_64/Release/libppapi_cpp.a(input_event_x86_64.o)
 .debug_line    0x0000000000009aca       0x46 /Users/stevefar/nacl_sdk/pepper_45/toolchain/mac_x86_newlib/bin/../lib/gcc/x86_64-nacl/4.4.3/../../../../x86_64-nacl/lib/../lib64/libppapi_stub.a(plugin_main_irt_21ce9d26.o)
 .debug_line    0x0000000000009b10      0x211 /Users/stevefar/nacl_sdk/pepper_45/toolchain/mac_x86_newlib/bin/../lib/gcc/x86_64-nacl/4.4.3/../../../../x86_64-nacl/lib/../lib64/libppapi_stub.a(ppapi_plugin_main_399d0cf7.o)
 .debug_line    0x0000000000009d21      0x3e9 /Users/stevefar/nacl_sdk/pepper_45/toolchain/mac_x86_newlib/bin/../lib/gcc/x86_64-nacl/4.4.3/../../../../x86_64-nacl/lib/../lib64/libppapi_stub.a(ppapi_plugin_start_8da67623.o)
 .debug_line    0x000000000000a10a      0x21a /Users/stevefar/nacl_sdk/pepper_45/toolchain/mac_x86_newlib/bin/../lib/gcc/x86_64-nacl/4.4.3/../../../../x86_64-nacl/lib/../lib64/libppapi_stub.a(thread_creator_ccf263e1.o)
 .debug_line    0x000000000000a324      0x7b9 /Users/stevefar/nacl_sdk/pepper_45/toolchain/mac_x86_newlib/bin/../lib/gcc/x86_64-nacl/4.4.3/../../../../x86_64-nacl/lib/../lib64/libpthread.a(nc_thread_7e478b15.o)
 .debug_line    0x000000000000aadd      0x37a /Users/stevefar/nacl_sdk/pepper_45/toolchain/mac_x86_newlib/bin/../lib/gcc/x86_64-nacl/4.4.3/../../../../x86_64-nacl/lib/../lib64/libpthread.a(nc_condvar_305aa45a.o)
 .debug_line    0x000000000000ae57       0xd8 /Users/stevefar/nacl_sdk/pepper_45/toolchain/mac_x86_newlib/bin/../lib/gcc/x86_64-nacl/4.4.3/../../../../x86_64-nacl/lib/../lib64/libpthread.a(dynamic_annotations_33ba59cc.o)
 .debug_line    0x000000000000af2f      0x369 /Users/stevefar/nacl_sdk/pepper_45/toolchain/mac_x86_newlib/bin/../lib/gcc/x86_64-nacl/4.4.3/../../../../x86_64-nacl/lib/../lib64/libpthread.a(nc_mutex_86341ae1.o)
 .debug_line    0x000000000000b298      0x228 /Users/stevefar/nacl_sdk/pepper_45/toolchain/mac_x86_newlib/bin/../lib/gcc/x86_64-nacl/4.4.3/../../../../x86_64-nacl/lib/../lib64/libpthread.a(nc_init_irt_d3daafc0.o)
 .debug_line    0x000000000000b4c0      0x69a /Users/stevefar/nacl_sdk/pepper_45/toolchain/mac_x86_newlib/bin/../lib/gcc/x86_64-nacl/4.4.3/../../../../x86_64-nacl/lib/../lib64/libstdc++.a(tree.o)
 .debug_line    0x000000000000bb5a     0x2b67 /Users/stevefar/nacl_sdk/pepper_45/toolchain/mac_x86_newlib/bin/../lib/gcc/x86_64-nacl/4.4.3/../../../../x86_64-nacl/lib/../lib64/libstdc++.a(string-inst.o)
 .debug_line    0x000000000000e6c1      0x2c8 /Users/stevefar/nacl_sdk/pepper_45/toolchain/mac_x86_newlib/bin/../lib/gcc/x86_64-nacl/4.4.3/../../../../x86_64-nacl/lib/../lib64/libstdc++.a(class_type_info.o)
 .debug_line    0x000000000000e989      0x237 /Users/stevefar/nacl_sdk/pepper_45/toolchain/mac_x86_newlib/bin/../lib/gcc/x86_64-nacl/4.4.3/../../../../x86_64-nacl/lib/../lib64/libstdc++.a(del_op.o)
 .debug_line    0x000000000000ebc0      0x30a /Users/stevefar/nacl_sdk/pepper_45/toolchain/mac_x86_newlib/bin/../lib/gcc/x86_64-nacl/4.4.3/../../../../x86_64-nacl/lib/../lib64/libstdc++.a(eh_catch.o)
 .debug_line    0x000000000000eeca      0x46d /Users/stevefar/nacl_sdk/pepper_45/toolchain/mac_x86_newlib/bin/../lib/gcc/x86_64-nacl/4.4.3/../../../../x86_64-nacl/lib/../lib64/libstdc++.a(eh_globals.o)
 .debug_line    0x000000000000f337      0x6da /Users/stevefar/nacl_sdk/pepper_45/toolchain/mac_x86_newlib/bin/../lib/gcc/x86_64-nacl/4.4.3/../../../../x86_64-nacl/lib/../lib64/libstdc++.a(eh_personality.o)
 .debug_line    0x000000000000fa11      0x2dc /Users/stevefar/nacl_sdk/pepper_45/toolchain/mac_x86_newlib/bin/../lib/gcc/x86_64-nacl/4.4.3/../../../../x86_64-nacl/lib/../lib64/libstdc++.a(eh_terminate.o)
 .debug_line    0x000000000000fced      0x2fa /Users/stevefar/nacl_sdk/pepper_45/toolchain/mac_x86_newlib/bin/../lib/gcc/x86_64-nacl/4.4.3/../../../../x86_64-nacl/lib/../lib64/libstdc++.a(eh_throw.o)
 .debug_line    0x000000000000ffe7      0x1ca /Users/stevefar/nacl_sdk/pepper_45/toolchain/mac_x86_newlib/bin/../lib/gcc/x86_64-nacl/4.4.3/../../../../x86_64-nacl/lib/../lib64/libstdc++.a(eh_unex_handler.o)
 .debug_line    0x00000000000101b1      0x6b5 /Users/stevefar/nacl_sdk/pepper_45/toolchain/mac_x86_newlib/bin/../lib/gcc/x86_64-nacl/4.4.3/../../../../x86_64-nacl/lib/../lib64/libstdc++.a(guard.o)
 .debug_line    0x0000000000010866      0x26a /Users/stevefar/nacl_sdk/pepper_45/toolchain/mac_x86_newlib/bin/../lib/gcc/x86_64-nacl/4.4.3/../../../../x86_64-nacl/lib/../lib64/libstdc++.a(new_op.o)
 .debug_line    0x0000000000010ad0      0x1d4 /Users/stevefar/nacl_sdk/pepper_45/toolchain/mac_x86_newlib/bin/../lib/gcc/x86_64-nacl/4.4.3/../../../../x86_64-nacl/lib/../lib64/libstdc++.a(pure.o)
 .debug_line    0x0000000000010ca4      0x293 /Users/stevefar/nacl_sdk/pepper_45/toolchain/mac_x86_newlib/bin/../lib/gcc/x86_64-nacl/4.4.3/../../../../x86_64-nacl/lib/../lib64/libstdc++.a(si_class_type_info.o)
 .debug_line    0x0000000000010f37      0x1e5 /Users/stevefar/nacl_sdk/pepper_45/toolchain/mac_x86_newlib/bin/../lib/gcc/x86_64-nacl/4.4.3/../../../../x86_64-nacl/lib/../lib64/libstdc++.a(tinfo.o)
 .debug_line    0x000000000001111c      0xdfa /Users/stevefar/nacl_sdk/pepper_45/toolchain/mac_x86_newlib/bin/../lib/gcc/x86_64-nacl/4.4.3/../../../../x86_64-nacl/lib/../lib64/libstdc++.a(functexcept.o)
 .debug_line    0x0000000000011f16      0x88f /Users/stevefar/nacl_sdk/pepper_45/toolchain/mac_x86_newlib/bin/../lib/gcc/x86_64-nacl/4.4.3/../../../../x86_64-nacl/lib/../lib64/libstdc++.a(ios_failure.o)
 .debug_line    0x00000000000127a5      0xb68 /Users/stevefar/nacl_sdk/pepper_45/toolchain/mac_x86_newlib/bin/../lib/gcc/x86_64-nacl/4.4.3/../../../../x86_64-nacl/lib/../lib64/libstdc++.a(stdexcept.o)
 .debug_line    0x000000000001330d      0x9b9 /Users/stevefar/nacl_sdk/pepper_45/toolchain/mac_x86_newlib/bin/../lib/gcc/x86_64-nacl/4.4.3/../../../../x86_64-nacl/lib/../lib64/libstdc++.a(system_error.o)
 .debug_line    0x0000000000013cc6       0xf7 /Users/stevefar/nacl_sdk/pepper_45/toolchain/mac_x86_newlib/bin/../lib/gcc/x86_64-nacl/4.4.3/../../../../x86_64-nacl/lib/../lib64/libstdc++.a(bad_cast.o)
 .debug_line    0x0000000000013dbd       0xf9 /Users/stevefar/nacl_sdk/pepper_45/toolchain/mac_x86_newlib/bin/../lib/gcc/x86_64-nacl/4.4.3/../../../../x86_64-nacl/lib/../lib64/libstdc++.a(bad_typeid.o)
 .debug_line    0x0000000000013eb6      0x7f4 /Users/stevefar/nacl_sdk/pepper_45/toolchain/mac_x86_newlib/bin/../lib/gcc/x86_64-nacl/4.4.3/../../../../x86_64-nacl/lib/../lib64/libstdc++.a(eh_alloc.o)
 .debug_line    0x00000000000146aa      0x269 /Users/stevefar/nacl_sdk/pepper_45/toolchain/mac_x86_newlib/bin/../lib/gcc/x86_64-nacl/4.4.3/../../../../x86_64-nacl/lib/../lib64/libstdc++.a(eh_call.o)
 .debug_line    0x0000000000014913      0x1e7 /Users/stevefar/nacl_sdk/pepper_45/toolchain/mac_x86_newlib/bin/../lib/gcc/x86_64-nacl/4.4.3/../../../../x86_64-nacl/lib/../lib64/libstdc++.a(eh_exception.o)
 .debug_line    0x0000000000014afa      0x1ca /Users/stevefar/nacl_sdk/pepper_45/toolchain/mac_x86_newlib/bin/../lib/gcc/x86_64-nacl/4.4.3/../../../../x86_64-nacl/lib/../lib64/libstdc++.a(eh_term_handler.o)
 .debug_line    0x0000000000014cc4      0x199 /Users/stevefar/nacl_sdk/pepper_45/toolchain/mac_x86_newlib/bin/../lib/gcc/x86_64-nacl/4.4.3/../../../../x86_64-nacl/lib/../lib64/libstdc++.a(new_handler.o)
 .debug_line    0x0000000000014e5d      0x3e4 /Users/stevefar/nacl_sdk/pepper_45/toolchain/mac_x86_newlib/bin/../lib/gcc/x86_64-nacl/4.4.3/../../../../x86_64-nacl/lib/../lib64/libstdc++.a(vterminate.o)
 .debug_line    0x0000000000015241     0x137f /Users/stevefar/nacl_sdk/pepper_45/toolchain/mac_x86_newlib/bin/../lib/gcc/x86_64-nacl/4.4.3/../../../../x86_64-nacl/lib/../lib64/libstdc++.a(cp-demangle.o)
 .debug_line    0x00000000000165c0      0x1f1 /Users/stevefar/nacl_sdk/pepper_45/toolchain/mac_x86_newlib/bin/../lib/gcc/x86_64-nacl/4.4.3/../../../../x86_64-nacl/lib/../lib64/libstdc++.a(eh_type.o)
 .debug_line    0x00000000000167b1      0xfc8 /Users/stevefar/nacl_sdk/pepper_45/toolchain/mac_x86_newlib/bin/../lib/gcc/x86_64-nacl/4.4.3/libgcc.a(unwind-dw2.o)
 .debug_line    0x0000000000017779      0x8f8 /Users/stevefar/nacl_sdk/pepper_45/toolchain/mac_x86_newlib/bin/../lib/gcc/x86_64-nacl/4.4.3/libgcc.a(unwind-dw2-fde-glibc.o)
 .debug_line    0x0000000000018071      0x2e4 /Users/stevefar/nacl_sdk/pepper_45/toolchain/mac_x86_newlib/bin/../lib/gcc/x86_64-nacl/4.4.3/../../../../x86_64-nacl/lib/../lib64/libnacl.a(_exit_710c7d0d.o)
 .debug_line    0x0000000000018355       0xe9 /Users/stevefar/nacl_sdk/pepper_45/toolchain/mac_x86_newlib/bin/../lib/gcc/x86_64-nacl/4.4.3/../../../../x86_64-nacl/lib/../lib64/libnacl.a(abort_9f6b5845.o)
 .debug_line    0x000000000001843e       0x30 /Users/stevefar/nacl_sdk/pepper_45/toolchain/mac_x86_newlib/bin/../lib/gcc/x86_64-nacl/4.4.3/../../../../x86_64-nacl/lib/../lib64/libnacl.a(environ_25cd24d8.o)
 .debug_line    0x000000000001846e      0xd2e /Users/stevefar/nacl_sdk/pepper_45/toolchain/mac_x86_newlib/bin/../lib/gcc/x86_64-nacl/4.4.3/../../../../x86_64-nacl/lib/../lib64/libnacl.a(malloc_222c4a1e.o)
 .debug_line    0x000000000001919c      0x3b3 /Users/stevefar/nacl_sdk/pepper_45/toolchain/mac_x86_newlib/bin/../lib/gcc/x86_64-nacl/4.4.3/../../../../x86_64-nacl/lib/../lib64/libnacl.a(nacl_irt_6de1d53f.o)
 .debug_line    0x000000000001954f       0xf7 /Users/stevefar/nacl_sdk/pepper_45/toolchain/mac_x86_newlib/bin/../lib/gcc/x86_64-nacl/4.4.3/../../../../x86_64-nacl/lib/../lib64/libnacl.a(pthread_initialize_minimal_4b6e776b.o)
 .debug_line    0x0000000000019646       0x43 /Users/stevefar/nacl_sdk/pepper_45/toolchain/mac_x86_newlib/bin/../lib/gcc/x86_64-nacl/4.4.3/../../../../x86_64-nacl/lib/../lib64/libnacl.a(nacl_read_tp_5748ac47.o)
 .debug_line    0x0000000000019689       0xd8 /Users/stevefar/nacl_sdk/pepper_45/toolchain/mac_x86_newlib/bin/../lib/gcc/x86_64-nacl/4.4.3/../../../../x86_64-nacl/lib/../lib64/libnacl.a(nacl_add_tp_7312c7c4.o)
 .debug_line    0x0000000000019761      0x376 /Users/stevefar/nacl_sdk/pepper_45/toolchain/mac_x86_newlib/bin/../lib/gcc/x86_64-nacl/4.4.3/../../../../x86_64-nacl/lib/../lib64/libnacl.a(mmap_767fb080.o)
 .debug_line    0x0000000000019ad7      0x2f4 /Users/stevefar/nacl_sdk/pepper_45/toolchain/mac_x86_newlib/bin/../lib/gcc/x86_64-nacl/4.4.3/../../../../x86_64-nacl/lib/../lib64/libnacl.a(sched_yield_56c375be.o)
 .debug_line    0x0000000000019dcb      0x2ff /Users/stevefar/nacl_sdk/pepper_45/toolchain/mac_x86_newlib/bin/../lib/gcc/x86_64-nacl/4.4.3/../../../../x86_64-nacl/lib/../lib64/libnacl.a(start_fa9ef7de.o)
 .debug_line    0x000000000001a0ca      0x361 /Users/stevefar/nacl_sdk/pepper_45/toolchain/mac_x86_newlib/bin/../lib/gcc/x86_64-nacl/4.4.3/../../../../x86_64-nacl/lib/../lib64/libnacl.a(munmap_d4f09867.o)
 .debug_line    0x000000000001a42b      0x346 /Users/stevefar/nacl_sdk/pepper_45/toolchain/mac_x86_newlib/bin/../lib/gcc/x86_64-nacl/4.4.3/../../../../x86_64-nacl/lib/../lib64/libnacl.a(tls_bba1975b.o)
 .debug_line    0x000000000001a771      0x360 /Users/stevefar/nacl_sdk/pepper_45/toolchain/mac_x86_newlib/bin/../lib/gcc/x86_64-nacl/4.4.3/../../../../x86_64-nacl/lib/../lib64/libnacl.a(write_fb49787f.o)
 .debug_line    0x000000000001aad1       0xb3 /Users/stevefar/nacl_sdk/pepper_45/toolchain/mac_x86_newlib/bin/../lib/gcc/x86_64-nacl/4.4.3/../../../../x86_64-nacl/lib/../lib64/libnacl.a(nacl_tls_get_d2f842b5.o)
 .debug_line    0x000000000001ab84      0x3d4 /Users/stevefar/nacl_sdk/pepper_45/toolchain/mac_x86_newlib/bin/../lib/gcc/x86_64-nacl/4.4.3/../../../../x86_64-nacl/lib/../lib64/libnacl.a(nacl_irt_init_7b4f826e.o)
 .debug_line    0x000000000001af58      0x2f0 /Users/stevefar/nacl_sdk/pepper_45/toolchain/mac_x86_newlib/bin/../lib/gcc/x86_64-nacl/4.4.3/../../../../x86_64-nacl/lib/../lib64/libnacl.a(sysconf_ad295ea2.o)
 .debug_line    0x000000000001b248       0xb6 /Users/stevefar/nacl_sdk/pepper_45/toolchain/mac_x86_newlib/bin/../lib/gcc/x86_64-nacl/4.4.3/../../../../x86_64-nacl/lib/../lib64/libnacl.a(nacl_tls_init_eb0cd232.o)
 .debug_line    0x000000000001b2fe      0x361 /Users/stevefar/nacl_sdk/pepper_45/toolchain/mac_x86_newlib/bin/../lib/gcc/x86_64-nacl/4.4.3/../../../../x86_64-nacl/lib/../lib64/libnacl.a(close_e9b92fbd.o)
 .debug_line    0x000000000001b65f      0x385 /Users/stevefar/nacl_sdk/pepper_45/toolchain/mac_x86_newlib/bin/../lib/gcc/x86_64-nacl/4.4.3/../../../../x86_64-nacl/lib/../lib64/libnacl.a(isatty_02f56e94.o)
 .debug_line    0x000000000001b9e4      0x374 /Users/stevefar/nacl_sdk/pepper_45/toolchain/mac_x86_newlib/bin/../lib/gcc/x86_64-nacl/4.4.3/../../../../x86_64-nacl/lib/../lib64/libnacl.a(nacl_irt_fdio_b571b5e7.o)
 .debug_line    0x000000000001bd58      0x425 /Users/stevefar/nacl_sdk/pepper_45/toolchain/mac_x86_newlib/bin/../lib/gcc/x86_64-nacl/4.4.3/../../../../x86_64-nacl/lib/../lib64/libnacl.a(fstat_0540ff63.o)
 .debug_line    0x000000000001c17d      0x377 /Users/stevefar/nacl_sdk/pepper_45/toolchain/mac_x86_newlib/bin/../lib/gcc/x86_64-nacl/4.4.3/../../../../x86_64-nacl/lib/../lib64/libnacl.a(lseek_64d2d05c.o)
 .debug_line    0x000000000001c4f4      0x35f /Users/stevefar/nacl_sdk/pepper_45/toolchain/mac_x86_newlib/bin/../lib/gcc/x86_64-nacl/4.4.3/../../../../x86_64-nacl/lib/../lib64/libnacl.a(read_df872e10.o)

.debug_frame
 *(.debug_frame)

.debug_str      0x0000000000000000    0x1e9c0
 *(.debug_str)
 .debug_str     0x0000000000000000      0xaef newlib/Release/multi_platform_x86_64.o
                                        0xd1b (size before relaxing)
 .debug_str     0x0000000000000aef     0x6a03 /Users/stevefar/nacl_sdk/pepper_45/lib/newlib_x86_64/Release/libppapi_cpp.a(instance_x86_64.o)
                                       0x796e (size before relaxing)
 .debug_str     0x00000000000074f2     0x7624 /Users/stevefar/nacl_sdk/pepper_45/lib/newlib_x86_64/Release/libppapi_cpp.a(module_x86_64.o)
                                       0xaacd (size before relaxing)
 .debug_str     0x000000000000eb16       0xdb /Users/stevefar/nacl_sdk/pepper_45/lib/newlib_x86_64/Release/libppapi_cpp.a(ppp_entrypoints_x86_64.o)
                                       0x1076 (size before relaxing)
 .debug_str     0x000000000000ebf1      0x174 /Users/stevefar/nacl_sdk/pepper_45/lib/newlib_x86_64/Release/libppapi_cpp.a(resource_x86_64.o)
                                        0xfd4 (size before relaxing)
 .debug_str     0x000000000000ed65     0x1049 /Users/stevefar/nacl_sdk/pepper_45/lib/newlib_x86_64/Release/libppapi_cpp.a(url_loader_x86_64.o)
                                       0x2552 (size before relaxing)
 .debug_str     0x000000000000fdae       0xbe /Users/stevefar/nacl_sdk/pepper_45/lib/newlib_x86_64/Release/libppapi_cpp.a(url_response_info_x86_64.o)
                                       0x1509 (size before relaxing)
 .debug_str     0x000000000000fe6c      0x4af /Users/stevefar/nacl_sdk/pepper_45/lib/newlib_x86_64/Release/libppapi_cpp.a(var_x86_64.o)
                                       0x2ac2 (size before relaxing)
 .debug_str     0x000000000001031b      0x13f /Users/stevefar/nacl_sdk/pepper_45/lib/newlib_x86_64/Release/libppapi_cpp.a(view_x86_64.o)
                                       0x15e0 (size before relaxing)
 .debug_str     0x000000000001045a       0x1e /Users/stevefar/nacl_sdk/pepper_45/lib/newlib_x86_64/Release/libppapi_cpp.a(core_x86_64.o)
                                        0xf47 (size before relaxing)
 .debug_str     0x0000000000010478     0x1996 /Users/stevefar/nacl_sdk/pepper_45/lib/newlib_x86_64/Release/libppapi_cpp.a(file_ref_x86_64.o)
                                       0x33d2 (size before relaxing)
 .debug_str     0x0000000000011e0e     0x1aec /Users/stevefar/nacl_sdk/pepper_45/lib/newlib_x86_64/Release/libppapi_cpp.a(input_event_x86_64.o)
                                       0x3357 (size before relaxing)
 .debug_str     0x00000000000138fa       0xf3 /Users/stevefar/nacl_sdk/pepper_45/toolchain/mac_x86_newlib/bin/../lib/gcc/x86_64-nacl/4.4.3/../../../../x86_64-nacl/lib/../lib64/libppapi_stub.a(plugin_main_irt_21ce9d26.o)
                                        0x17c (size before relaxing)
 .debug_str     0x00000000000139ed       0x50 /Users/stevefar/nacl_sdk/pepper_45/toolchain/mac_x86_newlib/bin/../lib/gcc/x86_64-nacl/4.4.3/../../../../x86_64-nacl/lib/../lib64/libppapi_stub.a(ppapi_plugin_main_399d0cf7.o)
                                        0x209 (size before relaxing)
 .debug_str     0x0000000000013a3d       0xf9 /Users/stevefar/nacl_sdk/pepper_45/toolchain/mac_x86_newlib/bin/../lib/gcc/x86_64-nacl/4.4.3/../../../../x86_64-nacl/lib/../lib64/libppapi_stub.a(ppapi_plugin_start_8da67623.o)
                                        0x328 (size before relaxing)
 .debug_str     0x0000000000013b36       0x64 /Users/stevefar/nacl_sdk/pepper_45/toolchain/mac_x86_newlib/bin/../lib/gcc/x86_64-nacl/4.4.3/../../../../x86_64-nacl/lib/../lib64/libppapi_stub.a(thread_creator_ccf263e1.o)
                                        0x2cc (size before relaxing)
 .debug_str     0x0000000000013b9a      0x950 /Users/stevefar/nacl_sdk/pepper_45/toolchain/mac_x86_newlib/bin/../lib/gcc/x86_64-nacl/4.4.3/../../../../x86_64-nacl/lib/../lib64/libpthread.a(nc_thread_7e478b15.o)
                                        0xbef (size before relaxing)
 .debug_str     0x00000000000144ea      0x1c7 /Users/stevefar/nacl_sdk/pepper_45/toolchain/mac_x86_newlib/bin/../lib/gcc/x86_64-nacl/4.4.3/../../../../x86_64-nacl/lib/../lib64/libpthread.a(nc_condvar_305aa45a.o)
                                        0x57a (size before relaxing)
 .debug_str     0x00000000000146b1      0x48c /Users/stevefar/nacl_sdk/pepper_45/toolchain/mac_x86_newlib/bin/../lib/gcc/x86_64-nacl/4.4.3/../../../../x86_64-nacl/lib/../lib64/libpthread.a(dynamic_annotations_33ba59cc.o)
                                        0x637 (size before relaxing)
 .debug_str     0x0000000000014b3d      0x1ec /Users/stevefar/nacl_sdk/pepper_45/toolchain/mac_x86_newlib/bin/../lib/gcc/x86_64-nacl/4.4.3/../../../../x86_64-nacl/lib/../lib64/libpthread.a(nc_mutex_86341ae1.o)
                                        0x6c1 (size before relaxing)
 .debug_str     0x0000000000014d29       0x29 /Users/stevefar/nacl_sdk/pepper_45/toolchain/mac_x86_newlib/bin/../lib/gcc/x86_64-nacl/4.4.3/../../../../x86_64-nacl/lib/../lib64/libpthread.a(nc_init_irt_d3daafc0.o)
                                        0x25b (size before relaxing)
 .debug_str     0x0000000000014d52      0x2fb /Users/stevefar/nacl_sdk/pepper_45/toolchain/mac_x86_newlib/bin/../lib/gcc/x86_64-nacl/4.4.3/../../../../x86_64-nacl/lib/../lib64/libstdc++.a(tree.o)
                                        0x55e (size before relaxing)
 .debug_str     0x000000000001504d     0x1a82 /Users/stevefar/nacl_sdk/pepper_45/toolchain/mac_x86_newlib/bin/../lib/gcc/x86_64-nacl/4.4.3/../../../../x86_64-nacl/lib/../lib64/libstdc++.a(string-inst.o)
                                       0x3eec (size before relaxing)
 .debug_str     0x0000000000016acf      0x5ee /Users/stevefar/nacl_sdk/pepper_45/toolchain/mac_x86_newlib/bin/../lib/gcc/x86_64-nacl/4.4.3/../../../../x86_64-nacl/lib/../lib64/libstdc++.a(class_type_info.o)
                                        0x6ee (size before relaxing)
 .debug_str     0x00000000000170bd       0x75 /Users/stevefar/nacl_sdk/pepper_45/toolchain/mac_x86_newlib/bin/../lib/gcc/x86_64-nacl/4.4.3/../../../../x86_64-nacl/lib/../lib64/libstdc++.a(del_op.o)
                                        0x2d1 (size before relaxing)
 .debug_str     0x0000000000017132      0x3a6 /Users/stevefar/nacl_sdk/pepper_45/toolchain/mac_x86_newlib/bin/../lib/gcc/x86_64-nacl/4.4.3/../../../../x86_64-nacl/lib/../lib64/libstdc++.a(eh_catch.o)
                                        0x68a (size before relaxing)
 .debug_str     0x00000000000174d8      0x18f /Users/stevefar/nacl_sdk/pepper_45/toolchain/mac_x86_newlib/bin/../lib/gcc/x86_64-nacl/4.4.3/../../../../x86_64-nacl/lib/../lib64/libstdc++.a(eh_globals.o)
                                        0x741 (size before relaxing)
 .debug_str     0x0000000000017667      0x52a /Users/stevefar/nacl_sdk/pepper_45/toolchain/mac_x86_newlib/bin/../lib/gcc/x86_64-nacl/4.4.3/../../../../x86_64-nacl/lib/../lib64/libstdc++.a(eh_personality.o)
                                        0xb25 (size before relaxing)
 .debug_str     0x0000000000017b91      0x1bc /Users/stevefar/nacl_sdk/pepper_45/toolchain/mac_x86_newlib/bin/../lib/gcc/x86_64-nacl/4.4.3/../../../../x86_64-nacl/lib/../lib64/libstdc++.a(eh_terminate.o)
                                        0x4b0 (size before relaxing)
 .debug_str     0x0000000000017d4d      0x12c /Users/stevefar/nacl_sdk/pepper_45/toolchain/mac_x86_newlib/bin/../lib/gcc/x86_64-nacl/4.4.3/../../../../x86_64-nacl/lib/../lib64/libstdc++.a(eh_throw.o)
                                        0x61e (size before relaxing)
 .debug_str     0x0000000000017e79       0x77 /Users/stevefar/nacl_sdk/pepper_45/toolchain/mac_x86_newlib/bin/../lib/gcc/x86_64-nacl/4.4.3/../../../../x86_64-nacl/lib/../lib64/libstdc++.a(eh_unex_handler.o)
                                        0x28b (size before relaxing)
 .debug_str     0x0000000000017ef0      0x424 /Users/stevefar/nacl_sdk/pepper_45/toolchain/mac_x86_newlib/bin/../lib/gcc/x86_64-nacl/4.4.3/../../../../x86_64-nacl/lib/../lib64/libstdc++.a(guard.o)
                                        0x77f (size before relaxing)
 .debug_str     0x0000000000018314       0x82 /Users/stevefar/nacl_sdk/pepper_45/toolchain/mac_x86_newlib/bin/../lib/gcc/x86_64-nacl/4.4.3/../../../../x86_64-nacl/lib/../lib64/libstdc++.a(new_op.o)
                                        0x308 (size before relaxing)
 .debug_str     0x0000000000018396       0x7f /Users/stevefar/nacl_sdk/pepper_45/toolchain/mac_x86_newlib/bin/../lib/gcc/x86_64-nacl/4.4.3/../../../../x86_64-nacl/lib/../lib64/libstdc++.a(pure.o)
                                        0x277 (size before relaxing)
 .debug_str     0x0000000000018415      0x22d /Users/stevefar/nacl_sdk/pepper_45/toolchain/mac_x86_newlib/bin/../lib/gcc/x86_64-nacl/4.4.3/../../../../x86_64-nacl/lib/../lib64/libstdc++.a(si_class_type_info.o)
                                        0x67c (size before relaxing)
 .debug_str     0x0000000000018642      0x1c4 /Users/stevefar/nacl_sdk/pepper_45/toolchain/mac_x86_newlib/bin/../lib/gcc/x86_64-nacl/4.4.3/../../../../x86_64-nacl/lib/../lib64/libstdc++.a(tinfo.o)
                                        0x41b (size before relaxing)
 .debug_str     0x0000000000018806     0x1429 /Users/stevefar/nacl_sdk/pepper_45/toolchain/mac_x86_newlib/bin/../lib/gcc/x86_64-nacl/4.4.3/../../../../x86_64-nacl/lib/../lib64/libstdc++.a(functexcept.o)
                                       0x3c53 (size before relaxing)
 .debug_str     0x0000000000019c2f       0xa5 /Users/stevefar/nacl_sdk/pepper_45/toolchain/mac_x86_newlib/bin/../lib/gcc/x86_64-nacl/4.4.3/../../../../x86_64-nacl/lib/../lib64/libstdc++.a(ios_failure.o)
                                       0x30d2 (size before relaxing)
 .debug_str     0x0000000000019cd4       0xbf /Users/stevefar/nacl_sdk/pepper_45/toolchain/mac_x86_newlib/bin/../lib/gcc/x86_64-nacl/4.4.3/../../../../x86_64-nacl/lib/../lib64/libstdc++.a(stdexcept.o)
                                       0x2225 (size before relaxing)
 .debug_str     0x0000000000019d93      0x500 /Users/stevefar/nacl_sdk/pepper_45/toolchain/mac_x86_newlib/bin/../lib/gcc/x86_64-nacl/4.4.3/../../../../x86_64-nacl/lib/../lib64/libstdc++.a(system_error.o)
                                       0x2cea (size before relaxing)
 .debug_str     0x000000000001a293       0x91 /Users/stevefar/nacl_sdk/pepper_45/toolchain/mac_x86_newlib/bin/../lib/gcc/x86_64-nacl/4.4.3/../../../../x86_64-nacl/lib/../lib64/libstdc++.a(bad_cast.o)
                                        0x1c6 (size before relaxing)
 .debug_str     0x000000000001a324       0x98 /Users/stevefar/nacl_sdk/pepper_45/toolchain/mac_x86_newlib/bin/../lib/gcc/x86_64-nacl/4.4.3/../../../../x86_64-nacl/lib/../lib64/libstdc++.a(bad_typeid.o)
                                        0x1cf (size before relaxing)
 .debug_str     0x000000000001a3bc      0x244 /Users/stevefar/nacl_sdk/pepper_45/toolchain/mac_x86_newlib/bin/../lib/gcc/x86_64-nacl/4.4.3/../../../../x86_64-nacl/lib/../lib64/libstdc++.a(eh_alloc.o)
                                        0xab0 (size before relaxing)
 .debug_str     0x000000000001a600       0x84 /Users/stevefar/nacl_sdk/pepper_45/toolchain/mac_x86_newlib/bin/../lib/gcc/x86_64-nacl/4.4.3/../../../../x86_64-nacl/lib/../lib64/libstdc++.a(eh_call.o)
                                        0x5bb (size before relaxing)
 .debug_str     0x000000000001a684      0x19c /Users/stevefar/nacl_sdk/pepper_45/toolchain/mac_x86_newlib/bin/../lib/gcc/x86_64-nacl/4.4.3/../../../../x86_64-nacl/lib/../lib64/libstdc++.a(eh_exception.o)
                                        0x330 (size before relaxing)
 .debug_str     0x000000000001a820       0x77 /Users/stevefar/nacl_sdk/pepper_45/toolchain/mac_x86_newlib/bin/../lib/gcc/x86_64-nacl/4.4.3/../../../../x86_64-nacl/lib/../lib64/libstdc++.a(eh_term_handler.o)
                                        0x288 (size before relaxing)
 .debug_str     0x000000000001a897       0xce /Users/stevefar/nacl_sdk/pepper_45/toolchain/mac_x86_newlib/bin/../lib/gcc/x86_64-nacl/4.4.3/../../../../x86_64-nacl/lib/../lib64/libstdc++.a(new_handler.o)
                                        0x252 (size before relaxing)
 .debug_str     0x000000000001a965      0x17b /Users/stevefar/nacl_sdk/pepper_45/toolchain/mac_x86_newlib/bin/../lib/gcc/x86_64-nacl/4.4.3/../../../../x86_64-nacl/lib/../lib64/libstdc++.a(vterminate.o)
                                        0x866 (size before relaxing)
 .debug_str     0x000000000001aae0     0x110a /Users/stevefar/nacl_sdk/pepper_45/toolchain/mac_x86_newlib/bin/../lib/gcc/x86_64-nacl/4.4.3/../../../../x86_64-nacl/lib/../lib64/libstdc++.a(cp-demangle.o)
                                       0x13ef (size before relaxing)
 .debug_str     0x000000000001bbea       0x8c /Users/stevefar/nacl_sdk/pepper_45/toolchain/mac_x86_newlib/bin/../lib/gcc/x86_64-nacl/4.4.3/../../../../x86_64-nacl/lib/../lib64/libstdc++.a(eh_type.o)
                                        0x563 (size before relaxing)
 .debug_str     0x000000000001bc76     0x18d9 /Users/stevefar/nacl_sdk/pepper_45/toolchain/mac_x86_newlib/bin/../lib/gcc/x86_64-nacl/4.4.3/libgcc.a(unwind-dw2.o)
                                       0x1e00 (size before relaxing)
 .debug_str     0x000000000001d54f      0x3f0 /Users/stevefar/nacl_sdk/pepper_45/toolchain/mac_x86_newlib/bin/../lib/gcc/x86_64-nacl/4.4.3/libgcc.a(unwind-dw2-fde-glibc.o)
                                        0xec2 (size before relaxing)
 .debug_str     0x000000000001d93f       0xa8 /Users/stevefar/nacl_sdk/pepper_45/toolchain/mac_x86_newlib/bin/../lib/gcc/x86_64-nacl/4.4.3/../../../../x86_64-nacl/lib/../lib64/libnacl.a(_exit_710c7d0d.o)
                                        0x215 (size before relaxing)
 .debug_str     0x000000000001d9e7        0x8 /Users/stevefar/nacl_sdk/pepper_45/toolchain/mac_x86_newlib/bin/../lib/gcc/x86_64-nacl/4.4.3/../../../../x86_64-nacl/lib/../lib64/libnacl.a(abort_9f6b5845.o)
                                        0x171 (size before relaxing)
 .debug_str     0x000000000001d9ef       0x16 /Users/stevefar/nacl_sdk/pepper_45/toolchain/mac_x86_newlib/bin/../lib/gcc/x86_64-nacl/4.4.3/../../../../x86_64-nacl/lib/../lib64/libnacl.a(environ_25cd24d8.o)
                                         0xf5 (size before relaxing)
 .debug_str     0x000000000001da05      0x6ad /Users/stevefar/nacl_sdk/pepper_45/toolchain/mac_x86_newlib/bin/../lib/gcc/x86_64-nacl/4.4.3/../../../../x86_64-nacl/lib/../lib64/libnacl.a(malloc_222c4a1e.o)
                                        0xd55 (size before relaxing)
 .debug_str     0x000000000001e0b2      0x298 /Users/stevefar/nacl_sdk/pepper_45/toolchain/mac_x86_newlib/bin/../lib/gcc/x86_64-nacl/4.4.3/../../../../x86_64-nacl/lib/../lib64/libnacl.a(nacl_irt_6de1d53f.o)
                                        0x5ea (size before relaxing)
 .debug_str     0x000000000001e34a       0x3a /Users/stevefar/nacl_sdk/pepper_45/toolchain/mac_x86_newlib/bin/../lib/gcc/x86_64-nacl/4.4.3/../../../../x86_64-nacl/lib/../lib64/libnacl.a(pthread_initialize_minimal_4b6e776b.o)
                                        0x1c1 (size before relaxing)
 .debug_str     0x000000000001e384       0x1e /Users/stevefar/nacl_sdk/pepper_45/toolchain/mac_x86_newlib/bin/../lib/gcc/x86_64-nacl/4.4.3/../../../../x86_64-nacl/lib/../lib64/libnacl.a(nacl_read_tp_5748ac47.o)
                                        0x179 (size before relaxing)
 .debug_str     0x000000000001e3a2       0x1c /Users/stevefar/nacl_sdk/pepper_45/toolchain/mac_x86_newlib/bin/../lib/gcc/x86_64-nacl/4.4.3/../../../../x86_64-nacl/lib/../lib64/libnacl.a(nacl_add_tp_7312c7c4.o)
                                        0x181 (size before relaxing)
 .debug_str     0x000000000001e3be       0x11 /Users/stevefar/nacl_sdk/pepper_45/toolchain/mac_x86_newlib/bin/../lib/gcc/x86_64-nacl/4.4.3/../../../../x86_64-nacl/lib/../lib64/libnacl.a(mmap_767fb080.o)
                                        0x1fb (size before relaxing)
 .debug_str     0x000000000001e3cf        0xe /Users/stevefar/nacl_sdk/pepper_45/toolchain/mac_x86_newlib/bin/../lib/gcc/x86_64-nacl/4.4.3/../../../../x86_64-nacl/lib/../lib64/libnacl.a(sched_yield_56c375be.o)
                                        0x214 (size before relaxing)
 .debug_str     0x000000000001e3dd      0x112 /Users/stevefar/nacl_sdk/pepper_45/toolchain/mac_x86_newlib/bin/../lib/gcc/x86_64-nacl/4.4.3/../../../../x86_64-nacl/lib/../lib64/libnacl.a(start_fa9ef7de.o)
                                        0x2e0 (size before relaxing)
 .debug_str     0x000000000001e4ef        0x9 /Users/stevefar/nacl_sdk/pepper_45/toolchain/mac_x86_newlib/bin/../lib/gcc/x86_64-nacl/4.4.3/../../../../x86_64-nacl/lib/../lib64/libnacl.a(munmap_d4f09867.o)
                                        0x1d9 (size before relaxing)
 .debug_str     0x000000000001e4f8      0x2e4 /Users/stevefar/nacl_sdk/pepper_45/toolchain/mac_x86_newlib/bin/../lib/gcc/x86_64-nacl/4.4.3/../../../../x86_64-nacl/lib/../lib64/libnacl.a(tls_bba1975b.o)
                                        0x4fb (size before relaxing)
 .debug_str     0x000000000001e7dc        0x8 /Users/stevefar/nacl_sdk/pepper_45/toolchain/mac_x86_newlib/bin/../lib/gcc/x86_64-nacl/4.4.3/../../../../x86_64-nacl/lib/../lib64/libnacl.a(write_fb49787f.o)
                                        0x1fa (size before relaxing)
 .debug_str     0x000000000001e7e4       0x1c /Users/stevefar/nacl_sdk/pepper_45/toolchain/mac_x86_newlib/bin/../lib/gcc/x86_64-nacl/4.4.3/../../../../x86_64-nacl/lib/../lib64/libnacl.a(nacl_tls_get_d2f842b5.o)
                                        0x1a7 (size before relaxing)
 .debug_str     0x000000000001e800       0x65 /Users/stevefar/nacl_sdk/pepper_45/toolchain/mac_x86_newlib/bin/../lib/gcc/x86_64-nacl/4.4.3/../../../../x86_64-nacl/lib/../lib64/libnacl.a(nacl_irt_init_7b4f826e.o)
                                        0x3b8 (size before relaxing)
 .debug_str     0x000000000001e865        0xa /Users/stevefar/nacl_sdk/pepper_45/toolchain/mac_x86_newlib/bin/../lib/gcc/x86_64-nacl/4.4.3/../../../../x86_64-nacl/lib/../lib64/libnacl.a(sysconf_ad295ea2.o)
                                        0x21b (size before relaxing)
 .debug_str     0x000000000001e86f       0x29 /Users/stevefar/nacl_sdk/pepper_45/toolchain/mac_x86_newlib/bin/../lib/gcc/x86_64-nacl/4.4.3/../../../../x86_64-nacl/lib/../lib64/libnacl.a(nacl_tls_init_eb0cd232.o)
                                        0x1b4 (size before relaxing)
 .debug_str     0x000000000001e898        0x8 /Users/stevefar/nacl_sdk/pepper_45/toolchain/mac_x86_newlib/bin/../lib/gcc/x86_64-nacl/4.4.3/../../../../x86_64-nacl/lib/../lib64/libnacl.a(close_e9b92fbd.o)
                                        0x1ed (size before relaxing)
 .debug_str     0x000000000001e8a0        0x9 /Users/stevefar/nacl_sdk/pepper_45/toolchain/mac_x86_newlib/bin/../lib/gcc/x86_64-nacl/4.4.3/../../../../x86_64-nacl/lib/../lib64/libnacl.a(isatty_02f56e94.o)
                                        0x22e (size before relaxing)
 .debug_str     0x000000000001e8a9       0x2c /Users/stevefar/nacl_sdk/pepper_45/toolchain/mac_x86_newlib/bin/../lib/gcc/x86_64-nacl/4.4.3/../../../../x86_64-nacl/lib/../lib64/libnacl.a(nacl_irt_fdio_b571b5e7.o)
                                        0x244 (size before relaxing)
 .debug_str     0x000000000001e8d5       0xdd /Users/stevefar/nacl_sdk/pepper_45/toolchain/mac_x86_newlib/bin/../lib/gcc/x86_64-nacl/4.4.3/../../../../x86_64-nacl/lib/../lib64/libnacl.a(fstat_0540ff63.o)
                                        0x34e (size before relaxing)
 .debug_str     0x000000000001e9b2        0xe /Users/stevefar/nacl_sdk/pepper_45/toolchain/mac_x86_newlib/bin/../lib/gcc/x86_64-nacl/4.4.3/../../../../x86_64-nacl/lib/../lib64/libnacl.a(lseek_64d2d05c.o)
                                        0x215 (size before relaxing)
 .debug_str     0x0000000000000000        0xe /Users/stevefar/nacl_sdk/pepper_45/toolchain/mac_x86_newlib/bin/../lib/gcc/x86_64-nacl/4.4.3/../../../../x86_64-nacl/lib/../lib64/libnacl.a(read_df872e10.o)
                                        0x1f8 (size before relaxing)

.debug_loc      0x0000000000000000    0x341ec
 *(.debug_loc)
 .debug_loc     0x0000000000000000      0x2fd newlib/Release/multi_platform_x86_64.o
 .debug_loc     0x00000000000002fd     0x1e2a /Users/stevefar/nacl_sdk/pepper_45/lib/newlib_x86_64/Release/libppapi_cpp.a(instance_x86_64.o)
 .debug_loc     0x0000000000002127     0x2623 /Users/stevefar/nacl_sdk/pepper_45/lib/newlib_x86_64/Release/libppapi_cpp.a(module_x86_64.o)
 .debug_loc     0x000000000000474a      0x138 /Users/stevefar/nacl_sdk/pepper_45/lib/newlib_x86_64/Release/libppapi_cpp.a(ppp_entrypoints_x86_64.o)
 .debug_loc     0x0000000000004882      0x319 /Users/stevefar/nacl_sdk/pepper_45/lib/newlib_x86_64/Release/libppapi_cpp.a(resource_x86_64.o)
 .debug_loc     0x0000000000004b9b      0xa53 /Users/stevefar/nacl_sdk/pepper_45/lib/newlib_x86_64/Release/libppapi_cpp.a(url_loader_x86_64.o)
 .debug_loc     0x00000000000055ee      0x4ed /Users/stevefar/nacl_sdk/pepper_45/lib/newlib_x86_64/Release/libppapi_cpp.a(url_response_info_x86_64.o)
 .debug_loc     0x0000000000005adb      0xfe9 /Users/stevefar/nacl_sdk/pepper_45/lib/newlib_x86_64/Release/libppapi_cpp.a(var_x86_64.o)
 .debug_loc     0x0000000000006ac4      0x897 /Users/stevefar/nacl_sdk/pepper_45/lib/newlib_x86_64/Release/libppapi_cpp.a(view_x86_64.o)
 .debug_loc     0x000000000000735b      0x10d /Users/stevefar/nacl_sdk/pepper_45/lib/newlib_x86_64/Release/libppapi_cpp.a(core_x86_64.o)
 .debug_loc     0x0000000000007468      0xc2f /Users/stevefar/nacl_sdk/pepper_45/lib/newlib_x86_64/Release/libppapi_cpp.a(file_ref_x86_64.o)
 .debug_loc     0x0000000000008097     0x38f3 /Users/stevefar/nacl_sdk/pepper_45/lib/newlib_x86_64/Release/libppapi_cpp.a(input_event_x86_64.o)
 .debug_loc     0x000000000000b98a      0x1b9 /Users/stevefar/nacl_sdk/pepper_45/toolchain/mac_x86_newlib/bin/../lib/gcc/x86_64-nacl/4.4.3/../../../../x86_64-nacl/lib/../lib64/libppapi_stub.a(ppapi_plugin_start_8da67623.o)
 .debug_loc     0x000000000000bb43       0xc2 /Users/stevefar/nacl_sdk/pepper_45/toolchain/mac_x86_newlib/bin/../lib/gcc/x86_64-nacl/4.4.3/../../../../x86_64-nacl/lib/../lib64/libppapi_stub.a(thread_creator_ccf263e1.o)
 .debug_loc     0x000000000000bc05     0x1212 /Users/stevefar/nacl_sdk/pepper_45/toolchain/mac_x86_newlib/bin/../lib/gcc/x86_64-nacl/4.4.3/../../../../x86_64-nacl/lib/../lib64/libpthread.a(nc_thread_7e478b15.o)
 .debug_loc     0x000000000000ce17      0x2d2 /Users/stevefar/nacl_sdk/pepper_45/toolchain/mac_x86_newlib/bin/../lib/gcc/x86_64-nacl/4.4.3/../../../../x86_64-nacl/lib/../lib64/libpthread.a(nc_condvar_305aa45a.o)
 .debug_loc     0x000000000000d0e9       0xca /Users/stevefar/nacl_sdk/pepper_45/toolchain/mac_x86_newlib/bin/../lib/gcc/x86_64-nacl/4.4.3/../../../../x86_64-nacl/lib/../lib64/libpthread.a(dynamic_annotations_33ba59cc.o)
 .debug_loc     0x000000000000d1b3      0x3a1 /Users/stevefar/nacl_sdk/pepper_45/toolchain/mac_x86_newlib/bin/../lib/gcc/x86_64-nacl/4.4.3/../../../../x86_64-nacl/lib/../lib64/libpthread.a(nc_mutex_86341ae1.o)
 .debug_loc     0x000000000000d554       0x38 /Users/stevefar/nacl_sdk/pepper_45/toolchain/mac_x86_newlib/bin/../lib/gcc/x86_64-nacl/4.4.3/../../../../x86_64-nacl/lib/../lib64/libpthread.a(nc_init_irt_d3daafc0.o)
 .debug_loc     0x000000000000d58c      0xeff /Users/stevefar/nacl_sdk/pepper_45/toolchain/mac_x86_newlib/bin/../lib/gcc/x86_64-nacl/4.4.3/../../../../x86_64-nacl/lib/../lib64/libstdc++.a(tree.o)
 .debug_loc     0x000000000000e48b     0x7622 /Users/stevefar/nacl_sdk/pepper_45/toolchain/mac_x86_newlib/bin/../lib/gcc/x86_64-nacl/4.4.3/../../../../x86_64-nacl/lib/../lib64/libstdc++.a(string-inst.o)
 .debug_loc     0x0000000000015aad      0x288 /Users/stevefar/nacl_sdk/pepper_45/toolchain/mac_x86_newlib/bin/../lib/gcc/x86_64-nacl/4.4.3/../../../../x86_64-nacl/lib/../lib64/libstdc++.a(class_type_info.o)
 .debug_loc     0x0000000000015d35       0x36 /Users/stevefar/nacl_sdk/pepper_45/toolchain/mac_x86_newlib/bin/../lib/gcc/x86_64-nacl/4.4.3/../../../../x86_64-nacl/lib/../lib64/libstdc++.a(del_op.o)
 .debug_loc     0x0000000000015d6b      0x245 /Users/stevefar/nacl_sdk/pepper_45/toolchain/mac_x86_newlib/bin/../lib/gcc/x86_64-nacl/4.4.3/../../../../x86_64-nacl/lib/../lib64/libstdc++.a(eh_catch.o)
 .debug_loc     0x0000000000015fb0      0x264 /Users/stevefar/nacl_sdk/pepper_45/toolchain/mac_x86_newlib/bin/../lib/gcc/x86_64-nacl/4.4.3/../../../../x86_64-nacl/lib/../lib64/libstdc++.a(eh_globals.o)
 .debug_loc     0x0000000000016214     0x1f3b /Users/stevefar/nacl_sdk/pepper_45/toolchain/mac_x86_newlib/bin/../lib/gcc/x86_64-nacl/4.4.3/../../../../x86_64-nacl/lib/../lib64/libstdc++.a(eh_personality.o)
 .debug_loc     0x000000000001814f      0x16c /Users/stevefar/nacl_sdk/pepper_45/toolchain/mac_x86_newlib/bin/../lib/gcc/x86_64-nacl/4.4.3/../../../../x86_64-nacl/lib/../lib64/libstdc++.a(eh_terminate.o)
 .debug_loc     0x00000000000182bb      0x1b3 /Users/stevefar/nacl_sdk/pepper_45/toolchain/mac_x86_newlib/bin/../lib/gcc/x86_64-nacl/4.4.3/../../../../x86_64-nacl/lib/../lib64/libstdc++.a(eh_throw.o)
 .debug_loc     0x000000000001846e      0x358 /Users/stevefar/nacl_sdk/pepper_45/toolchain/mac_x86_newlib/bin/../lib/gcc/x86_64-nacl/4.4.3/../../../../x86_64-nacl/lib/../lib64/libstdc++.a(guard.o)
 .debug_loc     0x00000000000187c6       0xed /Users/stevefar/nacl_sdk/pepper_45/toolchain/mac_x86_newlib/bin/../lib/gcc/x86_64-nacl/4.4.3/../../../../x86_64-nacl/lib/../lib64/libstdc++.a(new_op.o)
 .debug_loc     0x00000000000188b3       0x38 /Users/stevefar/nacl_sdk/pepper_45/toolchain/mac_x86_newlib/bin/../lib/gcc/x86_64-nacl/4.4.3/../../../../x86_64-nacl/lib/../lib64/libstdc++.a(pure.o)
 .debug_loc     0x00000000000188eb       0xec /Users/stevefar/nacl_sdk/pepper_45/toolchain/mac_x86_newlib/bin/../lib/gcc/x86_64-nacl/4.4.3/../../../../x86_64-nacl/lib/../lib64/libstdc++.a(si_class_type_info.o)
 .debug_loc     0x00000000000189d7       0x23 /Users/stevefar/nacl_sdk/pepper_45/toolchain/mac_x86_newlib/bin/../lib/gcc/x86_64-nacl/4.4.3/../../../../x86_64-nacl/lib/../lib64/libstdc++.a(tinfo.o)
 .debug_loc     0x00000000000189fa      0xe4d /Users/stevefar/nacl_sdk/pepper_45/toolchain/mac_x86_newlib/bin/../lib/gcc/x86_64-nacl/4.4.3/../../../../x86_64-nacl/lib/../lib64/libstdc++.a(functexcept.o)
 .debug_loc     0x0000000000019847      0x40a /Users/stevefar/nacl_sdk/pepper_45/toolchain/mac_x86_newlib/bin/../lib/gcc/x86_64-nacl/4.4.3/../../../../x86_64-nacl/lib/../lib64/libstdc++.a(ios_failure.o)
 .debug_loc     0x0000000000019c51     0x13f9 /Users/stevefar/nacl_sdk/pepper_45/toolchain/mac_x86_newlib/bin/../lib/gcc/x86_64-nacl/4.4.3/../../../../x86_64-nacl/lib/../lib64/libstdc++.a(stdexcept.o)
 .debug_loc     0x000000000001b04a      0x3d1 /Users/stevefar/nacl_sdk/pepper_45/toolchain/mac_x86_newlib/bin/../lib/gcc/x86_64-nacl/4.4.3/../../../../x86_64-nacl/lib/../lib64/libstdc++.a(system_error.o)
 .debug_loc     0x000000000001b41b       0xb4 /Users/stevefar/nacl_sdk/pepper_45/toolchain/mac_x86_newlib/bin/../lib/gcc/x86_64-nacl/4.4.3/../../../../x86_64-nacl/lib/../lib64/libstdc++.a(bad_cast.o)
 .debug_loc     0x000000000001b4cf       0xb4 /Users/stevefar/nacl_sdk/pepper_45/toolchain/mac_x86_newlib/bin/../lib/gcc/x86_64-nacl/4.4.3/../../../../x86_64-nacl/lib/../lib64/libstdc++.a(bad_typeid.o)
 .debug_loc     0x000000000001b583      0x58d /Users/stevefar/nacl_sdk/pepper_45/toolchain/mac_x86_newlib/bin/../lib/gcc/x86_64-nacl/4.4.3/../../../../x86_64-nacl/lib/../lib64/libstdc++.a(eh_alloc.o)
 .debug_loc     0x000000000001bb10       0x6e /Users/stevefar/nacl_sdk/pepper_45/toolchain/mac_x86_newlib/bin/../lib/gcc/x86_64-nacl/4.4.3/../../../../x86_64-nacl/lib/../lib64/libstdc++.a(eh_call.o)
 .debug_loc     0x000000000001bb7e       0x8c /Users/stevefar/nacl_sdk/pepper_45/toolchain/mac_x86_newlib/bin/../lib/gcc/x86_64-nacl/4.4.3/../../../../x86_64-nacl/lib/../lib64/libstdc++.a(eh_exception.o)
 .debug_loc     0x000000000001bc0a       0xd7 /Users/stevefar/nacl_sdk/pepper_45/toolchain/mac_x86_newlib/bin/../lib/gcc/x86_64-nacl/4.4.3/../../../../x86_64-nacl/lib/../lib64/libstdc++.a(new_handler.o)
 .debug_loc     0x000000000001bce1      0x16f /Users/stevefar/nacl_sdk/pepper_45/toolchain/mac_x86_newlib/bin/../lib/gcc/x86_64-nacl/4.4.3/../../../../x86_64-nacl/lib/../lib64/libstdc++.a(vterminate.o)
 .debug_loc     0x000000000001be50     0x40d2 /Users/stevefar/nacl_sdk/pepper_45/toolchain/mac_x86_newlib/bin/../lib/gcc/x86_64-nacl/4.4.3/../../../../x86_64-nacl/lib/../lib64/libstdc++.a(cp-demangle.o)
 .debug_loc     0x000000000001ff22       0x91 /Users/stevefar/nacl_sdk/pepper_45/toolchain/mac_x86_newlib/bin/../lib/gcc/x86_64-nacl/4.4.3/../../../../x86_64-nacl/lib/../lib64/libstdc++.a(eh_type.o)
 .debug_loc     0x000000000001ffb3     0x744f /Users/stevefar/nacl_sdk/pepper_45/toolchain/mac_x86_newlib/bin/../lib/gcc/x86_64-nacl/4.4.3/libgcc.a(unwind-dw2.o)
 .debug_loc     0x0000000000027402     0x29ac /Users/stevefar/nacl_sdk/pepper_45/toolchain/mac_x86_newlib/bin/../lib/gcc/x86_64-nacl/4.4.3/libgcc.a(unwind-dw2-fde-glibc.o)
 .debug_loc     0x0000000000029dae       0x5b /Users/stevefar/nacl_sdk/pepper_45/toolchain/mac_x86_newlib/bin/../lib/gcc/x86_64-nacl/4.4.3/../../../../x86_64-nacl/lib/../lib64/libnacl.a(_exit_710c7d0d.o)
 .debug_loc     0x0000000000029e09       0x38 /Users/stevefar/nacl_sdk/pepper_45/toolchain/mac_x86_newlib/bin/../lib/gcc/x86_64-nacl/4.4.3/../../../../x86_64-nacl/lib/../lib64/libnacl.a(abort_9f6b5845.o)
 .debug_loc     0x0000000000029e41     0x927d /Users/stevefar/nacl_sdk/pepper_45/toolchain/mac_x86_newlib/bin/../lib/gcc/x86_64-nacl/4.4.3/../../../../x86_64-nacl/lib/../lib64/libnacl.a(malloc_222c4a1e.o)
 .debug_loc     0x00000000000330be      0x2a6 /Users/stevefar/nacl_sdk/pepper_45/toolchain/mac_x86_newlib/bin/../lib/gcc/x86_64-nacl/4.4.3/../../../../x86_64-nacl/lib/../lib64/libnacl.a(nacl_irt_6de1d53f.o)
 .debug_loc     0x0000000000033364      0x110 /Users/stevefar/nacl_sdk/pepper_45/toolchain/mac_x86_newlib/bin/../lib/gcc/x86_64-nacl/4.4.3/../../../../x86_64-nacl/lib/../lib64/libnacl.a(pthread_initialize_minimal_4b6e776b.o)
 .debug_loc     0x0000000000033474       0x6e /Users/stevefar/nacl_sdk/pepper_45/toolchain/mac_x86_newlib/bin/../lib/gcc/x86_64-nacl/4.4.3/../../../../x86_64-nacl/lib/../lib64/libnacl.a(nacl_add_tp_7312c7c4.o)
 .debug_loc     0x00000000000334e2      0x168 /Users/stevefar/nacl_sdk/pepper_45/toolchain/mac_x86_newlib/bin/../lib/gcc/x86_64-nacl/4.4.3/../../../../x86_64-nacl/lib/../lib64/libnacl.a(mmap_767fb080.o)
 .debug_loc     0x000000000003364a       0x6e /Users/stevefar/nacl_sdk/pepper_45/toolchain/mac_x86_newlib/bin/../lib/gcc/x86_64-nacl/4.4.3/../../../../x86_64-nacl/lib/../lib64/libnacl.a(sched_yield_56c375be.o)
 .debug_loc     0x00000000000336b8       0xc9 /Users/stevefar/nacl_sdk/pepper_45/toolchain/mac_x86_newlib/bin/../lib/gcc/x86_64-nacl/4.4.3/../../../../x86_64-nacl/lib/../lib64/libnacl.a(start_fa9ef7de.o)
 .debug_loc     0x0000000000033781       0xb4 /Users/stevefar/nacl_sdk/pepper_45/toolchain/mac_x86_newlib/bin/../lib/gcc/x86_64-nacl/4.4.3/../../../../x86_64-nacl/lib/../lib64/libnacl.a(munmap_d4f09867.o)
 .debug_loc     0x0000000000033835      0x2b0 /Users/stevefar/nacl_sdk/pepper_45/toolchain/mac_x86_newlib/bin/../lib/gcc/x86_64-nacl/4.4.3/../../../../x86_64-nacl/lib/../lib64/libnacl.a(tls_bba1975b.o)
 .debug_loc     0x0000000000033ae5      0x10f /Users/stevefar/nacl_sdk/pepper_45/toolchain/mac_x86_newlib/bin/../lib/gcc/x86_64-nacl/4.4.3/../../../../x86_64-nacl/lib/../lib64/libnacl.a(write_fb49787f.o)
 .debug_loc     0x0000000000033bf4       0x6f /Users/stevefar/nacl_sdk/pepper_45/toolchain/mac_x86_newlib/bin/../lib/gcc/x86_64-nacl/4.4.3/../../../../x86_64-nacl/lib/../lib64/libnacl.a(nacl_irt_init_7b4f826e.o)
 .debug_loc     0x0000000000033c63       0xc9 /Users/stevefar/nacl_sdk/pepper_45/toolchain/mac_x86_newlib/bin/../lib/gcc/x86_64-nacl/4.4.3/../../../../x86_64-nacl/lib/../lib64/libnacl.a(sysconf_ad295ea2.o)
 .debug_loc     0x0000000000033d2c       0x23 /Users/stevefar/nacl_sdk/pepper_45/toolchain/mac_x86_newlib/bin/../lib/gcc/x86_64-nacl/4.4.3/../../../../x86_64-nacl/lib/../lib64/libnacl.a(nacl_tls_init_eb0cd232.o)
 .debug_loc     0x0000000000033d4f       0x91 /Users/stevefar/nacl_sdk/pepper_45/toolchain/mac_x86_newlib/bin/../lib/gcc/x86_64-nacl/4.4.3/../../../../x86_64-nacl/lib/../lib64/libnacl.a(close_e9b92fbd.o)
 .debug_loc     0x0000000000033de0      0x102 /Users/stevefar/nacl_sdk/pepper_45/toolchain/mac_x86_newlib/bin/../lib/gcc/x86_64-nacl/4.4.3/../../../../x86_64-nacl/lib/../lib64/libnacl.a(isatty_02f56e94.o)
 .debug_loc     0x0000000000033ee2       0x38 /Users/stevefar/nacl_sdk/pepper_45/toolchain/mac_x86_newlib/bin/../lib/gcc/x86_64-nacl/4.4.3/../../../../x86_64-nacl/lib/../lib64/libnacl.a(nacl_irt_fdio_b571b5e7.o)
 .debug_loc     0x0000000000033f1a       0xb4 /Users/stevefar/nacl_sdk/pepper_45/toolchain/mac_x86_newlib/bin/../lib/gcc/x86_64-nacl/4.4.3/../../../../x86_64-nacl/lib/../lib64/libnacl.a(fstat_0540ff63.o)
 .debug_loc     0x0000000000033fce      0x10f /Users/stevefar/nacl_sdk/pepper_45/toolchain/mac_x86_newlib/bin/../lib/gcc/x86_64-nacl/4.4.3/../../../../x86_64-nacl/lib/../lib64/libnacl.a(lseek_64d2d05c.o)
 .debug_loc     0x00000000000340dd      0x10f /Users/stevefar/nacl_sdk/pepper_45/toolchain/mac_x86_newlib/bin/../lib/gcc/x86_64-nacl/4.4.3/../../../../x86_64-nacl/lib/../lib64/libnacl.a(read_df872e10.o)

.debug_macinfo
 *(.debug_macinfo)

.debug_weaknames
 *(.debug_weaknames)

.debug_funcnames
 *(.debug_funcnames)

.debug_typenames
 *(.debug_typenames)

.debug_varnames
 *(.debug_varnames)

.debug_pubtypes
 *(.debug_pubtypes)

.debug_ranges   0x0000000000000000    0x1d5f0
 *(.debug_ranges)
 .debug_ranges  0x0000000000000000       0x90 newlib/Release/multi_platform_x86_64.o
 .debug_ranges  0x0000000000000090     0x2af0 /Users/stevefar/nacl_sdk/pepper_45/lib/newlib_x86_64/Release/libppapi_cpp.a(instance_x86_64.o)
 .debug_ranges  0x0000000000002b80     0x2090 /Users/stevefar/nacl_sdk/pepper_45/lib/newlib_x86_64/Release/libppapi_cpp.a(module_x86_64.o)
 .debug_ranges  0x0000000000004c10       0x30 /Users/stevefar/nacl_sdk/pepper_45/lib/newlib_x86_64/Release/libppapi_cpp.a(ppp_entrypoints_x86_64.o)
 .debug_ranges  0x0000000000004c40      0x120 /Users/stevefar/nacl_sdk/pepper_45/lib/newlib_x86_64/Release/libppapi_cpp.a(resource_x86_64.o)
 .debug_ranges  0x0000000000004d60      0xe10 /Users/stevefar/nacl_sdk/pepper_45/lib/newlib_x86_64/Release/libppapi_cpp.a(url_loader_x86_64.o)
 .debug_ranges  0x0000000000005b70      0x2d0 /Users/stevefar/nacl_sdk/pepper_45/lib/newlib_x86_64/Release/libppapi_cpp.a(url_response_info_x86_64.o)
 .debug_ranges  0x0000000000005e40     0x1330 /Users/stevefar/nacl_sdk/pepper_45/lib/newlib_x86_64/Release/libppapi_cpp.a(var_x86_64.o)
 .debug_ranges  0x0000000000007170     0x1950 /Users/stevefar/nacl_sdk/pepper_45/lib/newlib_x86_64/Release/libppapi_cpp.a(view_x86_64.o)
 .debug_ranges  0x0000000000008ac0     0x2970 /Users/stevefar/nacl_sdk/pepper_45/lib/newlib_x86_64/Release/libppapi_cpp.a(file_ref_x86_64.o)
 .debug_ranges  0x000000000000b430     0x3660 /Users/stevefar/nacl_sdk/pepper_45/lib/newlib_x86_64/Release/libppapi_cpp.a(input_event_x86_64.o)
 .debug_ranges  0x000000000000ea90      0x410 /Users/stevefar/nacl_sdk/pepper_45/toolchain/mac_x86_newlib/bin/../lib/gcc/x86_64-nacl/4.4.3/../../../../x86_64-nacl/lib/../lib64/libpthread.a(nc_thread_7e478b15.o)
 .debug_ranges  0x000000000000eea0       0x40 /Users/stevefar/nacl_sdk/pepper_45/toolchain/mac_x86_newlib/bin/../lib/gcc/x86_64-nacl/4.4.3/../../../../x86_64-nacl/lib/../lib64/libpthread.a(nc_mutex_86341ae1.o)
 .debug_ranges  0x000000000000eee0      0x8b0 /Users/stevefar/nacl_sdk/pepper_45/toolchain/mac_x86_newlib/bin/../lib/gcc/x86_64-nacl/4.4.3/../../../../x86_64-nacl/lib/../lib64/libstdc++.a(tree.o)
 .debug_ranges  0x000000000000f790     0x3ec0 /Users/stevefar/nacl_sdk/pepper_45/toolchain/mac_x86_newlib/bin/../lib/gcc/x86_64-nacl/4.4.3/../../../../x86_64-nacl/lib/../lib64/libstdc++.a(string-inst.o)
 .debug_ranges  0x0000000000013650       0xd0 /Users/stevefar/nacl_sdk/pepper_45/toolchain/mac_x86_newlib/bin/../lib/gcc/x86_64-nacl/4.4.3/../../../../x86_64-nacl/lib/../lib64/libstdc++.a(class_type_info.o)
 .debug_ranges  0x0000000000013720       0x30 /Users/stevefar/nacl_sdk/pepper_45/toolchain/mac_x86_newlib/bin/../lib/gcc/x86_64-nacl/4.4.3/../../../../x86_64-nacl/lib/../lib64/libstdc++.a(del_op.o)
 .debug_ranges  0x0000000000013750       0xf0 /Users/stevefar/nacl_sdk/pepper_45/toolchain/mac_x86_newlib/bin/../lib/gcc/x86_64-nacl/4.4.3/../../../../x86_64-nacl/lib/../lib64/libstdc++.a(eh_catch.o)
 .debug_ranges  0x0000000000013840      0x200 /Users/stevefar/nacl_sdk/pepper_45/toolchain/mac_x86_newlib/bin/../lib/gcc/x86_64-nacl/4.4.3/../../../../x86_64-nacl/lib/../lib64/libstdc++.a(eh_globals.o)
 .debug_ranges  0x0000000000013a40      0x660 /Users/stevefar/nacl_sdk/pepper_45/toolchain/mac_x86_newlib/bin/../lib/gcc/x86_64-nacl/4.4.3/../../../../x86_64-nacl/lib/../lib64/libstdc++.a(eh_personality.o)
 .debug_ranges  0x00000000000140a0       0x80 /Users/stevefar/nacl_sdk/pepper_45/toolchain/mac_x86_newlib/bin/../lib/gcc/x86_64-nacl/4.4.3/../../../../x86_64-nacl/lib/../lib64/libstdc++.a(eh_terminate.o)
 .debug_ranges  0x0000000000014120       0xe0 /Users/stevefar/nacl_sdk/pepper_45/toolchain/mac_x86_newlib/bin/../lib/gcc/x86_64-nacl/4.4.3/../../../../x86_64-nacl/lib/../lib64/libstdc++.a(eh_throw.o)
 .debug_ranges  0x0000000000014200      0x350 /Users/stevefar/nacl_sdk/pepper_45/toolchain/mac_x86_newlib/bin/../lib/gcc/x86_64-nacl/4.4.3/../../../../x86_64-nacl/lib/../lib64/libstdc++.a(guard.o)
 .debug_ranges  0x0000000000014550       0xa0 /Users/stevefar/nacl_sdk/pepper_45/toolchain/mac_x86_newlib/bin/../lib/gcc/x86_64-nacl/4.4.3/../../../../x86_64-nacl/lib/../lib64/libstdc++.a(new_op.o)
 .debug_ranges  0x00000000000145f0       0x30 /Users/stevefar/nacl_sdk/pepper_45/toolchain/mac_x86_newlib/bin/../lib/gcc/x86_64-nacl/4.4.3/../../../../x86_64-nacl/lib/../lib64/libstdc++.a(pure.o)
 .debug_ranges  0x0000000000014620       0x80 /Users/stevefar/nacl_sdk/pepper_45/toolchain/mac_x86_newlib/bin/../lib/gcc/x86_64-nacl/4.4.3/../../../../x86_64-nacl/lib/../lib64/libstdc++.a(si_class_type_info.o)
 .debug_ranges  0x00000000000146a0       0x90 /Users/stevefar/nacl_sdk/pepper_45/toolchain/mac_x86_newlib/bin/../lib/gcc/x86_64-nacl/4.4.3/../../../../x86_64-nacl/lib/../lib64/libstdc++.a(tinfo.o)
 .debug_ranges  0x0000000000014730      0x9c0 /Users/stevefar/nacl_sdk/pepper_45/toolchain/mac_x86_newlib/bin/../lib/gcc/x86_64-nacl/4.4.3/../../../../x86_64-nacl/lib/../lib64/libstdc++.a(functexcept.o)
 .debug_ranges  0x00000000000150f0      0x2f0 /Users/stevefar/nacl_sdk/pepper_45/toolchain/mac_x86_newlib/bin/../lib/gcc/x86_64-nacl/4.4.3/../../../../x86_64-nacl/lib/../lib64/libstdc++.a(ios_failure.o)
 .debug_ranges  0x00000000000153e0      0x780 /Users/stevefar/nacl_sdk/pepper_45/toolchain/mac_x86_newlib/bin/../lib/gcc/x86_64-nacl/4.4.3/../../../../x86_64-nacl/lib/../lib64/libstdc++.a(stdexcept.o)
 .debug_ranges  0x0000000000015b60      0x1e0 /Users/stevefar/nacl_sdk/pepper_45/toolchain/mac_x86_newlib/bin/../lib/gcc/x86_64-nacl/4.4.3/../../../../x86_64-nacl/lib/../lib64/libstdc++.a(system_error.o)
 .debug_ranges  0x0000000000015d40       0x60 /Users/stevefar/nacl_sdk/pepper_45/toolchain/mac_x86_newlib/bin/../lib/gcc/x86_64-nacl/4.4.3/../../../../x86_64-nacl/lib/../lib64/libstdc++.a(bad_cast.o)
 .debug_ranges  0x0000000000015da0       0x60 /Users/stevefar/nacl_sdk/pepper_45/toolchain/mac_x86_newlib/bin/../lib/gcc/x86_64-nacl/4.4.3/../../../../x86_64-nacl/lib/../lib64/libstdc++.a(bad_typeid.o)
 .debug_ranges  0x0000000000015e00      0x860 /Users/stevefar/nacl_sdk/pepper_45/toolchain/mac_x86_newlib/bin/../lib/gcc/x86_64-nacl/4.4.3/../../../../x86_64-nacl/lib/../lib64/libstdc++.a(eh_alloc.o)
 .debug_ranges  0x0000000000016660       0x30 /Users/stevefar/nacl_sdk/pepper_45/toolchain/mac_x86_newlib/bin/../lib/gcc/x86_64-nacl/4.4.3/../../../../x86_64-nacl/lib/../lib64/libstdc++.a(eh_call.o)
 .debug_ranges  0x0000000000016690      0x100 /Users/stevefar/nacl_sdk/pepper_45/toolchain/mac_x86_newlib/bin/../lib/gcc/x86_64-nacl/4.4.3/../../../../x86_64-nacl/lib/../lib64/libstdc++.a(eh_exception.o)
 .debug_ranges  0x0000000000016790       0x70 /Users/stevefar/nacl_sdk/pepper_45/toolchain/mac_x86_newlib/bin/../lib/gcc/x86_64-nacl/4.4.3/../../../../x86_64-nacl/lib/../lib64/libstdc++.a(new_handler.o)
 .debug_ranges  0x0000000000016800       0xa0 /Users/stevefar/nacl_sdk/pepper_45/toolchain/mac_x86_newlib/bin/../lib/gcc/x86_64-nacl/4.4.3/../../../../x86_64-nacl/lib/../lib64/libstdc++.a(vterminate.o)
 .debug_ranges  0x00000000000168a0     0x1fa0 /Users/stevefar/nacl_sdk/pepper_45/toolchain/mac_x86_newlib/bin/../lib/gcc/x86_64-nacl/4.4.3/../../../../x86_64-nacl/lib/../lib64/libstdc++.a(cp-demangle.o)
 .debug_ranges  0x0000000000018840       0x60 /Users/stevefar/nacl_sdk/pepper_45/toolchain/mac_x86_newlib/bin/../lib/gcc/x86_64-nacl/4.4.3/../../../../x86_64-nacl/lib/../lib64/libstdc++.a(eh_type.o)
 .debug_ranges  0x00000000000188a0     0x1500 /Users/stevefar/nacl_sdk/pepper_45/toolchain/mac_x86_newlib/bin/../lib/gcc/x86_64-nacl/4.4.3/libgcc.a(unwind-dw2.o)
 .debug_ranges  0x0000000000019da0      0x7d0 /Users/stevefar/nacl_sdk/pepper_45/toolchain/mac_x86_newlib/bin/../lib/gcc/x86_64-nacl/4.4.3/libgcc.a(unwind-dw2-fde-glibc.o)
 .debug_ranges  0x000000000001a570     0x2cf0 /Users/stevefar/nacl_sdk/pepper_45/toolchain/mac_x86_newlib/bin/../lib/gcc/x86_64-nacl/4.4.3/../../../../x86_64-nacl/lib/../lib64/libnacl.a(malloc_222c4a1e.o)
 .debug_ranges  0x000000000001d260       0x60 /Users/stevefar/nacl_sdk/pepper_45/toolchain/mac_x86_newlib/bin/../lib/gcc/x86_64-nacl/4.4.3/../../../../x86_64-nacl/lib/../lib64/libnacl.a(nacl_irt_6de1d53f.o)
 .debug_ranges  0x000000000001d2c0       0x60 /Users/stevefar/nacl_sdk/pepper_45/toolchain/mac_x86_newlib/bin/../lib/gcc/x86_64-nacl/4.4.3/../../../../x86_64-nacl/lib/../lib64/libnacl.a(start_fa9ef7de.o)
 .debug_ranges  0x000000000001d320      0x2a0 /Users/stevefar/nacl_sdk/pepper_45/toolchain/mac_x86_newlib/bin/../lib/gcc/x86_64-nacl/4.4.3/../../../../x86_64-nacl/lib/../lib64/libnacl.a(tls_bba1975b.o)
 .debug_ranges  0x000000000001d5c0       0x30 /Users/stevefar/nacl_sdk/pepper_45/toolchain/mac_x86_newlib/bin/../lib/gcc/x86_64-nacl/4.4.3/../../../../x86_64-nacl/lib/../lib64/libnacl.a(nacl_irt_init_7b4f826e.o)

.debug_macro
 *(.debug_macro)

.gnu.attributes
 *(.gnu.attributes)

/DISCARD/
 *(.note.GNU-stack)
 *(.gnu_debuglink)
 *(.gnu.lto_*)
OUTPUT(newlib/Release/_platform_specific/x86-64/multi_platform_unstripped_x86_64.nexe elf64-x86-64-nacl)
